
mipsx:     file format elf64-powerpcle


Disassembly of section .init:

00000000000009e0 <00000035.plt_call.__gmon_start__>:
 9e0:	18 00 41 f8 	std     r2,24(r1)
 9e4:	ff ff 82 3d 	addis   r12,r2,-1
 9e8:	c0 7f 8c e9 	ld      r12,32704(r12)
 9ec:	a6 03 89 7d 	mtctr   r12
 9f0:	20 04 80 4e 	bctr
	...

0000000000000a00 <_init>:
 a00:	02 00 4c 3c 	addis   r2,r12,2
 a04:	00 75 42 38 	addi    r2,r2,29952
 a08:	a6 02 08 7c 	mflr    r0
 a0c:	10 00 01 f8 	std     r0,16(r1)
 a10:	a1 ff 21 f8 	stdu    r1,-96(r1)
 a14:	00 00 00 60 	nop
 a18:	08 80 02 e8 	ld      r0,-32760(r2)
 a1c:	00 00 a0 2f 	cmpdi   cr7,r0,0
 a20:	0c 00 fe 41 	beq+    cr7,a2c <_init+0x2c>
 a24:	bd ff ff 4b 	bl      9e0 <00000035.plt_call.__gmon_start__>
 a28:	18 00 41 e8 	ld      r2,24(r1)
 a2c:	60 00 21 38 	addi    r1,r1,96
 a30:	10 00 01 e8 	ld      r0,16(r1)
 a34:	a6 03 08 7c 	mtlr    r0
 a38:	20 00 80 4e 	blr

Disassembly of section .text:

0000000000000a40 <00000048.plt_call.__ctype_b_loc@@GLIBC_2.17>:
     a40:	18 00 41 f8 	std     r2,24(r1)
     a44:	ff ff 82 3d 	addis   r12,r2,-1
     a48:	d8 7f 8c e9 	ld      r12,32728(r12)
     a4c:	a6 03 89 7d 	mtctr   r12
     a50:	20 04 80 4e 	bctr
	...

0000000000000a60 <00000048.plt_call.memcpy@@GLIBC_2.17>:
     a60:	18 00 41 f8 	std     r2,24(r1)
     a64:	ff ff 82 3d 	addis   r12,r2,-1
     a68:	50 7f 8c e9 	ld      r12,32592(r12)
     a6c:	a6 03 89 7d 	mtctr   r12
     a70:	20 04 80 4e 	bctr
	...

0000000000000a80 <00000048.plt_call.perror@@GLIBC_2.17>:
     a80:	18 00 41 f8 	std     r2,24(r1)
     a84:	ff ff 82 3d 	addis   r12,r2,-1
     a88:	58 7f 8c e9 	ld      r12,32600(r12)
     a8c:	a6 03 89 7d 	mtctr   r12
     a90:	20 04 80 4e 	bctr
	...

0000000000000aa0 <00000048.plt_call.strncmp@@GLIBC_2.17>:
     aa0:	18 00 41 f8 	std     r2,24(r1)
     aa4:	ff ff 82 3d 	addis   r12,r2,-1
     aa8:	98 7f 8c e9 	ld      r12,32664(r12)
     aac:	a6 03 89 7d 	mtctr   r12
     ab0:	20 04 80 4e 	bctr
	...

0000000000000ac0 <00000048.plt_call.strtoll@@GLIBC_2.17>:
     ac0:	18 00 41 f8 	std     r2,24(r1)
     ac4:	ff ff 82 3d 	addis   r12,r2,-1
     ac8:	60 7f 8c e9 	ld      r12,32608(r12)
     acc:	a6 03 89 7d 	mtctr   r12
     ad0:	20 04 80 4e 	bctr
	...

0000000000000ae0 <00000048.plt_call.fputc@@GLIBC_2.17>:
     ae0:	18 00 41 f8 	std     r2,24(r1)
     ae4:	ff ff 82 3d 	addis   r12,r2,-1
     ae8:	78 7f 8c e9 	ld      r12,32632(r12)
     aec:	a6 03 89 7d 	mtctr   r12
     af0:	20 04 80 4e 	bctr
	...

0000000000000b00 <00000048.plt_call.putchar@@GLIBC_2.17>:
     b00:	18 00 41 f8 	std     r2,24(r1)
     b04:	ff ff 82 3d 	addis   r12,r2,-1
     b08:	f0 7f 8c e9 	ld      r12,32752(r12)
     b0c:	a6 03 89 7d 	mtctr   r12
     b10:	20 04 80 4e 	bctr
	...

0000000000000b20 <00000048.plt_call.puts@@GLIBC_2.17>:
     b20:	18 00 41 f8 	std     r2,24(r1)
     b24:	ff ff 82 3d 	addis   r12,r2,-1
     b28:	c8 7f 8c e9 	ld      r12,32712(r12)
     b2c:	a6 03 89 7d 	mtctr   r12
     b30:	20 04 80 4e 	bctr
	...

0000000000000b40 <00000048.plt_call.fclose@@GLIBC_2.17>:
     b40:	18 00 41 f8 	std     r2,24(r1)
     b44:	ff ff 82 3d 	addis   r12,r2,-1
     b48:	80 7f 8c e9 	ld      r12,32640(r12)
     b4c:	a6 03 89 7d 	mtctr   r12
     b50:	20 04 80 4e 	bctr
	...

0000000000000b60 <00000048.plt_call.__fprintf_chk@@GLIBC_2.17>:
     b60:	18 00 41 f8 	std     r2,24(r1)
     b64:	ff ff 82 3d 	addis   r12,r2,-1
     b68:	d0 7f 8c e9 	ld      r12,32720(r12)
     b6c:	a6 03 89 7d 	mtctr   r12
     b70:	20 04 80 4e 	bctr
	...

0000000000000b80 <00000048.plt_call.memset@@GLIBC_2.17>:
     b80:	18 00 41 f8 	std     r2,24(r1)
     b84:	ff ff 82 3d 	addis   r12,r2,-1
     b88:	b0 7f 8c e9 	ld      r12,32688(r12)
     b8c:	a6 03 89 7d 	mtctr   r12
     b90:	20 04 80 4e 	bctr
	...

0000000000000ba0 <00000048.plt_call.strtod@@GLIBC_2.17>:
     ba0:	18 00 41 f8 	std     r2,24(r1)
     ba4:	ff ff 82 3d 	addis   r12,r2,-1
     ba8:	68 7f 8c e9 	ld      r12,32616(r12)
     bac:	a6 03 89 7d 	mtctr   r12
     bb0:	20 04 80 4e 	bctr
	...

0000000000000bc0 <00000048.plt_call.fgets@@GLIBC_2.17>:
     bc0:	18 00 41 f8 	std     r2,24(r1)
     bc4:	ff ff 82 3d 	addis   r12,r2,-1
     bc8:	f8 7f 8c e9 	ld      r12,32760(r12)
     bcc:	a6 03 89 7d 	mtctr   r12
     bd0:	20 04 80 4e 	bctr
	...

0000000000000be0 <00000048.plt_call.malloc@@GLIBC_2.17>:
     be0:	18 00 41 f8 	std     r2,24(r1)
     be4:	ff ff 82 3d 	addis   r12,r2,-1
     be8:	90 7f 8c e9 	ld      r12,32656(r12)
     bec:	a6 03 89 7d 	mtctr   r12
     bf0:	20 04 80 4e 	bctr
	...

0000000000000c00 <00000048.plt_call.__libc_start_main@@GLIBC_2.17>:
     c00:	18 00 41 f8 	std     r2,24(r1)
     c04:	ff ff 82 3d 	addis   r12,r2,-1
     c08:	a0 7f 8c e9 	ld      r12,32672(r12)
     c0c:	a6 03 89 7d 	mtctr   r12
     c10:	20 04 80 4e 	bctr
	...

0000000000000c20 <00000048.plt_call.strchr@@GLIBC_2.17>:
     c20:	18 00 41 f8 	std     r2,24(r1)
     c24:	ff ff 82 3d 	addis   r12,r2,-1
     c28:	e0 7f 8c e9 	ld      r12,32736(r12)
     c2c:	a6 03 89 7d 	mtctr   r12
     c30:	20 04 80 4e 	bctr
	...

0000000000000c40 <00000048.plt_call.__errno_location@@GLIBC_2.17>:
     c40:	18 00 41 f8 	std     r2,24(r1)
     c44:	ff ff 82 3d 	addis   r12,r2,-1
     c48:	e8 7f 8c e9 	ld      r12,32744(r12)
     c4c:	a6 03 89 7d 	mtctr   r12
     c50:	20 04 80 4e 	bctr
	...

0000000000000c60 <00000048.plt_call.__cxa_finalize@@GLIBC_2.17>:
     c60:	18 00 41 f8 	std     r2,24(r1)
     c64:	ff ff 82 3d 	addis   r12,r2,-1
     c68:	70 7f 8c e9 	ld      r12,32624(r12)
     c6c:	a6 03 89 7d 	mtctr   r12
     c70:	20 04 80 4e 	bctr
	...

0000000000000c80 <00000048.plt_call.fopen@@GLIBC_2.17>:
     c80:	18 00 41 f8 	std     r2,24(r1)
     c84:	ff ff 82 3d 	addis   r12,r2,-1
     c88:	88 7f 8c e9 	ld      r12,32648(r12)
     c8c:	a6 03 89 7d 	mtctr   r12
     c90:	20 04 80 4e 	bctr
	...

0000000000000ca0 <00000048.plt_call.__printf_chk@@GLIBC_2.17>:
     ca0:	18 00 41 f8 	std     r2,24(r1)
     ca4:	ff ff 82 3d 	addis   r12,r2,-1
     ca8:	a8 7f 8c e9 	ld      r12,32680(r12)
     cac:	a6 03 89 7d 	mtctr   r12
     cb0:	20 04 80 4e 	bctr
	...

0000000000000cc0 <00000048.plt_call.__stack_chk_fail@@GLIBC_2.17>:
     cc0:	18 00 41 f8 	std     r2,24(r1)
     cc4:	ff ff 82 3d 	addis   r12,r2,-1
     cc8:	b8 7f 8c e9 	ld      r12,32696(r12)
     ccc:	a6 03 89 7d 	mtctr   r12
     cd0:	20 04 80 4e 	bctr
	...

0000000000000ce0 <main>:
     ce0:	02 00 4c 3c 	addis   r2,r12,2
     ce4:	20 72 42 38 	addi    r2,r2,29216
     ce8:	a6 02 08 7c 	mflr    r0
     cec:	f8 ff e1 db 	stfd    f31,-8(r1)
     cf0:	d0 ff 61 fb 	std     r27,-48(r1)
     cf4:	d0 04 00 f0 	xxlxor  vs0,vs0,vs0
     cf8:	d8 ff 81 fb 	std     r28,-40(r1)
     cfc:	e0 ff a1 fb 	std     r29,-32(r1)
     d00:	e8 ff c1 fb 	std     r30,-24(r1)
     d04:	f0 ff e1 fb 	std     r31,-16(r1)
     d08:	01 00 e0 3f 	lis     r31,1
     d0c:	c0 ff 21 fb 	std     r25,-64(r1)
     d10:	c8 ff 41 fb 	std     r26,-56(r1)
     d14:	a0 86 ff 63 	ori     r31,r31,34464
     d18:	00 00 00 60 	nop
     d1c:	28 81 a2 3b 	addi    r29,r2,-32472
     d20:	3a 00 c2 3f 	addis   r30,r2,58
     d24:	b0 8b de 3b 	addi    r30,r30,-29776
     d28:	10 00 01 f8 	std     r0,16(r1)
     d2c:	61 ff 21 f8 	stdu    r1,-160(r1)
     d30:	00 00 1d d0 	stfs    f0,0(r29)
     d34:	00 00 1e d0 	stfs    f0,0(r30)
     d38:	d1 88 00 48 	bl      9608 <init_timebase+0x8>
     d3c:	00 00 00 60 	nop
     d40:	fe ff 82 3c 	addis   r4,r2,-2
     d44:	01 00 60 38 	li      r3,1
     d48:	48 21 84 38 	addi    r4,r4,8520
     d4c:	55 ff ff 4b 	bl      ca0 <00000048.plt_call.__printf_chk@@GLIBC_2.17>
     d50:	18 00 41 e8 	ld      r2,24(r1)
     d54:	55 8e 00 48 	bl      9ba8 <timebase_sec+0x8>
     d58:	00 00 00 60 	nop
     d5c:	fe ff 22 3d 	addis   r9,r2,-2
     d60:	09 00 82 3f 	addis   r28,r2,9
     d64:	b0 51 9c 3b 	addi    r28,r28,20912
     d68:	a0 1f e9 cb 	lfd     f31,8096(r9)
     d6c:	f2 07 21 fc 	fmul    f1,f1,f31
     d70:	00 00 3c d8 	stfd    f1,0(r28)
     d74:	75 17 00 48 	bl      24e8 <Perm+0x8>
     d78:	31 8e 00 48 	bl      9ba8 <timebase_sec+0x8>
     d7c:	00 00 00 60 	nop
     d80:	00 00 7c c9 	lfd     f11,0(r28)
     d84:	fe ff 22 3d 	addis   r9,r2,-2
     d88:	00 00 5e c1 	lfs     f10,0(r30)
     d8c:	43 00 62 3f 	addis   r27,r2,67
     d90:	48 5c 7b 3b 	addi    r27,r27,23624
     d94:	fe ff 82 3c 	addis   r4,r2,-2
     d98:	00 00 9d c1 	lfs     f12,0(r29)
     d9c:	58 21 84 38 	addi    r4,r4,8536
     da0:	01 00 60 38 	li      r3,1
     da4:	c0 1f 09 c8 	lfd     f0,8128(r9)
     da8:	f8 5f 21 fc 	fmsub   f1,f1,f31,f11
     dac:	3a 60 81 fd 	fmadd   f12,f1,f0,f12
     db0:	3a 50 01 fc 	fmadd   f0,f1,f0,f10
     db4:	08 00 3b d8 	stfd    f1,8(r27)
     db8:	18 60 80 fd 	frsp    f12,f12
     dbc:	18 00 00 fc 	frsp    f0,f0
     dc0:	00 00 9d d1 	stfs    f12,0(r29)
     dc4:	00 00 1e d0 	stfs    f0,0(r30)
     dc8:	d9 fe ff 4b 	bl      ca0 <00000048.plt_call.__printf_chk@@GLIBC_2.17>
     dcc:	18 00 41 e8 	ld      r2,24(r1)
     dd0:	d9 8d 00 48 	bl      9ba8 <timebase_sec+0x8>
     dd4:	00 00 00 60 	nop
     dd8:	f2 07 21 fc 	fmul    f1,f1,f31
     ddc:	00 00 3c d8 	stfd    f1,0(r28)
     de0:	39 3e 00 48 	bl      4c18 <Towers+0x8>
     de4:	c5 8d 00 48 	bl      9ba8 <timebase_sec+0x8>
     de8:	00 00 00 60 	nop
     dec:	00 00 7c c9 	lfd     f11,0(r28)
     df0:	fe ff 22 3d 	addis   r9,r2,-2
     df4:	00 00 5e c1 	lfs     f10,0(r30)
     df8:	fe ff 82 3c 	addis   r4,r2,-2
     dfc:	00 00 9d c1 	lfs     f12,0(r29)
     e00:	68 21 84 38 	addi    r4,r4,8552
     e04:	01 00 60 38 	li      r3,1
     e08:	c8 1f 09 c8 	lfd     f0,8136(r9)
     e0c:	f8 5f 21 fc 	fmsub   f1,f1,f31,f11
     e10:	3a 60 81 fd 	fmadd   f12,f1,f0,f12
     e14:	3a 50 01 fc 	fmadd   f0,f1,f0,f10
     e18:	10 00 3b d8 	stfd    f1,16(r27)
     e1c:	18 60 80 fd 	frsp    f12,f12
     e20:	18 00 00 fc 	frsp    f0,f0
     e24:	00 00 9d d1 	stfs    f12,0(r29)
     e28:	00 00 1e d0 	stfs    f0,0(r30)
     e2c:	75 fe ff 4b 	bl      ca0 <00000048.plt_call.__printf_chk@@GLIBC_2.17>
     e30:	18 00 41 e8 	ld      r2,24(r1)
     e34:	75 8d 00 48 	bl      9ba8 <timebase_sec+0x8>
     e38:	00 00 00 60 	nop
     e3c:	f2 07 21 fc 	fmul    f1,f1,f31
     e40:	00 00 3c d8 	stfd    f1,0(r28)
     e44:	00 00 00 60 	nop
     e48:	00 00 00 60 	nop
     e4c:	00 00 42 60 	ori     r2,r2,0
     e50:	99 4a 00 48 	bl      58e8 <Doit+0x8>
     e54:	ff ff 3f 39 	addi    r9,r31,-1
     e58:	21 00 3f 79 	clrldi. r31,r9,32
     e5c:	f4 ff 82 40 	bne     e50 <main+0x170>
     e60:	49 8d 00 48 	bl      9ba8 <timebase_sec+0x8>
     e64:	00 00 00 60 	nop
     e68:	00 00 7c c9 	lfd     f11,0(r28)
     e6c:	fe ff 22 3d 	addis   r9,r2,-2
     e70:	00 00 5e c1 	lfs     f10,0(r30)
     e74:	fe ff 82 3c 	addis   r4,r2,-2
     e78:	00 00 9d c1 	lfs     f12,0(r29)
     e7c:	78 21 84 38 	addi    r4,r4,8568
     e80:	01 00 60 38 	li      r3,1
     e84:	d0 1f 09 c8 	lfd     f0,8144(r9)
     e88:	fe ff 22 3f 	addis   r25,r2,-2
     e8c:	78 db 7f 7f 	mr      r31,r27
     e90:	e8 21 39 3b 	addi    r25,r25,8680
     e94:	50 00 5b 3b 	addi    r26,r27,80
     e98:	f8 5f 21 fc 	fmsub   f1,f1,f31,f11
     e9c:	3a 60 81 fd 	fmadd   f12,f1,f0,f12
     ea0:	3a 50 01 fc 	fmadd   f0,f1,f0,f10
     ea4:	18 00 3b d8 	stfd    f1,24(r27)
     ea8:	18 60 80 fd 	frsp    f12,f12
     eac:	18 00 00 fc 	frsp    f0,f0
     eb0:	00 00 9d d1 	stfs    f12,0(r29)
     eb4:	00 00 1e d0 	stfs    f0,0(r30)
     eb8:	e9 fd ff 4b 	bl      ca0 <00000048.plt_call.__printf_chk@@GLIBC_2.17>
     ebc:	18 00 41 e8 	ld      r2,24(r1)
     ec0:	e9 8c 00 48 	bl      9ba8 <timebase_sec+0x8>
     ec4:	00 00 00 60 	nop
     ec8:	f2 07 21 fc 	fmul    f1,f1,f31
     ecc:	00 00 3c d8 	stfd    f1,0(r28)
     ed0:	c9 52 00 48 	bl      6198 <Intmm+0x8>
     ed4:	d5 8c 00 48 	bl      9ba8 <timebase_sec+0x8>
     ed8:	00 00 00 60 	nop
     edc:	00 00 7c c9 	lfd     f11,0(r28)
     ee0:	fe ff 22 3d 	addis   r9,r2,-2
     ee4:	00 00 5e c1 	lfs     f10,0(r30)
     ee8:	fe ff 82 3c 	addis   r4,r2,-2
     eec:	00 00 9d c1 	lfs     f12,0(r29)
     ef0:	88 21 84 38 	addi    r4,r4,8584
     ef4:	01 00 60 38 	li      r3,1
     ef8:	d8 1f 09 c8 	lfd     f0,8152(r9)
     efc:	f8 5f 21 fc 	fmsub   f1,f1,f31,f11
     f00:	3a 60 81 fd 	fmadd   f12,f1,f0,f12
     f04:	3a 50 01 fc 	fmadd   f0,f1,f0,f10
     f08:	20 00 3b d8 	stfd    f1,32(r27)
     f0c:	18 60 80 fd 	frsp    f12,f12
     f10:	18 00 00 fc 	frsp    f0,f0
     f14:	00 00 9d d1 	stfs    f12,0(r29)
     f18:	00 00 1e d0 	stfs    f0,0(r30)
     f1c:	85 fd ff 4b 	bl      ca0 <00000048.plt_call.__printf_chk@@GLIBC_2.17>
     f20:	18 00 41 e8 	ld      r2,24(r1)
     f24:	85 8c 00 48 	bl      9ba8 <timebase_sec+0x8>
     f28:	00 00 00 60 	nop
     f2c:	f2 07 21 fc 	fmul    f1,f1,f31
     f30:	00 00 3c d8 	stfd    f1,0(r28)
     f34:	05 55 00 48 	bl      6438 <Mm+0x8>
     f38:	71 8c 00 48 	bl      9ba8 <timebase_sec+0x8>
     f3c:	00 00 00 60 	nop
     f40:	00 00 7c c9 	lfd     f11,0(r28)
     f44:	fe ff 22 3d 	addis   r9,r2,-2
     f48:	00 00 3d c1 	lfs     f9,0(r29)
     f4c:	fe ff 82 3c 	addis   r4,r2,-2
     f50:	00 00 5e c1 	lfs     f10,0(r30)
     f54:	98 21 84 38 	addi    r4,r4,8600
     f58:	01 00 60 38 	li      r3,1
     f5c:	e0 1f 89 c9 	lfd     f12,8160(r9)
     f60:	fe ff 22 3d 	addis   r9,r2,-2
     f64:	e8 1f 09 c8 	lfd     f0,8168(r9)
     f68:	f8 5f 21 fc 	fmsub   f1,f1,f31,f11
     f6c:	3a 4b 81 fd 	fmadd   f12,f1,f12,f9
     f70:	3a 50 01 fc 	fmadd   f0,f1,f0,f10
     f74:	28 00 3b d8 	stfd    f1,40(r27)
     f78:	18 60 80 fd 	frsp    f12,f12
     f7c:	18 00 00 fc 	frsp    f0,f0
     f80:	00 00 9d d1 	stfs    f12,0(r29)
     f84:	00 00 1e d0 	stfs    f0,0(r30)
     f88:	19 fd ff 4b 	bl      ca0 <00000048.plt_call.__printf_chk@@GLIBC_2.17>
     f8c:	18 00 41 e8 	ld      r2,24(r1)
     f90:	19 8c 00 48 	bl      9ba8 <timebase_sec+0x8>
     f94:	00 00 00 60 	nop
     f98:	f2 07 21 fc 	fmul    f1,f1,f31
     f9c:	00 00 3c d8 	stfd    f1,0(r28)
     fa0:	19 5c 00 48 	bl      6bb8 <Puzzle+0x8>
     fa4:	05 8c 00 48 	bl      9ba8 <timebase_sec+0x8>
     fa8:	00 00 00 60 	nop
     fac:	00 00 7c c9 	lfd     f11,0(r28)
     fb0:	fe ff 22 3d 	addis   r9,r2,-2
     fb4:	00 00 5e c1 	lfs     f10,0(r30)
     fb8:	fe ff 82 3c 	addis   r4,r2,-2
     fbc:	00 00 9d c1 	lfs     f12,0(r29)
     fc0:	a8 21 84 38 	addi    r4,r4,8616
     fc4:	01 00 60 38 	li      r3,1
     fc8:	f0 1f 09 c8 	lfd     f0,8176(r9)
     fcc:	f8 5f 21 fc 	fmsub   f1,f1,f31,f11
     fd0:	3a 60 81 fd 	fmadd   f12,f1,f0,f12
     fd4:	3a 50 01 fc 	fmadd   f0,f1,f0,f10
     fd8:	30 00 3b d8 	stfd    f1,48(r27)
     fdc:	18 60 80 fd 	frsp    f12,f12
     fe0:	18 00 00 fc 	frsp    f0,f0
     fe4:	00 00 9d d1 	stfs    f12,0(r29)
     fe8:	00 00 1e d0 	stfs    f0,0(r30)
     fec:	b5 fc ff 4b 	bl      ca0 <00000048.plt_call.__printf_chk@@GLIBC_2.17>
     ff0:	18 00 41 e8 	ld      r2,24(r1)
     ff4:	b5 8b 00 48 	bl      9ba8 <timebase_sec+0x8>
     ff8:	00 00 00 60 	nop
     ffc:	f2 07 21 fc 	fmul    f1,f1,f31
    1000:	00 00 3c d8 	stfd    f1,0(r28)
    1004:	c5 68 00 48 	bl      78c8 <Quick+0x8>
    1008:	a1 8b 00 48 	bl      9ba8 <timebase_sec+0x8>
    100c:	00 00 00 60 	nop
    1010:	00 00 7c c9 	lfd     f11,0(r28)
    1014:	fe ff 22 3d 	addis   r9,r2,-2
    1018:	00 00 5e c1 	lfs     f10,0(r30)
    101c:	fe ff 82 3c 	addis   r4,r2,-2
    1020:	00 00 9d c1 	lfs     f12,0(r29)
    1024:	b8 21 84 38 	addi    r4,r4,8632
    1028:	01 00 60 38 	li      r3,1
    102c:	f8 1f 09 c8 	lfd     f0,8184(r9)
    1030:	f8 5f 21 fc 	fmsub   f1,f1,f31,f11
    1034:	3a 60 81 fd 	fmadd   f12,f1,f0,f12
    1038:	3a 50 01 fc 	fmadd   f0,f1,f0,f10
    103c:	38 00 3b d8 	stfd    f1,56(r27)
    1040:	18 60 80 fd 	frsp    f12,f12
    1044:	18 00 00 fc 	frsp    f0,f0
    1048:	00 00 9d d1 	stfs    f12,0(r29)
    104c:	00 00 1e d0 	stfs    f0,0(r30)
    1050:	51 fc ff 4b 	bl      ca0 <00000048.plt_call.__printf_chk@@GLIBC_2.17>
    1054:	18 00 41 e8 	ld      r2,24(r1)
    1058:	51 8b 00 48 	bl      9ba8 <timebase_sec+0x8>
    105c:	00 00 00 60 	nop
    1060:	f2 07 21 fc 	fmul    f1,f1,f31
    1064:	00 00 3c d8 	stfd    f1,0(r28)
    1068:	b1 77 00 48 	bl      8818 <Bubble+0x8>
    106c:	3d 8b 00 48 	bl      9ba8 <timebase_sec+0x8>
    1070:	00 00 00 60 	nop
    1074:	00 00 7c c9 	lfd     f11,0(r28)
    1078:	fe ff 22 3d 	addis   r9,r2,-2
    107c:	00 00 5e c1 	lfs     f10,0(r30)
    1080:	fe ff 82 3c 	addis   r4,r2,-2
    1084:	00 00 9d c1 	lfs     f12,0(r29)
    1088:	c8 21 84 38 	addi    r4,r4,8648
    108c:	01 00 60 38 	li      r3,1
    1090:	00 20 09 c8 	lfd     f0,8192(r9)
    1094:	f8 5f 21 fc 	fmsub   f1,f1,f31,f11
    1098:	3a 60 81 fd 	fmadd   f12,f1,f0,f12
    109c:	3a 50 01 fc 	fmadd   f0,f1,f0,f10
    10a0:	40 00 3b d8 	stfd    f1,64(r27)
    10a4:	18 60 80 fd 	frsp    f12,f12
    10a8:	18 00 00 fc 	frsp    f0,f0
    10ac:	00 00 9d d1 	stfs    f12,0(r29)
    10b0:	00 00 1e d0 	stfs    f0,0(r30)
    10b4:	ed fb ff 4b 	bl      ca0 <00000048.plt_call.__printf_chk@@GLIBC_2.17>
    10b8:	18 00 41 e8 	ld      r2,24(r1)
    10bc:	ed 8a 00 48 	bl      9ba8 <timebase_sec+0x8>
    10c0:	00 00 00 60 	nop
    10c4:	f2 07 21 fc 	fmul    f1,f1,f31
    10c8:	00 00 3c d8 	stfd    f1,0(r28)
    10cc:	dd 73 00 48 	bl      84a8 <Trees+0x8>
    10d0:	d9 8a 00 48 	bl      9ba8 <timebase_sec+0x8>
    10d4:	00 00 00 60 	nop
    10d8:	00 00 7c c9 	lfd     f11,0(r28)
    10dc:	fe ff 22 3d 	addis   r9,r2,-2
    10e0:	00 00 5e c1 	lfs     f10,0(r30)
    10e4:	fe ff 82 3c 	addis   r4,r2,-2
    10e8:	00 00 9d c1 	lfs     f12,0(r29)
    10ec:	d8 21 84 38 	addi    r4,r4,8664
    10f0:	01 00 60 38 	li      r3,1
    10f4:	08 20 09 c8 	lfd     f0,8200(r9)
    10f8:	f8 5f 21 fc 	fmsub   f1,f1,f31,f11
    10fc:	3a 60 81 fd 	fmadd   f12,f1,f0,f12
    1100:	3a 50 01 fc 	fmadd   f0,f1,f0,f10
    1104:	48 00 3b d8 	stfd    f1,72(r27)
    1108:	18 60 80 fd 	frsp    f12,f12
    110c:	18 00 00 fc 	frsp    f0,f0
    1110:	00 00 9d d1 	stfs    f12,0(r29)
    1114:	00 00 1e d0 	stfs    f0,0(r30)
    1118:	89 fb ff 4b 	bl      ca0 <00000048.plt_call.__printf_chk@@GLIBC_2.17>
    111c:	18 00 41 e8 	ld      r2,24(r1)
    1120:	89 8a 00 48 	bl      9ba8 <timebase_sec+0x8>
    1124:	00 00 00 60 	nop
    1128:	f2 07 21 fc 	fmul    f1,f1,f31
    112c:	00 00 3c d8 	stfd    f1,0(r28)
    1130:	a9 7f 00 48 	bl      90d8 <Oscar+0x8>
    1134:	75 8a 00 48 	bl      9ba8 <timebase_sec+0x8>
    1138:	00 00 00 60 	nop
    113c:	00 00 3c c9 	lfd     f9,0(r28)
    1140:	fe ff 22 3d 	addis   r9,r2,-2
    1144:	00 00 5d c1 	lfs     f10,0(r29)
    1148:	0a 00 60 38 	li      r3,10
    114c:	00 00 7e c1 	lfs     f11,0(r30)
    1150:	10 20 89 c9 	lfd     f12,8208(r9)
    1154:	fe ff 22 3d 	addis   r9,r2,-2
    1158:	18 20 09 c8 	lfd     f0,8216(r9)
    115c:	f8 4f 21 fc 	fmsub   f1,f1,f31,f9
    1160:	3a 53 81 fd 	fmadd   f12,f1,f12,f10
    1164:	3a 58 01 fc 	fmadd   f0,f1,f0,f11
    1168:	50 00 3b d8 	stfd    f1,80(r27)
    116c:	18 60 80 fd 	frsp    f12,f12
    1170:	18 00 00 fc 	frsp    f0,f0
    1174:	00 00 9d d1 	stfs    f12,0(r29)
    1178:	00 00 1e d0 	stfs    f0,0(r30)
    117c:	85 f9 ff 4b 	bl      b00 <00000048.plt_call.putchar@@GLIBC_2.17>
    1180:	18 00 41 e8 	ld      r2,24(r1)
    1184:	1c 00 00 48 	b       11a0 <main+0x4c0>
    1188:	00 00 00 60 	nop
    118c:	00 00 00 60 	nop
    1190:	00 00 00 60 	nop
    1194:	00 00 00 60 	nop
    1198:	00 00 00 60 	nop
    119c:	00 00 42 60 	ori     r2,r2,0
    11a0:	08 00 bf e8 	ld      r5,8(r31)
    11a4:	78 cb 24 7f 	mr      r4,r25
    11a8:	08 00 ff 3b 	addi    r31,r31,8
    11ac:	01 00 60 38 	li      r3,1
    11b0:	66 01 25 7c 	mtvsrd  vs1,r5
    11b4:	ed fa ff 4b 	bl      ca0 <00000048.plt_call.__printf_chk@@GLIBC_2.17>
    11b8:	18 00 41 e8 	ld      r2,24(r1)
    11bc:	40 d0 bf 7f 	cmpld   cr7,r31,r26
    11c0:	e0 ff 9e 40 	bne     cr7,11a0 <main+0x4c0>
    11c4:	0a 00 60 38 	li      r3,10
    11c8:	39 f9 ff 4b 	bl      b00 <00000048.plt_call.putchar@@GLIBC_2.17>
    11cc:	18 00 41 e8 	ld      r2,24(r1)
    11d0:	a0 00 21 38 	addi    r1,r1,160
    11d4:	00 00 60 38 	li      r3,0
    11d8:	10 00 01 e8 	ld      r0,16(r1)
    11dc:	f8 ff e1 cb 	lfd     f31,-8(r1)
    11e0:	c0 ff 21 eb 	ld      r25,-64(r1)
    11e4:	c8 ff 41 eb 	ld      r26,-56(r1)
    11e8:	d0 ff 61 eb 	ld      r27,-48(r1)
    11ec:	d8 ff 81 eb 	ld      r28,-40(r1)
    11f0:	e0 ff a1 eb 	ld      r29,-32(r1)
    11f4:	e8 ff c1 eb 	ld      r30,-24(r1)
    11f8:	f0 ff e1 eb 	ld      r31,-16(r1)
    11fc:	a6 03 08 7c 	mtlr    r0
    1200:	20 00 80 4e 	blr
    1204:	00 00 00 00 	.long 0x0
    1208:	00 00 02 01 	.long 0x1020000
    120c:	81 07 00 00 	.long 0x781

0000000000001210 <_start>:
    1210:	02 00 4c 3c 	addis   r2,r12,2
    1214:	f0 6c 42 38 	addi    r2,r2,27888
    1218:	78 0b 29 7c 	mr      r9,r1
    121c:	e4 06 21 78 	rldicr  r1,r1,0,59
    1220:	00 00 00 38 	li      r0,0
    1224:	81 ff 21 f8 	stdu    r1,-128(r1)
    1228:	a6 03 08 7c 	mtlr    r0
    122c:	00 00 01 f8 	std     r0,0(r1)
    1230:	10 80 02 e9 	ld      r8,-32752(r2)
    1234:	cc f9 ff 4b 	b       c00 <00000048.plt_call.__libc_start_main@@GLIBC_2.17>
    1238:	00 00 00 60 	nop
	...
    1244:	40 20 0c 00 	.long 0xc2040
    1248:	2c 00 00 00 	.long 0x2c
    124c:	06 00 5f 73 	andi.   r31,r26,6
    1250:	74 61 72 74 	andis.  r18,r3,24948
    1254:	00 00 00 60 	nop
    1258:	00 00 00 60 	nop
    125c:	00 00 00 60 	nop

0000000000001260 <deregister_tm_clones>:
    1260:	02 00 4c 3c 	addis   r2,r12,2
    1264:	a0 6c 42 38 	addi    r2,r2,27808
    1268:	00 00 00 60 	nop
    126c:	00 00 00 60 	nop
    1270:	e1 ff 21 f8 	stdu    r1,-32(r1)
    1274:	10 81 62 38 	addi    r3,r2,-32496
    1278:	10 81 22 39 	addi    r9,r2,-32496
    127c:	00 18 a9 7f 	cmpd    cr7,r9,r3
    1280:	38 00 9e 41 	beq     cr7,12b8 <deregister_tm_clones+0x58>
    1284:	00 00 00 60 	nop
    1288:	18 80 22 e9 	ld      r9,-32744(r2)
    128c:	00 00 a9 2f 	cmpdi   cr7,r9,0
    1290:	28 00 9e 41 	beq     cr7,12b8 <deregister_tm_clones+0x58>
    1294:	a6 02 08 7c 	mflr    r0
    1298:	18 00 41 f8 	std     r2,24(r1)
    129c:	78 4b 2c 7d 	mr      r12,r9
    12a0:	a6 03 29 7d 	mtctr   r9
    12a4:	30 00 01 f8 	std     r0,48(r1)
    12a8:	21 04 80 4e 	bctrl
    12ac:	18 00 41 e8 	ld      r2,24(r1)
    12b0:	30 00 01 e8 	ld      r0,48(r1)
    12b4:	a6 03 08 7c 	mtlr    r0
    12b8:	20 00 21 38 	addi    r1,r1,32
    12bc:	20 00 80 4e 	blr

00000000000012c0 <register_tm_clones>:
    12c0:	02 00 4c 3c 	addis   r2,r12,2
    12c4:	40 6c 42 38 	addi    r2,r2,27712
    12c8:	00 00 00 60 	nop
    12cc:	00 00 00 60 	nop
    12d0:	e1 ff 21 f8 	stdu    r1,-32(r1)
    12d4:	10 81 62 38 	addi    r3,r2,-32496
    12d8:	10 81 82 38 	addi    r4,r2,-32496
    12dc:	50 20 83 7c 	subf    r4,r3,r4
    12e0:	74 1e 84 7c 	sradi   r4,r4,3
    12e4:	74 0e 84 7c 	sradi   r4,r4,1
    12e8:	95 01 84 7c 	addze.  r4,r4
    12ec:	38 00 82 41 	beq     1324 <register_tm_clones+0x64>
    12f0:	00 00 00 60 	nop
    12f4:	20 80 22 e9 	ld      r9,-32736(r2)
    12f8:	00 00 a9 2f 	cmpdi   cr7,r9,0
    12fc:	28 00 9e 41 	beq     cr7,1324 <register_tm_clones+0x64>
    1300:	a6 02 08 7c 	mflr    r0
    1304:	18 00 41 f8 	std     r2,24(r1)
    1308:	78 4b 2c 7d 	mr      r12,r9
    130c:	a6 03 29 7d 	mtctr   r9
    1310:	30 00 01 f8 	std     r0,48(r1)
    1314:	21 04 80 4e 	bctrl
    1318:	18 00 41 e8 	ld      r2,24(r1)
    131c:	30 00 01 e8 	ld      r0,48(r1)
    1320:	a6 03 08 7c 	mtlr    r0
    1324:	20 00 21 38 	addi    r1,r1,32
    1328:	20 00 80 4e 	blr
    132c:	00 00 42 60 	ori     r2,r2,0

0000000000001330 <__do_global_dtors_aux>:
    1330:	02 00 4c 3c 	addis   r2,r12,2
    1334:	d0 6b 42 38 	addi    r2,r2,27600
    1338:	00 00 00 60 	nop
    133c:	10 81 22 89 	lbz     r9,-32496(r2)
    1340:	e1 ff 21 f8 	stdu    r1,-32(r1)
    1344:	00 00 89 2f 	cmpwi   cr7,r9,0
    1348:	44 00 9e 40 	bne     cr7,138c <__do_global_dtors_aux+0x5c>
    134c:	a6 02 08 7c 	mflr    r0
    1350:	00 00 00 60 	nop
    1354:	28 80 22 e9 	ld      r9,-32728(r2)
    1358:	00 00 a9 2f 	cmpdi   cr7,r9,0
    135c:	30 00 01 f8 	std     r0,48(r1)
    1360:	14 00 9e 41 	beq     cr7,1374 <__do_global_dtors_aux+0x44>
    1364:	00 00 00 60 	nop
    1368:	08 81 62 e8 	ld      r3,-32504(r2)
    136c:	f5 f8 ff 4b 	bl      c60 <00000048.plt_call.__cxa_finalize@@GLIBC_2.17>
    1370:	18 00 41 e8 	ld      r2,24(r1)
    1374:	f5 fe ff 4b 	bl      1268 <deregister_tm_clones+0x8>
    1378:	30 00 01 e8 	ld      r0,48(r1)
    137c:	01 00 20 39 	li      r9,1
    1380:	00 00 00 60 	nop
    1384:	10 81 22 99 	stb     r9,-32496(r2)
    1388:	a6 03 08 7c 	mtlr    r0
    138c:	20 00 21 38 	addi    r1,r1,32
    1390:	20 00 80 4e 	blr
    1394:	00 00 00 60 	nop
    1398:	00 00 00 60 	nop
    139c:	00 00 42 60 	ori     r2,r2,0

00000000000013a0 <frame_dummy>:
    13a0:	02 00 4c 3c 	addis   r2,r12,2
    13a4:	60 6b 42 38 	addi    r2,r2,27488
    13a8:	20 ff ff 4b 	b       12c8 <register_tm_clones+0x8>
    13ac:	00 00 00 60 	nop
    13b0:	00 00 00 60 	nop
    13b4:	00 00 00 60 	nop
    13b8:	00 00 00 60 	nop
    13bc:	00 00 00 60 	nop

00000000000013c0 <Permute.part.0>:
    13c0:	02 00 4c 3c 	addis   r2,r12,2
    13c4:	40 6b 42 38 	addi    r2,r2,27456
    13c8:	26 00 80 7d 	mfcr    r12
    13cc:	e8 ff a1 fb 	std     r29,-24(r1)
    13d0:	3a 00 a2 3f 	addis   r29,r2,58
    13d4:	b4 8b bd 3b 	addi    r29,r29,-29772
    13d8:	f8 ff e1 fb 	std     r31,-8(r1)
    13dc:	ff ff e3 3b 	addi    r31,r3,-1
    13e0:	70 ff c1 f9 	std     r14,-144(r1)
    13e4:	01 00 9f 2f 	cmpwi   cr7,r31,1
    13e8:	b4 07 ee 7f 	extsw   r14,r31
    13ec:	e0 ff 81 fb 	std     r28,-32(r1)
    13f0:	f0 ff c1 fb 	std     r30,-16(r1)
    13f4:	00 00 3d 81 	lwz     r9,0(r29)
    13f8:	78 1b 7c 7c 	mr      r28,r3
    13fc:	78 73 de 7d 	mr      r30,r14
    1400:	08 00 81 91 	stw     r12,8(r1)
    1404:	71 fe 21 f8 	stdu    r1,-400(r1)
    1408:	01 00 29 39 	addi    r9,r9,1
    140c:	00 00 3d 91 	stw     r9,0(r29)
    1410:	30 07 9e 40 	bne     cr7,1b40 <Permute.part.0+0x780>
    1414:	08 01 e1 f9 	std     r15,264(r1)
    1418:	10 01 01 fa 	std     r16,272(r1)
    141c:	b4 07 28 7d 	extsw   r8,r9
    1420:	18 01 21 fa 	std     r17,280(r1)
    1424:	20 01 41 fa 	std     r18,288(r1)
    1428:	28 01 61 fa 	std     r19,296(r1)
    142c:	30 01 81 fa 	std     r20,304(r1)
    1430:	38 01 a1 fa 	std     r21,312(r1)
    1434:	40 01 c1 fa 	std     r22,320(r1)
    1438:	48 01 e1 fa 	std     r23,328(r1)
    143c:	50 01 01 fb 	std     r24,336(r1)
    1440:	58 01 21 fb 	std     r25,344(r1)
    1444:	60 01 41 fb 	std     r26,352(r1)
    1448:	68 01 61 fb 	std     r27,360(r1)
    144c:	20 00 8a 7b 	clrldi  r10,r28,32
    1450:	43 00 e2 3f 	addis   r31,r2,67
    1454:	bc 68 ff 3b 	addi    r31,r31,26812
    1458:	64 17 db 79 	rldicr  r27,r14,2,61
    145c:	fc ff 2a 39 	addi    r9,r10,-4
    1460:	fb ff 6a 38 	addi    r3,r10,-5
    1464:	b4 07 29 7d 	extsw   r9,r9
    1468:	01 00 0e 2e 	cmpwi   cr4,r14,1
    146c:	64 17 37 79 	rldicr  r23,r9,2,61
    1470:	f8 ff 8a 3a 	addi    r20,r10,-8
    1474:	68 00 21 f9 	std     r9,104(r1)
    1478:	f9 ff 2a 39 	addi    r9,r10,-7
    147c:	04 00 37 3a 	addi    r17,r23,4
    1480:	14 8a df 7d 	add     r14,r31,r17
    1484:	b4 07 71 7c 	extsw   r17,r3
    1488:	60 00 21 91 	stw     r9,96(r1)
    148c:	f7 ff aa 3a 	addi    r21,r10,-9
    1490:	f6 ff ca 3a 	addi    r22,r10,-10
    1494:	fd ff ea 38 	addi    r7,r10,-3
    1498:	f5 ff 8a 39 	addi    r12,r10,-11
    149c:	04 00 3b 39 	addi    r9,r27,4
    14a0:	fe ff 0a 3b 	addi    r24,r10,-2
    14a4:	b4 07 f3 7c 	extsw   r19,r7
    14a8:	fa ff 4a 3a 	addi    r18,r10,-6
    14ac:	f4 ff 0a 38 	addi    r0,r10,-12
    14b0:	f3 ff 6a 39 	addi    r11,r10,-13
    14b4:	62 00 61 e8 	lwa     r3,96(r1)
    14b8:	f2 ff 8a 38 	addi    r4,r10,-14
    14bc:	f1 ff aa 38 	addi    r5,r10,-15
    14c0:	f0 ff ca 38 	addi    r6,r10,-16
    14c4:	ef ff ea 38 	addi    r7,r10,-17
    14c8:	ee ff 4a 39 	addi    r10,r10,-18
    14cc:	60 00 61 f8 	std     r3,96(r1)
    14d0:	b4 07 83 7e 	extsw   r3,r20
    14d4:	64 17 9c 7b 	rldicr  r28,r28,2,61
    14d8:	b4 07 4a 7d 	extsw   r10,r10
    14dc:	b4 07 18 7f 	extsw   r24,r24
    14e0:	70 00 61 f8 	std     r3,112(r1)
    14e4:	b4 07 a3 7e 	extsw   r3,r21
    14e8:	64 17 1a 7b 	rldicr  r26,r24,2,61
    14ec:	c0 00 41 f9 	std     r10,192(r1)
    14f0:	64 17 79 7a 	rldicr  r25,r19,2,61
    14f4:	b4 07 84 7c 	extsw   r4,r4
    14f8:	78 00 61 f8 	std     r3,120(r1)
    14fc:	b4 07 c3 7e 	extsw   r3,r22
    1500:	14 4a df 7e 	add     r22,r31,r9
    1504:	aa e2 3f 7d 	lwax    r9,r31,r28
    1508:	fc ff d6 3a 	addi    r22,r22,-4
    150c:	b4 07 a5 7c 	extsw   r5,r5
    1510:	a0 00 81 f8 	std     r4,160(r1)
    1514:	02 00 56 e9 	lwa     r10,0(r22)
    1518:	80 00 61 f8 	std     r3,128(r1)
    151c:	b4 07 83 7d 	extsw   r3,r12
    1520:	b4 07 c6 7c 	extsw   r6,r6
    1524:	a8 00 a1 f8 	std     r5,168(r1)
    1528:	88 00 61 f8 	std     r3,136(r1)
    152c:	b4 07 03 7c 	extsw   r3,r0
    1530:	b4 07 e7 7c 	extsw   r7,r7
    1534:	04 00 fa 39 	addi    r15,r26,4
    1538:	04 00 19 3a 	addi    r16,r25,4
    153c:	2e e1 5f 7d 	stwx    r10,r31,r28
    1540:	b0 00 c1 f8 	std     r6,176(r1)
    1544:	90 00 61 f8 	std     r3,144(r1)
    1548:	b4 07 63 7d 	extsw   r3,r11
    154c:	14 7a ff 7d 	add     r15,r31,r15
    1550:	b8 00 e1 f8 	std     r7,184(r1)
    1554:	14 82 1f 7e 	add     r16,r31,r16
    1558:	b4 07 52 7e 	extsw   r18,r18
    155c:	00 00 36 91 	stw     r9,0(r22)
    1560:	98 00 61 f8 	std     r3,152(r1)
    1564:	40 00 92 40 	bne     cr4,15a4 <Permute.part.0+0x1e4>
    1568:	01 00 08 39 	addi    r8,r8,1
    156c:	00 00 1d 91 	stw     r8,0(r29)
    1570:	aa e2 5f 7d 	lwax    r10,r31,r28
    1574:	ff ff de 3b 	addi    r30,r30,-1
    1578:	2e e1 3f 7d 	stwx    r9,r31,r28
    157c:	b5 07 de 7f 	extsw.  r30,r30
    1580:	00 00 56 91 	stw     r10,0(r22)
    1584:	50 05 82 41 	beq     1ad4 <Permute.part.0+0x714>
    1588:	aa e2 3f 7d 	lwax    r9,r31,r28
    158c:	fc ff d6 3a 	addi    r22,r22,-4
    1590:	02 00 1d e9 	lwa     r8,0(r29)
    1594:	02 00 56 e9 	lwa     r10,0(r22)
    1598:	2e e1 5f 7d 	stwx    r10,r31,r28
    159c:	00 00 36 91 	stw     r9,0(r22)
    15a0:	c8 ff 92 41 	beq     cr4,1568 <Permute.part.0+0x1a8>
    15a4:	01 00 98 2d 	cmpwi   cr3,r24,1
    15a8:	02 00 08 39 	addi    r8,r8,2
    15ac:	b4 07 09 7d 	extsw   r9,r8
    15b0:	00 00 1d 91 	stw     r8,0(r29)
    15b4:	2c 06 8e 40 	bne     cr3,1be0 <Permute.part.0+0x820>
    15b8:	aa da 5f 7d 	lwax    r10,r31,r27
    15bc:	78 7b f4 7d 	mr      r20,r15
    15c0:	78 e3 88 7f 	mr      r8,r28
    15c4:	fc ff 94 3a 	addi    r20,r20,-4
    15c8:	02 00 d4 e8 	lwa     r6,0(r20)
    15cc:	78 c3 07 7f 	mr      r7,r24
    15d0:	78 f3 dc 7f 	mr      r28,r30
    15d4:	2e d9 df 7c 	stwx    r6,r31,r27
    15d8:	00 00 54 91 	stw     r10,0(r20)
    15dc:	40 00 8e 40 	bne     cr3,161c <Permute.part.0+0x25c>
    15e0:	01 00 29 39 	addi    r9,r9,1
    15e4:	00 00 3d 91 	stw     r9,0(r29)
    15e8:	aa da 3f 7d 	lwax    r9,r31,r27
    15ec:	ff ff a7 3a 	addi    r21,r7,-1
    15f0:	2e d9 5f 7d 	stwx    r10,r31,r27
    15f4:	b5 07 a7 7e 	extsw.  r7,r21
    15f8:	00 00 34 91 	stw     r9,0(r20)
    15fc:	b4 04 82 41 	beq     1ab0 <Permute.part.0+0x6f0>
    1600:	aa da 5f 7d 	lwax    r10,r31,r27
    1604:	fc ff 94 3a 	addi    r20,r20,-4
    1608:	02 00 3d e9 	lwa     r9,0(r29)
    160c:	02 00 d4 e8 	lwa     r6,0(r20)
    1610:	2e d9 df 7c 	stwx    r6,r31,r27
    1614:	00 00 54 91 	stw     r10,0(r20)
    1618:	c8 ff 8e 41 	beq     cr3,15e0 <Permute.part.0+0x220>
    161c:	01 00 13 2d 	cmpwi   cr2,r19,1
    1620:	02 00 29 39 	addi    r9,r9,2
    1624:	b4 07 2a 7d 	extsw   r10,r9
    1628:	00 00 3d 91 	stw     r9,0(r29)
    162c:	e4 05 8a 40 	bne     cr2,1c10 <Permute.part.0+0x850>
    1630:	aa d2 3f 7d 	lwax    r9,r31,r26
    1634:	78 83 1e 7e 	mr      r30,r16
    1638:	78 9b 66 7e 	mr      r6,r19
    163c:	00 00 88 4f 	mcrf    cr7,cr2
    1640:	fc ff de 3b 	addi    r30,r30,-4
    1644:	02 00 be e8 	lwa     r5,0(r30)
    1648:	2e d1 bf 7c 	stwx    r5,r31,r26
    164c:	00 00 3e 91 	stw     r9,0(r30)
    1650:	40 00 9e 40 	bne     cr7,1690 <Permute.part.0+0x2d0>
    1654:	01 00 4a 39 	addi    r10,r10,1
    1658:	00 00 5d 91 	stw     r10,0(r29)
    165c:	aa d2 5f 7d 	lwax    r10,r31,r26
    1660:	ff ff a6 3a 	addi    r21,r6,-1
    1664:	2e d1 3f 7d 	stwx    r9,r31,r26
    1668:	b5 07 a6 7e 	extsw.  r6,r21
    166c:	00 00 5e 91 	stw     r10,0(r30)
    1670:	20 04 82 41 	beq     1a90 <Permute.part.0+0x6d0>
    1674:	aa d2 3f 7d 	lwax    r9,r31,r26
    1678:	fc ff de 3b 	addi    r30,r30,-4
    167c:	02 00 5d e9 	lwa     r10,0(r29)
    1680:	02 00 be e8 	lwa     r5,0(r30)
    1684:	2e d1 bf 7c 	stwx    r5,r31,r26
    1688:	00 00 3e 91 	stw     r9,0(r30)
    168c:	c8 ff 9e 41 	beq     cr7,1654 <Permute.part.0+0x294>
    1690:	68 00 21 81 	lwz     r9,104(r1)
    1694:	02 00 4a 39 	addi    r10,r10,2
    1698:	00 00 5d 91 	stw     r10,0(r29)
    169c:	01 00 09 2d 	cmpwi   cr2,r9,1
    16a0:	b4 07 49 7d 	extsw   r9,r10
    16a4:	ac 05 8a 40 	bne     cr2,1c50 <Permute.part.0+0x890>
    16a8:	26 10 50 7d 	mfocrf  r10,1
    16ac:	06 e0 4a 55 	rlwinm  r10,r10,28,0,3
    16b0:	68 00 a1 ea 	ld      r21,104(r1)
    16b4:	01 00 91 2e 	cmpwi   cr5,r17,1
    16b8:	aa ca bf 7c 	lwax    r5,r31,r25
    16bc:	78 ab a4 7e 	mr      r4,r21
    16c0:	c8 00 41 91 	stw     r10,200(r1)
    16c4:	78 73 d5 7d 	mr      r21,r14
    16c8:	26 40 50 7d 	mfocrf  r10,4
    16cc:	06 a0 4a 55 	rlwinm  r10,r10,20,0,3
    16d0:	fc ff b5 3a 	addi    r21,r21,-4
    16d4:	d0 00 41 91 	stw     r10,208(r1)
    16d8:	02 00 55 e9 	lwa     r10,0(r21)
    16dc:	2e c9 5f 7d 	stwx    r10,r31,r25
    16e0:	00 00 b5 90 	stw     r5,0(r21)
    16e4:	40 00 8a 40 	bne     cr2,1724 <Permute.part.0+0x364>
    16e8:	01 00 29 39 	addi    r9,r9,1
    16ec:	00 00 3d 91 	stw     r9,0(r29)
    16f0:	aa ca 5f 7d 	lwax    r10,r31,r25
    16f4:	ff ff 24 39 	addi    r9,r4,-1
    16f8:	2e c9 bf 7c 	stwx    r5,r31,r25
    16fc:	b5 07 24 7d 	extsw.  r4,r9
    1700:	00 00 55 91 	stw     r10,0(r21)
    1704:	5c 03 82 41 	beq     1a60 <Permute.part.0+0x6a0>
    1708:	aa ca bf 7c 	lwax    r5,r31,r25
    170c:	fc ff b5 3a 	addi    r21,r21,-4
    1710:	02 00 3d e9 	lwa     r9,0(r29)
    1714:	02 00 55 e9 	lwa     r10,0(r21)
    1718:	2e c9 5f 7d 	stwx    r10,r31,r25
    171c:	00 00 b5 90 	stw     r5,0(r21)
    1720:	c8 ff 8a 41 	beq     cr2,16e8 <Permute.part.0+0x328>
    1724:	02 00 49 39 	addi    r10,r9,2
    1728:	00 00 5d 91 	stw     r10,0(r29)
    172c:	d0 00 41 81 	lwz     r10,208(r1)
    1730:	3e 20 4a 55 	rotlwi  r10,r10,4
    1734:	20 11 50 7d 	mtocrf  1,r10
    1738:	3e e0 4a 55 	rotlwi  r10,r10,28
    173c:	54 04 9e 40 	bne     cr7,1b90 <Permute.part.0+0x7d0>
    1740:	06 00 bf e8 	lwa     r5,4(r31)
    1744:	00 00 12 2f 	cmpwi   cr6,r18,0
    1748:	03 00 69 38 	addi    r3,r9,3
    174c:	aa ba 5f 7d 	lwax    r10,r31,r23
    1750:	00 00 7d 90 	stw     r3,0(r29)
    1754:	2e b9 bf 7c 	stwx    r5,r31,r23
    1758:	04 00 5f 91 	stw     r10,4(r31)
    175c:	aa ba bf 7c 	lwax    r5,r31,r23
    1760:	2e b9 5f 7d 	stwx    r10,r31,r23
    1764:	04 00 bf 90 	stw     r5,4(r31)
    1768:	d8 02 99 40 	ble     cr6,1a40 <Permute.part.0+0x680>
    176c:	60 00 a1 80 	lwz     r5,96(r1)
    1770:	64 17 4a 7a 	rldicr  r10,r18,2,61
    1774:	04 00 69 39 	addi    r11,r9,4
    1778:	aa 52 7f 7c 	lwax    r3,r31,r10
    177c:	00 00 7d 91 	stw     r11,0(r29)
    1780:	00 00 05 2f 	cmpwi   cr6,r5,0
    1784:	aa ba bf 7c 	lwax    r5,r31,r23
    1788:	2e b9 7f 7c 	stwx    r3,r31,r23
    178c:	2e 51 bf 7c 	stwx    r5,r31,r10
    1790:	aa ba 7f 7c 	lwax    r3,r31,r23
    1794:	2e b9 bf 7c 	stwx    r5,r31,r23
    1798:	2e 51 7f 7c 	stwx    r3,r31,r10
    179c:	a4 02 99 40 	ble     cr6,1a40 <Permute.part.0+0x680>
    17a0:	60 00 41 e9 	ld      r10,96(r1)
    17a4:	70 00 a1 80 	lwz     r5,112(r1)
    17a8:	05 00 69 39 	addi    r11,r9,5
    17ac:	00 00 7d 91 	stw     r11,0(r29)
    17b0:	64 17 4a 79 	rldicr  r10,r10,2,61
    17b4:	00 00 05 2f 	cmpwi   cr6,r5,0
    17b8:	aa ba bf 7c 	lwax    r5,r31,r23
    17bc:	aa 52 7f 7c 	lwax    r3,r31,r10
    17c0:	2e b9 7f 7c 	stwx    r3,r31,r23
    17c4:	2e 51 bf 7c 	stwx    r5,r31,r10
    17c8:	aa ba 7f 7c 	lwax    r3,r31,r23
    17cc:	2e b9 bf 7c 	stwx    r5,r31,r23
    17d0:	2e 51 7f 7c 	stwx    r3,r31,r10
    17d4:	6c 02 99 40 	ble     cr6,1a40 <Permute.part.0+0x680>
    17d8:	70 00 41 e9 	ld      r10,112(r1)
    17dc:	78 00 a1 80 	lwz     r5,120(r1)
    17e0:	06 00 69 39 	addi    r11,r9,6
    17e4:	00 00 7d 91 	stw     r11,0(r29)
    17e8:	64 17 4a 79 	rldicr  r10,r10,2,61
    17ec:	00 00 05 2f 	cmpwi   cr6,r5,0
    17f0:	aa ba bf 7c 	lwax    r5,r31,r23
    17f4:	aa 52 7f 7c 	lwax    r3,r31,r10
    17f8:	2e b9 7f 7c 	stwx    r3,r31,r23
    17fc:	2e 51 bf 7c 	stwx    r5,r31,r10
    1800:	aa ba 7f 7c 	lwax    r3,r31,r23
    1804:	2e b9 bf 7c 	stwx    r5,r31,r23
    1808:	2e 51 7f 7c 	stwx    r3,r31,r10
    180c:	34 02 99 40 	ble     cr6,1a40 <Permute.part.0+0x680>
    1810:	78 00 41 e9 	ld      r10,120(r1)
    1814:	80 00 a1 80 	lwz     r5,128(r1)
    1818:	07 00 69 39 	addi    r11,r9,7
    181c:	00 00 7d 91 	stw     r11,0(r29)
    1820:	64 17 4a 79 	rldicr  r10,r10,2,61
    1824:	00 00 05 2f 	cmpwi   cr6,r5,0
    1828:	aa ba bf 7c 	lwax    r5,r31,r23
    182c:	aa 52 7f 7c 	lwax    r3,r31,r10
    1830:	2e b9 7f 7c 	stwx    r3,r31,r23
    1834:	2e 51 bf 7c 	stwx    r5,r31,r10
    1838:	aa ba 7f 7c 	lwax    r3,r31,r23
    183c:	2e b9 bf 7c 	stwx    r5,r31,r23
    1840:	2e 51 7f 7c 	stwx    r3,r31,r10
    1844:	fc 01 99 40 	ble     cr6,1a40 <Permute.part.0+0x680>
    1848:	80 00 41 e9 	ld      r10,128(r1)
    184c:	88 00 a1 80 	lwz     r5,136(r1)
    1850:	08 00 69 39 	addi    r11,r9,8
    1854:	00 00 7d 91 	stw     r11,0(r29)
    1858:	64 17 4a 79 	rldicr  r10,r10,2,61
    185c:	00 00 05 2f 	cmpwi   cr6,r5,0
    1860:	aa ba bf 7c 	lwax    r5,r31,r23
    1864:	aa 52 7f 7c 	lwax    r3,r31,r10
    1868:	2e b9 7f 7c 	stwx    r3,r31,r23
    186c:	2e 51 bf 7c 	stwx    r5,r31,r10
    1870:	aa ba 7f 7c 	lwax    r3,r31,r23
    1874:	2e b9 bf 7c 	stwx    r5,r31,r23
    1878:	2e 51 7f 7c 	stwx    r3,r31,r10
    187c:	c4 01 99 40 	ble     cr6,1a40 <Permute.part.0+0x680>
    1880:	88 00 41 e9 	ld      r10,136(r1)
    1884:	90 00 a1 80 	lwz     r5,144(r1)
    1888:	09 00 69 39 	addi    r11,r9,9
    188c:	00 00 7d 91 	stw     r11,0(r29)
    1890:	64 17 4a 79 	rldicr  r10,r10,2,61
    1894:	00 00 05 2f 	cmpwi   cr6,r5,0
    1898:	aa ba bf 7c 	lwax    r5,r31,r23
    189c:	aa 52 7f 7c 	lwax    r3,r31,r10
    18a0:	2e b9 7f 7c 	stwx    r3,r31,r23
    18a4:	2e 51 bf 7c 	stwx    r5,r31,r10
    18a8:	aa ba 7f 7c 	lwax    r3,r31,r23
    18ac:	2e b9 bf 7c 	stwx    r5,r31,r23
    18b0:	2e 51 7f 7c 	stwx    r3,r31,r10
    18b4:	8c 01 99 40 	ble     cr6,1a40 <Permute.part.0+0x680>
    18b8:	aa ba 7f 7c 	lwax    r3,r31,r23
    18bc:	90 00 41 e9 	ld      r10,144(r1)
    18c0:	98 00 a1 80 	lwz     r5,152(r1)
    18c4:	0a 00 69 39 	addi    r11,r9,10
    18c8:	00 00 7d 91 	stw     r11,0(r29)
    18cc:	64 17 4a 79 	rldicr  r10,r10,2,61
    18d0:	00 00 05 2f 	cmpwi   cr6,r5,0
    18d4:	aa 52 bf 7c 	lwax    r5,r31,r10
    18d8:	2e b9 bf 7c 	stwx    r5,r31,r23
    18dc:	2e 51 7f 7c 	stwx    r3,r31,r10
    18e0:	aa ba bf 7c 	lwax    r5,r31,r23
    18e4:	2e b9 7f 7c 	stwx    r3,r31,r23
    18e8:	2e 51 bf 7c 	stwx    r5,r31,r10
    18ec:	54 01 99 40 	ble     cr6,1a40 <Permute.part.0+0x680>
    18f0:	aa ba 7f 7c 	lwax    r3,r31,r23
    18f4:	98 00 41 e9 	ld      r10,152(r1)
    18f8:	a0 00 a1 80 	lwz     r5,160(r1)
    18fc:	0b 00 69 39 	addi    r11,r9,11
    1900:	00 00 7d 91 	stw     r11,0(r29)
    1904:	64 17 4a 79 	rldicr  r10,r10,2,61
    1908:	00 00 05 2f 	cmpwi   cr6,r5,0
    190c:	aa 52 bf 7c 	lwax    r5,r31,r10
    1910:	2e b9 bf 7c 	stwx    r5,r31,r23
    1914:	2e 51 7f 7c 	stwx    r3,r31,r10
    1918:	aa ba bf 7c 	lwax    r5,r31,r23
    191c:	2e b9 7f 7c 	stwx    r3,r31,r23
    1920:	2e 51 bf 7c 	stwx    r5,r31,r10
    1924:	1c 01 99 40 	ble     cr6,1a40 <Permute.part.0+0x680>
    1928:	a0 00 41 e9 	ld      r10,160(r1)
    192c:	a8 00 a1 80 	lwz     r5,168(r1)
    1930:	0c 00 69 39 	addi    r11,r9,12
    1934:	00 00 7d 91 	stw     r11,0(r29)
    1938:	64 17 4a 79 	rldicr  r10,r10,2,61
    193c:	00 00 05 2f 	cmpwi   cr6,r5,0
    1940:	aa ba bf 7c 	lwax    r5,r31,r23
    1944:	aa 52 7f 7c 	lwax    r3,r31,r10
    1948:	2e b9 7f 7c 	stwx    r3,r31,r23
    194c:	2e 51 bf 7c 	stwx    r5,r31,r10
    1950:	aa ba 7f 7c 	lwax    r3,r31,r23
    1954:	2e b9 bf 7c 	stwx    r5,r31,r23
    1958:	2e 51 7f 7c 	stwx    r3,r31,r10
    195c:	e4 00 99 40 	ble     cr6,1a40 <Permute.part.0+0x680>
    1960:	a8 00 41 e9 	ld      r10,168(r1)
    1964:	b0 00 a1 80 	lwz     r5,176(r1)
    1968:	0d 00 69 39 	addi    r11,r9,13
    196c:	00 00 7d 91 	stw     r11,0(r29)
    1970:	64 17 4a 79 	rldicr  r10,r10,2,61
    1974:	00 00 05 2f 	cmpwi   cr6,r5,0
    1978:	aa ba bf 7c 	lwax    r5,r31,r23
    197c:	aa 52 7f 7c 	lwax    r3,r31,r10
    1980:	2e b9 7f 7c 	stwx    r3,r31,r23
    1984:	2e 51 bf 7c 	stwx    r5,r31,r10
    1988:	aa ba 7f 7c 	lwax    r3,r31,r23
    198c:	2e b9 bf 7c 	stwx    r5,r31,r23
    1990:	2e 51 7f 7c 	stwx    r3,r31,r10
    1994:	ac 00 99 40 	ble     cr6,1a40 <Permute.part.0+0x680>
    1998:	b0 00 41 e9 	ld      r10,176(r1)
    199c:	b8 00 a1 80 	lwz     r5,184(r1)
    19a0:	0e 00 69 39 	addi    r11,r9,14
    19a4:	00 00 7d 91 	stw     r11,0(r29)
    19a8:	64 17 4a 79 	rldicr  r10,r10,2,61
    19ac:	00 00 05 2f 	cmpwi   cr6,r5,0
    19b0:	aa ba bf 7c 	lwax    r5,r31,r23
    19b4:	aa 52 7f 7c 	lwax    r3,r31,r10
    19b8:	2e b9 7f 7c 	stwx    r3,r31,r23
    19bc:	2e 51 bf 7c 	stwx    r5,r31,r10
    19c0:	aa ba 7f 7c 	lwax    r3,r31,r23
    19c4:	2e b9 bf 7c 	stwx    r5,r31,r23
    19c8:	2e 51 7f 7c 	stwx    r3,r31,r10
    19cc:	74 00 99 40 	ble     cr6,1a40 <Permute.part.0+0x680>
    19d0:	b8 00 41 e9 	ld      r10,184(r1)
    19d4:	c0 00 a1 80 	lwz     r5,192(r1)
    19d8:	0f 00 69 39 	addi    r11,r9,15
    19dc:	00 00 7d 91 	stw     r11,0(r29)
    19e0:	64 17 4a 79 	rldicr  r10,r10,2,61
    19e4:	00 00 05 2f 	cmpwi   cr6,r5,0
    19e8:	aa ba bf 7c 	lwax    r5,r31,r23
    19ec:	aa 52 7f 7c 	lwax    r3,r31,r10
    19f0:	2e b9 7f 7c 	stwx    r3,r31,r23
    19f4:	2e 51 bf 7c 	stwx    r5,r31,r10
    19f8:	aa ba 7f 7c 	lwax    r3,r31,r23
    19fc:	2e b9 bf 7c 	stwx    r5,r31,r23
    1a00:	2e 51 7f 7c 	stwx    r3,r31,r10
    1a04:	3c 00 99 40 	ble     cr6,1a40 <Permute.part.0+0x680>
    1a08:	aa ba 7f 7c 	lwax    r3,r31,r23
    1a0c:	c0 00 41 e9 	ld      r10,192(r1)
    1a10:	10 00 29 39 	addi    r9,r9,16
    1a14:	00 00 3d 91 	stw     r9,0(r29)
    1a18:	64 17 4a 79 	rldicr  r10,r10,2,61
    1a1c:	aa 52 bf 7c 	lwax    r5,r31,r10
    1a20:	2e b9 bf 7c 	stwx    r5,r31,r23
    1a24:	2e 51 7f 7c 	stwx    r3,r31,r10
    1a28:	aa ba 3f 7d 	lwax    r9,r31,r23
    1a2c:	2e b9 7f 7c 	stwx    r3,r31,r23
    1a30:	2e 51 3f 7d 	stwx    r9,r31,r10
    1a34:	00 00 00 60 	nop
    1a38:	00 00 00 60 	nop
    1a3c:	00 00 42 60 	ori     r2,r2,0
    1a40:	02 00 b5 e8 	lwa     r5,0(r21)
    1a44:	ff ff 24 39 	addi    r9,r4,-1
    1a48:	aa ca 5f 7d 	lwax    r10,r31,r25
    1a4c:	b5 07 24 7d 	extsw.  r4,r9
    1a50:	2e c9 bf 7c 	stwx    r5,r31,r25
    1a54:	00 00 55 91 	stw     r10,0(r21)
    1a58:	b0 fc 82 40 	bne     1708 <Permute.part.0+0x348>
    1a5c:	00 00 42 60 	ori     r2,r2,0
    1a60:	aa d2 5f 7d 	lwax    r10,r31,r26
    1a64:	ff ff a6 3a 	addi    r21,r6,-1
    1a68:	c8 00 21 81 	lwz     r9,200(r1)
    1a6c:	b5 07 a6 7e 	extsw.  r6,r21
    1a70:	3e 20 29 55 	rotlwi  r9,r9,4
    1a74:	20 11 30 7d 	mtocrf  1,r9
    1a78:	3e e0 29 55 	rotlwi  r9,r9,28
    1a7c:	02 00 3e e9 	lwa     r9,0(r30)
    1a80:	2e d1 3f 7d 	stwx    r9,r31,r26
    1a84:	00 00 5e 91 	stw     r10,0(r30)
    1a88:	ec fb 82 40 	bne     1674 <Permute.part.0+0x2b4>
    1a8c:	00 00 42 60 	ori     r2,r2,0
    1a90:	02 00 54 e9 	lwa     r10,0(r20)
    1a94:	ff ff a7 3a 	addi    r21,r7,-1
    1a98:	aa da 3f 7d 	lwax    r9,r31,r27
    1a9c:	b5 07 a7 7e 	extsw.  r7,r21
    1aa0:	2e d9 5f 7d 	stwx    r10,r31,r27
    1aa4:	00 00 34 91 	stw     r9,0(r20)
    1aa8:	58 fb 82 40 	bne     1600 <Permute.part.0+0x240>
    1aac:	00 00 42 60 	ori     r2,r2,0
    1ab0:	02 00 36 e9 	lwa     r9,0(r22)
    1ab4:	78 e3 9e 7f 	mr      r30,r28
    1ab8:	78 43 1c 7d 	mr      r28,r8
    1abc:	ff ff de 3b 	addi    r30,r30,-1
    1ac0:	aa e2 5f 7d 	lwax    r10,r31,r28
    1ac4:	b5 07 de 7f 	extsw.  r30,r30
    1ac8:	2e e1 3f 7d 	stwx    r9,r31,r28
    1acc:	00 00 56 91 	stw     r10,0(r22)
    1ad0:	b8 fa 82 40 	bne     1588 <Permute.part.0+0x1c8>
    1ad4:	08 01 e1 e9 	ld      r15,264(r1)
    1ad8:	10 01 01 ea 	ld      r16,272(r1)
    1adc:	18 01 21 ea 	ld      r17,280(r1)
    1ae0:	20 01 41 ea 	ld      r18,288(r1)
    1ae4:	28 01 61 ea 	ld      r19,296(r1)
    1ae8:	30 01 81 ea 	ld      r20,304(r1)
    1aec:	38 01 a1 ea 	ld      r21,312(r1)
    1af0:	40 01 c1 ea 	ld      r22,320(r1)
    1af4:	48 01 e1 ea 	ld      r23,328(r1)
    1af8:	50 01 01 eb 	ld      r24,336(r1)
    1afc:	58 01 21 eb 	ld      r25,344(r1)
    1b00:	60 01 41 eb 	ld      r26,352(r1)
    1b04:	68 01 61 eb 	ld      r27,360(r1)
    1b08:	90 01 21 38 	addi    r1,r1,400
    1b0c:	08 00 81 81 	lwz     r12,8(r1)
    1b10:	70 ff c1 e9 	ld      r14,-144(r1)
    1b14:	e0 ff 81 eb 	ld      r28,-32(r1)
    1b18:	e8 ff a1 eb 	ld      r29,-24(r1)
    1b1c:	f0 ff c1 eb 	ld      r30,-16(r1)
    1b20:	f8 ff e1 eb 	ld      r31,-8(r1)
    1b24:	20 01 92 7d 	mtocrf  32,r12
    1b28:	20 01 91 7d 	mtocrf  16,r12
    1b2c:	20 81 90 7d 	mtocrf  8,r12
    1b30:	20 00 80 4e 	blr
    1b34:	00 00 00 60 	nop
    1b38:	00 00 00 60 	nop
    1b3c:	00 00 42 60 	ori     r2,r2,0
    1b40:	a6 02 08 7c 	mflr    r0
    1b44:	78 73 c3 7d 	mr      r3,r14
    1b48:	a0 01 01 f8 	std     r0,416(r1)
    1b4c:	7d f8 ff 4b 	bl      13c8 <Permute.part.0+0x8>
    1b50:	00 00 9f 2f 	cmpwi   cr7,r31,0
    1b54:	74 07 9d 41 	bgt     cr7,22c8 <Permute.part.0+0xf08>
    1b58:	a0 01 01 e8 	ld      r0,416(r1)
    1b5c:	90 01 21 38 	addi    r1,r1,400
    1b60:	08 00 81 81 	lwz     r12,8(r1)
    1b64:	70 ff c1 e9 	ld      r14,-144(r1)
    1b68:	e0 ff 81 eb 	ld      r28,-32(r1)
    1b6c:	e8 ff a1 eb 	ld      r29,-24(r1)
    1b70:	a6 03 08 7c 	mtlr    r0
    1b74:	f0 ff c1 eb 	ld      r30,-16(r1)
    1b78:	f8 ff e1 eb 	ld      r31,-8(r1)
    1b7c:	20 01 92 7d 	mtocrf  32,r12
    1b80:	20 01 91 7d 	mtocrf  16,r12
    1b84:	20 81 90 7d 	mtocrf  8,r12
    1b88:	20 00 80 4e 	blr
    1b8c:	00 00 42 60 	ori     r2,r2,0
    1b90:	a6 02 08 7c 	mflr    r0
    1b94:	78 8b 23 7e 	mr      r3,r17
    1b98:	f0 00 01 f9 	std     r8,240(r1)
    1b9c:	e8 00 81 f8 	std     r4,232(r1)
    1ba0:	e0 00 c1 f8 	std     r6,224(r1)
    1ba4:	d8 00 e1 f8 	std     r7,216(r1)
    1ba8:	a0 01 01 f8 	std     r0,416(r1)
    1bac:	1d f8 ff 4b 	bl      13c8 <Permute.part.0+0x8>
    1bb0:	00 00 11 2f 	cmpwi   cr6,r17,0
    1bb4:	d8 00 e1 e8 	ld      r7,216(r1)
    1bb8:	e0 00 c1 e8 	ld      r6,224(r1)
    1bbc:	e8 00 81 e8 	ld      r4,232(r1)
    1bc0:	f0 00 01 e9 	ld      r8,240(r1)
    1bc4:	ec 00 99 41 	bgt     cr6,1cb0 <Permute.part.0+0x8f0>
    1bc8:	02 00 b5 e8 	lwa     r5,0(r21)
    1bcc:	a0 01 01 e8 	ld      r0,416(r1)
    1bd0:	a6 03 08 7c 	mtlr    r0
    1bd4:	1c fb ff 4b 	b       16f0 <Permute.part.0+0x330>
    1bd8:	00 00 00 60 	nop
    1bdc:	00 00 42 60 	ori     r2,r2,0
    1be0:	a6 02 08 7c 	mflr    r0
    1be4:	78 c3 03 7f 	mr      r3,r24
    1be8:	a0 01 01 f8 	std     r0,416(r1)
    1bec:	dd f7 ff 4b 	bl      13c8 <Permute.part.0+0x8>
    1bf0:	00 00 98 2f 	cmpwi   cr7,r24,0
    1bf4:	18 07 9d 41 	bgt     cr7,230c <Permute.part.0+0xf4c>
    1bf8:	02 00 36 e9 	lwa     r9,0(r22)
    1bfc:	a0 01 01 e8 	ld      r0,416(r1)
    1c00:	a6 03 08 7c 	mtlr    r0
    1c04:	6c f9 ff 4b 	b       1570 <Permute.part.0+0x1b0>
    1c08:	00 00 00 60 	nop
    1c0c:	00 00 42 60 	ori     r2,r2,0
    1c10:	a6 02 08 7c 	mflr    r0
    1c14:	78 9b 63 7e 	mr      r3,r19
    1c18:	d0 00 01 f9 	std     r8,208(r1)
    1c1c:	c8 00 e1 f8 	std     r7,200(r1)
    1c20:	a0 01 01 f8 	std     r0,416(r1)
    1c24:	a5 f7 ff 4b 	bl      13c8 <Permute.part.0+0x8>
    1c28:	00 00 93 2f 	cmpwi   cr7,r19,0
    1c2c:	c8 00 e1 e8 	ld      r7,200(r1)
    1c30:	d0 00 01 e9 	ld      r8,208(r1)
    1c34:	f8 06 9d 41 	bgt     cr7,232c <Permute.part.0+0xf6c>
    1c38:	02 00 54 e9 	lwa     r10,0(r20)
    1c3c:	a0 01 01 e8 	ld      r0,416(r1)
    1c40:	a6 03 08 7c 	mtlr    r0
    1c44:	a4 f9 ff 4b 	b       15e8 <Permute.part.0+0x228>
    1c48:	00 00 00 60 	nop
    1c4c:	00 00 42 60 	ori     r2,r2,0
    1c50:	26 10 30 7d 	mfocrf  r9,1
    1c54:	06 e0 29 55 	rlwinm  r9,r9,28,0,3
    1c58:	68 00 a1 ea 	ld      r21,104(r1)
    1c5c:	d8 00 01 f9 	std     r8,216(r1)
    1c60:	a6 02 08 7c 	mflr    r0
    1c64:	d0 00 c1 f8 	std     r6,208(r1)
    1c68:	c8 00 e1 f8 	std     r7,200(r1)
    1c6c:	78 ab a3 7e 	mr      r3,r21
    1c70:	e0 00 21 91 	stw     r9,224(r1)
    1c74:	a0 01 01 f8 	std     r0,416(r1)
    1c78:	51 f7 ff 4b 	bl      13c8 <Permute.part.0+0x8>
    1c7c:	00 00 95 2e 	cmpwi   cr5,r21,0
    1c80:	e0 00 21 81 	lwz     r9,224(r1)
    1c84:	c8 00 e1 e8 	ld      r7,200(r1)
    1c88:	d0 00 c1 e8 	ld      r6,208(r1)
    1c8c:	d8 00 01 e9 	ld      r8,216(r1)
    1c90:	3e 20 29 55 	rotlwi  r9,r9,4
    1c94:	20 11 30 7d 	mtocrf  1,r9
    1c98:	3e e0 29 55 	rotlwi  r9,r9,28
    1c9c:	80 06 95 41 	bgt     cr5,231c <Permute.part.0+0xf5c>
    1ca0:	02 00 3e e9 	lwa     r9,0(r30)
    1ca4:	a0 01 01 e8 	ld      r0,416(r1)
    1ca8:	a6 03 08 7c 	mtlr    r0
    1cac:	b0 f9 ff 4b 	b       165c <Permute.part.0+0x29c>
    1cb0:	aa ba bf 7c 	lwax    r5,r31,r23
    1cb4:	64 17 29 7a 	rldicr  r9,r17,2,61
    1cb8:	00 00 5d 81 	lwz     r10,0(r29)
    1cbc:	78 8b 23 7e 	mr      r3,r17
    1cc0:	f8 00 01 f9 	std     r8,248(r1)
    1cc4:	f0 00 81 f8 	std     r4,240(r1)
    1cc8:	e8 00 c1 f8 	std     r6,232(r1)
    1ccc:	aa 4a 7f 7d 	lwax    r11,r31,r9
    1cd0:	e0 00 e1 f8 	std     r7,224(r1)
    1cd4:	01 00 4a 39 	addi    r10,r10,1
    1cd8:	d8 00 21 f9 	std     r9,216(r1)
    1cdc:	2e b9 7f 7d 	stwx    r11,r31,r23
    1ce0:	00 00 5d 91 	stw     r10,0(r29)
    1ce4:	2e 49 bf 7c 	stwx    r5,r31,r9
    1ce8:	e1 f6 ff 4b 	bl      13c8 <Permute.part.0+0x8>
    1cec:	aa ba 5f 7d 	lwax    r10,r31,r23
    1cf0:	d8 00 21 e9 	ld      r9,216(r1)
    1cf4:	00 00 12 2f 	cmpwi   cr6,r18,0
    1cf8:	e0 00 e1 e8 	ld      r7,224(r1)
    1cfc:	e8 00 c1 e8 	ld      r6,232(r1)
    1d00:	f0 00 81 e8 	ld      r4,240(r1)
    1d04:	f8 00 01 e9 	ld      r8,248(r1)
    1d08:	aa 4a bf 7c 	lwax    r5,r31,r9
    1d0c:	2e b9 bf 7c 	stwx    r5,r31,r23
    1d10:	2e 49 5f 7d 	stwx    r10,r31,r9
    1d14:	b4 fe 99 40 	ble     cr6,1bc8 <Permute.part.0+0x808>
    1d18:	aa ba bf 7c 	lwax    r5,r31,r23
    1d1c:	64 17 49 7a 	rldicr  r9,r18,2,61
    1d20:	00 00 5d 81 	lwz     r10,0(r29)
    1d24:	78 8b 23 7e 	mr      r3,r17
    1d28:	f8 00 01 f9 	std     r8,248(r1)
    1d2c:	f0 00 81 f8 	std     r4,240(r1)
    1d30:	e8 00 c1 f8 	std     r6,232(r1)
    1d34:	aa 4a 7f 7d 	lwax    r11,r31,r9
    1d38:	e0 00 e1 f8 	std     r7,224(r1)
    1d3c:	01 00 4a 39 	addi    r10,r10,1
    1d40:	d8 00 21 f9 	std     r9,216(r1)
    1d44:	2e b9 7f 7d 	stwx    r11,r31,r23
    1d48:	00 00 5d 91 	stw     r10,0(r29)
    1d4c:	2e 49 bf 7c 	stwx    r5,r31,r9
    1d50:	79 f6 ff 4b 	bl      13c8 <Permute.part.0+0x8>
    1d54:	aa ba 5f 7d 	lwax    r10,r31,r23
    1d58:	60 00 21 81 	lwz     r9,96(r1)
    1d5c:	e0 00 e1 e8 	ld      r7,224(r1)
    1d60:	e8 00 c1 e8 	ld      r6,232(r1)
    1d64:	f0 00 81 e8 	ld      r4,240(r1)
    1d68:	f8 00 01 e9 	ld      r8,248(r1)
    1d6c:	00 00 09 2f 	cmpwi   cr6,r9,0
    1d70:	d8 00 21 e9 	ld      r9,216(r1)
    1d74:	aa 4a bf 7c 	lwax    r5,r31,r9
    1d78:	2e b9 bf 7c 	stwx    r5,r31,r23
    1d7c:	2e 49 5f 7d 	stwx    r10,r31,r9
    1d80:	48 fe 99 40 	ble     cr6,1bc8 <Permute.part.0+0x808>
    1d84:	aa ba bf 7c 	lwax    r5,r31,r23
    1d88:	60 00 21 e9 	ld      r9,96(r1)
    1d8c:	00 00 5d 81 	lwz     r10,0(r29)
    1d90:	78 8b 23 7e 	mr      r3,r17
    1d94:	f8 00 01 f9 	std     r8,248(r1)
    1d98:	f0 00 81 f8 	std     r4,240(r1)
    1d9c:	e8 00 c1 f8 	std     r6,232(r1)
    1da0:	e0 00 e1 f8 	std     r7,224(r1)
    1da4:	64 17 29 79 	rldicr  r9,r9,2,61
    1da8:	01 00 4a 39 	addi    r10,r10,1
    1dac:	aa 4a 7f 7d 	lwax    r11,r31,r9
    1db0:	00 00 5d 91 	stw     r10,0(r29)
    1db4:	d8 00 21 f9 	std     r9,216(r1)
    1db8:	2e b9 7f 7d 	stwx    r11,r31,r23
    1dbc:	2e 49 bf 7c 	stwx    r5,r31,r9
    1dc0:	09 f6 ff 4b 	bl      13c8 <Permute.part.0+0x8>
    1dc4:	aa ba 5f 7d 	lwax    r10,r31,r23
    1dc8:	70 00 21 81 	lwz     r9,112(r1)
    1dcc:	e0 00 e1 e8 	ld      r7,224(r1)
    1dd0:	e8 00 c1 e8 	ld      r6,232(r1)
    1dd4:	f0 00 81 e8 	ld      r4,240(r1)
    1dd8:	f8 00 01 e9 	ld      r8,248(r1)
    1ddc:	00 00 09 2f 	cmpwi   cr6,r9,0
    1de0:	d8 00 21 e9 	ld      r9,216(r1)
    1de4:	aa 4a bf 7c 	lwax    r5,r31,r9
    1de8:	2e b9 bf 7c 	stwx    r5,r31,r23
    1dec:	2e 49 5f 7d 	stwx    r10,r31,r9
    1df0:	d8 fd 99 40 	ble     cr6,1bc8 <Permute.part.0+0x808>
    1df4:	aa ba bf 7c 	lwax    r5,r31,r23
    1df8:	70 00 21 e9 	ld      r9,112(r1)
    1dfc:	00 00 5d 81 	lwz     r10,0(r29)
    1e00:	78 8b 23 7e 	mr      r3,r17
    1e04:	f8 00 01 f9 	std     r8,248(r1)
    1e08:	f0 00 81 f8 	std     r4,240(r1)
    1e0c:	e8 00 c1 f8 	std     r6,232(r1)
    1e10:	e0 00 e1 f8 	std     r7,224(r1)
    1e14:	64 17 29 79 	rldicr  r9,r9,2,61
    1e18:	01 00 4a 39 	addi    r10,r10,1
    1e1c:	aa 4a 7f 7d 	lwax    r11,r31,r9
    1e20:	00 00 5d 91 	stw     r10,0(r29)
    1e24:	d8 00 21 f9 	std     r9,216(r1)
    1e28:	2e b9 7f 7d 	stwx    r11,r31,r23
    1e2c:	2e 49 bf 7c 	stwx    r5,r31,r9
    1e30:	99 f5 ff 4b 	bl      13c8 <Permute.part.0+0x8>
    1e34:	aa ba 5f 7d 	lwax    r10,r31,r23
    1e38:	78 00 21 81 	lwz     r9,120(r1)
    1e3c:	e0 00 e1 e8 	ld      r7,224(r1)
    1e40:	e8 00 c1 e8 	ld      r6,232(r1)
    1e44:	f0 00 81 e8 	ld      r4,240(r1)
    1e48:	f8 00 01 e9 	ld      r8,248(r1)
    1e4c:	00 00 09 2f 	cmpwi   cr6,r9,0
    1e50:	d8 00 21 e9 	ld      r9,216(r1)
    1e54:	aa 4a bf 7c 	lwax    r5,r31,r9
    1e58:	2e b9 bf 7c 	stwx    r5,r31,r23
    1e5c:	2e 49 5f 7d 	stwx    r10,r31,r9
    1e60:	68 fd 99 40 	ble     cr6,1bc8 <Permute.part.0+0x808>
    1e64:	aa ba bf 7c 	lwax    r5,r31,r23
    1e68:	78 00 21 e9 	ld      r9,120(r1)
    1e6c:	00 00 5d 81 	lwz     r10,0(r29)
    1e70:	78 8b 23 7e 	mr      r3,r17
    1e74:	f8 00 01 f9 	std     r8,248(r1)
    1e78:	f0 00 81 f8 	std     r4,240(r1)
    1e7c:	e8 00 c1 f8 	std     r6,232(r1)
    1e80:	e0 00 e1 f8 	std     r7,224(r1)
    1e84:	64 17 29 79 	rldicr  r9,r9,2,61
    1e88:	01 00 4a 39 	addi    r10,r10,1
    1e8c:	aa 4a 7f 7d 	lwax    r11,r31,r9
    1e90:	00 00 5d 91 	stw     r10,0(r29)
    1e94:	d8 00 21 f9 	std     r9,216(r1)
    1e98:	2e b9 7f 7d 	stwx    r11,r31,r23
    1e9c:	2e 49 bf 7c 	stwx    r5,r31,r9
    1ea0:	29 f5 ff 4b 	bl      13c8 <Permute.part.0+0x8>
    1ea4:	aa ba 5f 7d 	lwax    r10,r31,r23
    1ea8:	80 00 21 81 	lwz     r9,128(r1)
    1eac:	e0 00 e1 e8 	ld      r7,224(r1)
    1eb0:	e8 00 c1 e8 	ld      r6,232(r1)
    1eb4:	f0 00 81 e8 	ld      r4,240(r1)
    1eb8:	f8 00 01 e9 	ld      r8,248(r1)
    1ebc:	00 00 09 2f 	cmpwi   cr6,r9,0
    1ec0:	d8 00 21 e9 	ld      r9,216(r1)
    1ec4:	aa 4a bf 7c 	lwax    r5,r31,r9
    1ec8:	2e b9 bf 7c 	stwx    r5,r31,r23
    1ecc:	2e 49 5f 7d 	stwx    r10,r31,r9
    1ed0:	f8 fc 99 40 	ble     cr6,1bc8 <Permute.part.0+0x808>
    1ed4:	aa ba bf 7c 	lwax    r5,r31,r23
    1ed8:	80 00 21 e9 	ld      r9,128(r1)
    1edc:	00 00 5d 81 	lwz     r10,0(r29)
    1ee0:	78 8b 23 7e 	mr      r3,r17
    1ee4:	f8 00 01 f9 	std     r8,248(r1)
    1ee8:	f0 00 81 f8 	std     r4,240(r1)
    1eec:	e8 00 c1 f8 	std     r6,232(r1)
    1ef0:	e0 00 e1 f8 	std     r7,224(r1)
    1ef4:	64 17 29 79 	rldicr  r9,r9,2,61
    1ef8:	01 00 4a 39 	addi    r10,r10,1
    1efc:	aa 4a 7f 7d 	lwax    r11,r31,r9
    1f00:	00 00 5d 91 	stw     r10,0(r29)
    1f04:	d8 00 21 f9 	std     r9,216(r1)
    1f08:	2e b9 7f 7d 	stwx    r11,r31,r23
    1f0c:	2e 49 bf 7c 	stwx    r5,r31,r9
    1f10:	b9 f4 ff 4b 	bl      13c8 <Permute.part.0+0x8>
    1f14:	aa ba 5f 7d 	lwax    r10,r31,r23
    1f18:	88 00 21 81 	lwz     r9,136(r1)
    1f1c:	e0 00 e1 e8 	ld      r7,224(r1)
    1f20:	e8 00 c1 e8 	ld      r6,232(r1)
    1f24:	f0 00 81 e8 	ld      r4,240(r1)
    1f28:	f8 00 01 e9 	ld      r8,248(r1)
    1f2c:	00 00 09 2f 	cmpwi   cr6,r9,0
    1f30:	d8 00 21 e9 	ld      r9,216(r1)
    1f34:	aa 4a bf 7c 	lwax    r5,r31,r9
    1f38:	2e b9 bf 7c 	stwx    r5,r31,r23
    1f3c:	2e 49 5f 7d 	stwx    r10,r31,r9
    1f40:	88 fc 99 40 	ble     cr6,1bc8 <Permute.part.0+0x808>
    1f44:	aa ba bf 7c 	lwax    r5,r31,r23
    1f48:	88 00 21 e9 	ld      r9,136(r1)
    1f4c:	00 00 5d 81 	lwz     r10,0(r29)
    1f50:	78 8b 23 7e 	mr      r3,r17
    1f54:	f8 00 01 f9 	std     r8,248(r1)
    1f58:	f0 00 81 f8 	std     r4,240(r1)
    1f5c:	e8 00 c1 f8 	std     r6,232(r1)
    1f60:	e0 00 e1 f8 	std     r7,224(r1)
    1f64:	64 17 29 79 	rldicr  r9,r9,2,61
    1f68:	01 00 4a 39 	addi    r10,r10,1
    1f6c:	aa 4a 7f 7d 	lwax    r11,r31,r9
    1f70:	00 00 5d 91 	stw     r10,0(r29)
    1f74:	d8 00 21 f9 	std     r9,216(r1)
    1f78:	2e b9 7f 7d 	stwx    r11,r31,r23
    1f7c:	2e 49 bf 7c 	stwx    r5,r31,r9
    1f80:	49 f4 ff 4b 	bl      13c8 <Permute.part.0+0x8>
    1f84:	aa ba 5f 7d 	lwax    r10,r31,r23
    1f88:	90 00 21 81 	lwz     r9,144(r1)
    1f8c:	e0 00 e1 e8 	ld      r7,224(r1)
    1f90:	e8 00 c1 e8 	ld      r6,232(r1)
    1f94:	f0 00 81 e8 	ld      r4,240(r1)
    1f98:	f8 00 01 e9 	ld      r8,248(r1)
    1f9c:	00 00 09 2f 	cmpwi   cr6,r9,0
    1fa0:	d8 00 21 e9 	ld      r9,216(r1)
    1fa4:	aa 4a bf 7c 	lwax    r5,r31,r9
    1fa8:	2e b9 bf 7c 	stwx    r5,r31,r23
    1fac:	2e 49 5f 7d 	stwx    r10,r31,r9
    1fb0:	18 fc 99 40 	ble     cr6,1bc8 <Permute.part.0+0x808>
    1fb4:	aa ba bf 7c 	lwax    r5,r31,r23
    1fb8:	90 00 21 e9 	ld      r9,144(r1)
    1fbc:	00 00 5d 81 	lwz     r10,0(r29)
    1fc0:	78 8b 23 7e 	mr      r3,r17
    1fc4:	f8 00 01 f9 	std     r8,248(r1)
    1fc8:	f0 00 81 f8 	std     r4,240(r1)
    1fcc:	e8 00 c1 f8 	std     r6,232(r1)
    1fd0:	e0 00 e1 f8 	std     r7,224(r1)
    1fd4:	64 17 29 79 	rldicr  r9,r9,2,61
    1fd8:	01 00 4a 39 	addi    r10,r10,1
    1fdc:	aa 4a 7f 7d 	lwax    r11,r31,r9
    1fe0:	00 00 5d 91 	stw     r10,0(r29)
    1fe4:	d8 00 21 f9 	std     r9,216(r1)
    1fe8:	2e b9 7f 7d 	stwx    r11,r31,r23
    1fec:	2e 49 bf 7c 	stwx    r5,r31,r9
    1ff0:	d9 f3 ff 4b 	bl      13c8 <Permute.part.0+0x8>
    1ff4:	aa ba 5f 7d 	lwax    r10,r31,r23
    1ff8:	98 00 21 81 	lwz     r9,152(r1)
    1ffc:	e0 00 e1 e8 	ld      r7,224(r1)
    2000:	e8 00 c1 e8 	ld      r6,232(r1)
    2004:	f0 00 81 e8 	ld      r4,240(r1)
    2008:	f8 00 01 e9 	ld      r8,248(r1)
    200c:	00 00 09 2f 	cmpwi   cr6,r9,0
    2010:	d8 00 21 e9 	ld      r9,216(r1)
    2014:	aa 4a bf 7c 	lwax    r5,r31,r9
    2018:	2e b9 bf 7c 	stwx    r5,r31,r23
    201c:	2e 49 5f 7d 	stwx    r10,r31,r9
    2020:	a8 fb 99 40 	ble     cr6,1bc8 <Permute.part.0+0x808>
    2024:	aa ba bf 7c 	lwax    r5,r31,r23
    2028:	98 00 21 e9 	ld      r9,152(r1)
    202c:	00 00 5d 81 	lwz     r10,0(r29)
    2030:	78 8b 23 7e 	mr      r3,r17
    2034:	f8 00 01 f9 	std     r8,248(r1)
    2038:	f0 00 81 f8 	std     r4,240(r1)
    203c:	e8 00 c1 f8 	std     r6,232(r1)
    2040:	e0 00 e1 f8 	std     r7,224(r1)
    2044:	64 17 29 79 	rldicr  r9,r9,2,61
    2048:	01 00 4a 39 	addi    r10,r10,1
    204c:	aa 4a 7f 7d 	lwax    r11,r31,r9
    2050:	00 00 5d 91 	stw     r10,0(r29)
    2054:	d8 00 21 f9 	std     r9,216(r1)
    2058:	2e b9 7f 7d 	stwx    r11,r31,r23
    205c:	2e 49 bf 7c 	stwx    r5,r31,r9
    2060:	69 f3 ff 4b 	bl      13c8 <Permute.part.0+0x8>
    2064:	aa ba 5f 7d 	lwax    r10,r31,r23
    2068:	a0 00 21 81 	lwz     r9,160(r1)
    206c:	e0 00 e1 e8 	ld      r7,224(r1)
    2070:	e8 00 c1 e8 	ld      r6,232(r1)
    2074:	f0 00 81 e8 	ld      r4,240(r1)
    2078:	f8 00 01 e9 	ld      r8,248(r1)
    207c:	00 00 09 2f 	cmpwi   cr6,r9,0
    2080:	d8 00 21 e9 	ld      r9,216(r1)
    2084:	aa 4a bf 7c 	lwax    r5,r31,r9
    2088:	2e b9 bf 7c 	stwx    r5,r31,r23
    208c:	2e 49 5f 7d 	stwx    r10,r31,r9
    2090:	38 fb 99 40 	ble     cr6,1bc8 <Permute.part.0+0x808>
    2094:	aa ba bf 7c 	lwax    r5,r31,r23
    2098:	a0 00 21 e9 	ld      r9,160(r1)
    209c:	00 00 5d 81 	lwz     r10,0(r29)
    20a0:	78 8b 23 7e 	mr      r3,r17
    20a4:	f8 00 01 f9 	std     r8,248(r1)
    20a8:	f0 00 81 f8 	std     r4,240(r1)
    20ac:	e8 00 c1 f8 	std     r6,232(r1)
    20b0:	e0 00 e1 f8 	std     r7,224(r1)
    20b4:	64 17 29 79 	rldicr  r9,r9,2,61
    20b8:	01 00 4a 39 	addi    r10,r10,1
    20bc:	aa 4a 7f 7d 	lwax    r11,r31,r9
    20c0:	00 00 5d 91 	stw     r10,0(r29)
    20c4:	d8 00 21 f9 	std     r9,216(r1)
    20c8:	2e b9 7f 7d 	stwx    r11,r31,r23
    20cc:	2e 49 bf 7c 	stwx    r5,r31,r9
    20d0:	f9 f2 ff 4b 	bl      13c8 <Permute.part.0+0x8>
    20d4:	aa ba 5f 7d 	lwax    r10,r31,r23
    20d8:	a8 00 21 81 	lwz     r9,168(r1)
    20dc:	e0 00 e1 e8 	ld      r7,224(r1)
    20e0:	e8 00 c1 e8 	ld      r6,232(r1)
    20e4:	f0 00 81 e8 	ld      r4,240(r1)
    20e8:	f8 00 01 e9 	ld      r8,248(r1)
    20ec:	00 00 09 2f 	cmpwi   cr6,r9,0
    20f0:	d8 00 21 e9 	ld      r9,216(r1)
    20f4:	aa 4a bf 7c 	lwax    r5,r31,r9
    20f8:	2e b9 bf 7c 	stwx    r5,r31,r23
    20fc:	2e 49 5f 7d 	stwx    r10,r31,r9
    2100:	c8 fa 99 40 	ble     cr6,1bc8 <Permute.part.0+0x808>
    2104:	aa ba bf 7c 	lwax    r5,r31,r23
    2108:	a8 00 21 e9 	ld      r9,168(r1)
    210c:	00 00 5d 81 	lwz     r10,0(r29)
    2110:	78 8b 23 7e 	mr      r3,r17
    2114:	f8 00 01 f9 	std     r8,248(r1)
    2118:	f0 00 81 f8 	std     r4,240(r1)
    211c:	e8 00 c1 f8 	std     r6,232(r1)
    2120:	e0 00 e1 f8 	std     r7,224(r1)
    2124:	64 17 29 79 	rldicr  r9,r9,2,61
    2128:	01 00 4a 39 	addi    r10,r10,1
    212c:	aa 4a 7f 7d 	lwax    r11,r31,r9
    2130:	00 00 5d 91 	stw     r10,0(r29)
    2134:	d8 00 21 f9 	std     r9,216(r1)
    2138:	2e b9 7f 7d 	stwx    r11,r31,r23
    213c:	2e 49 bf 7c 	stwx    r5,r31,r9
    2140:	89 f2 ff 4b 	bl      13c8 <Permute.part.0+0x8>
    2144:	aa ba 5f 7d 	lwax    r10,r31,r23
    2148:	b0 00 21 81 	lwz     r9,176(r1)
    214c:	e0 00 e1 e8 	ld      r7,224(r1)
    2150:	e8 00 c1 e8 	ld      r6,232(r1)
    2154:	f0 00 81 e8 	ld      r4,240(r1)
    2158:	f8 00 01 e9 	ld      r8,248(r1)
    215c:	00 00 09 2f 	cmpwi   cr6,r9,0
    2160:	d8 00 21 e9 	ld      r9,216(r1)
    2164:	aa 4a bf 7c 	lwax    r5,r31,r9
    2168:	2e b9 bf 7c 	stwx    r5,r31,r23
    216c:	2e 49 5f 7d 	stwx    r10,r31,r9
    2170:	58 fa 99 40 	ble     cr6,1bc8 <Permute.part.0+0x808>
    2174:	aa ba bf 7c 	lwax    r5,r31,r23
    2178:	b0 00 21 e9 	ld      r9,176(r1)
    217c:	00 00 5d 81 	lwz     r10,0(r29)
    2180:	78 8b 23 7e 	mr      r3,r17
    2184:	f8 00 01 f9 	std     r8,248(r1)
    2188:	f0 00 81 f8 	std     r4,240(r1)
    218c:	e8 00 c1 f8 	std     r6,232(r1)
    2190:	e0 00 e1 f8 	std     r7,224(r1)
    2194:	64 17 29 79 	rldicr  r9,r9,2,61
    2198:	01 00 4a 39 	addi    r10,r10,1
    219c:	aa 4a 7f 7d 	lwax    r11,r31,r9
    21a0:	00 00 5d 91 	stw     r10,0(r29)
    21a4:	d8 00 21 f9 	std     r9,216(r1)
    21a8:	2e b9 7f 7d 	stwx    r11,r31,r23
    21ac:	2e 49 bf 7c 	stwx    r5,r31,r9
    21b0:	19 f2 ff 4b 	bl      13c8 <Permute.part.0+0x8>
    21b4:	aa ba 5f 7d 	lwax    r10,r31,r23
    21b8:	b8 00 21 81 	lwz     r9,184(r1)
    21bc:	e0 00 e1 e8 	ld      r7,224(r1)
    21c0:	e8 00 c1 e8 	ld      r6,232(r1)
    21c4:	f0 00 81 e8 	ld      r4,240(r1)
    21c8:	f8 00 01 e9 	ld      r8,248(r1)
    21cc:	00 00 09 2f 	cmpwi   cr6,r9,0
    21d0:	d8 00 21 e9 	ld      r9,216(r1)
    21d4:	aa 4a bf 7c 	lwax    r5,r31,r9
    21d8:	2e b9 bf 7c 	stwx    r5,r31,r23
    21dc:	2e 49 5f 7d 	stwx    r10,r31,r9
    21e0:	e8 f9 99 40 	ble     cr6,1bc8 <Permute.part.0+0x808>
    21e4:	aa ba bf 7c 	lwax    r5,r31,r23
    21e8:	b8 00 21 e9 	ld      r9,184(r1)
    21ec:	00 00 5d 81 	lwz     r10,0(r29)
    21f0:	78 8b 23 7e 	mr      r3,r17
    21f4:	f8 00 01 f9 	std     r8,248(r1)
    21f8:	f0 00 81 f8 	std     r4,240(r1)
    21fc:	e8 00 c1 f8 	std     r6,232(r1)
    2200:	e0 00 e1 f8 	std     r7,224(r1)
    2204:	64 17 29 79 	rldicr  r9,r9,2,61
    2208:	01 00 4a 39 	addi    r10,r10,1
    220c:	aa 4a 7f 7d 	lwax    r11,r31,r9
    2210:	00 00 5d 91 	stw     r10,0(r29)
    2214:	d8 00 21 f9 	std     r9,216(r1)
    2218:	2e b9 7f 7d 	stwx    r11,r31,r23
    221c:	2e 49 bf 7c 	stwx    r5,r31,r9
    2220:	a9 f1 ff 4b 	bl      13c8 <Permute.part.0+0x8>
    2224:	aa ba 5f 7d 	lwax    r10,r31,r23
    2228:	c0 00 21 81 	lwz     r9,192(r1)
    222c:	e0 00 e1 e8 	ld      r7,224(r1)
    2230:	e8 00 c1 e8 	ld      r6,232(r1)
    2234:	f0 00 81 e8 	ld      r4,240(r1)
    2238:	f8 00 01 e9 	ld      r8,248(r1)
    223c:	00 00 09 2f 	cmpwi   cr6,r9,0
    2240:	d8 00 21 e9 	ld      r9,216(r1)
    2244:	aa 4a bf 7c 	lwax    r5,r31,r9
    2248:	2e b9 bf 7c 	stwx    r5,r31,r23
    224c:	2e 49 5f 7d 	stwx    r10,r31,r9
    2250:	78 f9 99 40 	ble     cr6,1bc8 <Permute.part.0+0x808>
    2254:	aa ba bf 7c 	lwax    r5,r31,r23
    2258:	c0 00 21 e9 	ld      r9,192(r1)
    225c:	00 00 5d 81 	lwz     r10,0(r29)
    2260:	78 8b 23 7e 	mr      r3,r17
    2264:	f8 00 01 f9 	std     r8,248(r1)
    2268:	f0 00 81 f8 	std     r4,240(r1)
    226c:	e8 00 c1 f8 	std     r6,232(r1)
    2270:	e0 00 e1 f8 	std     r7,224(r1)
    2274:	64 17 29 79 	rldicr  r9,r9,2,61
    2278:	01 00 4a 39 	addi    r10,r10,1
    227c:	aa 4a 7f 7d 	lwax    r11,r31,r9
    2280:	00 00 5d 91 	stw     r10,0(r29)
    2284:	d8 00 21 f9 	std     r9,216(r1)
    2288:	2e b9 7f 7d 	stwx    r11,r31,r23
    228c:	2e 49 bf 7c 	stwx    r5,r31,r9
    2290:	39 f1 ff 4b 	bl      13c8 <Permute.part.0+0x8>
    2294:	aa ba 5f 7d 	lwax    r10,r31,r23
    2298:	d8 00 21 e9 	ld      r9,216(r1)
    229c:	a0 01 01 e8 	ld      r0,416(r1)
    22a0:	e0 00 e1 e8 	ld      r7,224(r1)
    22a4:	e8 00 c1 e8 	ld      r6,232(r1)
    22a8:	f0 00 81 e8 	ld      r4,240(r1)
    22ac:	f8 00 01 e9 	ld      r8,248(r1)
    22b0:	aa 4a bf 7c 	lwax    r5,r31,r9
    22b4:	a6 03 08 7c 	mtlr    r0
    22b8:	2e b9 bf 7c 	stwx    r5,r31,r23
    22bc:	2e 49 5f 7d 	stwx    r10,r31,r9
    22c0:	02 00 b5 e8 	lwa     r5,0(r21)
    22c4:	2c f4 ff 4b 	b       16f0 <Permute.part.0+0x330>
    22c8:	02 00 1d e9 	lwa     r8,0(r29)
    22cc:	08 01 e1 f9 	std     r15,264(r1)
    22d0:	10 01 01 fa 	std     r16,272(r1)
    22d4:	18 01 21 fa 	std     r17,280(r1)
    22d8:	20 01 41 fa 	std     r18,288(r1)
    22dc:	28 01 61 fa 	std     r19,296(r1)
    22e0:	30 01 81 fa 	std     r20,304(r1)
    22e4:	38 01 a1 fa 	std     r21,312(r1)
    22e8:	40 01 c1 fa 	std     r22,320(r1)
    22ec:	48 01 e1 fa 	std     r23,328(r1)
    22f0:	50 01 01 fb 	std     r24,336(r1)
    22f4:	58 01 21 fb 	std     r25,344(r1)
    22f8:	60 01 41 fb 	std     r26,352(r1)
    22fc:	68 01 61 fb 	std     r27,360(r1)
    2300:	a0 01 01 e8 	ld      r0,416(r1)
    2304:	a6 03 08 7c 	mtlr    r0
    2308:	44 f1 ff 4b 	b       144c <Permute.part.0+0x8c>
    230c:	02 00 3d e9 	lwa     r9,0(r29)
    2310:	a0 01 01 e8 	ld      r0,416(r1)
    2314:	a6 03 08 7c 	mtlr    r0
    2318:	a0 f2 ff 4b 	b       15b8 <Permute.part.0+0x1f8>
    231c:	02 00 3d e9 	lwa     r9,0(r29)
    2320:	a0 01 01 e8 	ld      r0,416(r1)
    2324:	a6 03 08 7c 	mtlr    r0
    2328:	80 f3 ff 4b 	b       16a8 <Permute.part.0+0x2e8>
    232c:	02 00 5d e9 	lwa     r10,0(r29)
    2330:	a0 01 01 e8 	ld      r0,416(r1)
    2334:	a6 03 08 7c 	mtlr    r0
    2338:	f8 f2 ff 4b 	b       1630 <Permute.part.0+0x270>
    233c:	00 00 00 00 	.long 0x0
    2340:	00 00 00 03 	.long 0x3000000
    2344:	80 12 00 00 	.long 0x1280
    2348:	00 00 00 60 	nop
    234c:	00 00 42 60 	ori     r2,r2,0

0000000000002350 <Getclock>:
    2350:	02 00 4c 3c 	addis   r2,r12,2
    2354:	b0 5b 42 38 	addi    r2,r2,23472
    2358:	a6 02 08 7c 	mflr    r0
    235c:	10 00 01 f8 	std     r0,16(r1)
    2360:	e1 ff 21 f8 	stdu    r1,-32(r1)
    2364:	45 78 00 48 	bl      9ba8 <timebase_sec+0x8>
    2368:	00 00 00 60 	nop
    236c:	fe ff 22 3d 	addis   r9,r2,-2
    2370:	20 00 21 38 	addi    r1,r1,32
    2374:	a0 1f 09 c8 	lfd     f0,8096(r9)
    2378:	10 00 01 e8 	ld      r0,16(r1)
    237c:	a6 03 08 7c 	mtlr    r0
    2380:	32 00 21 fc 	fmul    f1,f1,f0
    2384:	20 00 80 4e 	blr
    2388:	00 00 00 00 	.long 0x0
    238c:	00 00 00 01 	.long 0x1000000
    2390:	80 00 00 00 	.long 0x80
    2394:	00 00 00 60 	nop
    2398:	00 00 00 60 	nop
    239c:	00 00 42 60 	ori     r2,r2,0

00000000000023a0 <Initrand>:
    23a0:	02 00 4c 3c 	addis   r2,r12,2
    23a4:	60 5b 42 38 	addi    r2,r2,23392
    23a8:	01 00 20 3d 	lis     r9,1
    23ac:	27 00 42 3d 	addis   r10,r2,39
    23b0:	ec 3b 4a 39 	addi    r10,r10,15340
    23b4:	03 24 29 61 	ori     r9,r9,9219
    23b8:	00 00 2a 91 	stw     r9,0(r10)
    23bc:	20 00 80 4e 	blr
	...
    23cc:	00 00 42 60 	ori     r2,r2,0

00000000000023d0 <Rand>:
    23d0:	02 00 4c 3c 	addis   r2,r12,2
    23d4:	30 5b 42 38 	addi    r2,r2,23344
    23d8:	27 00 42 3d 	addis   r10,r2,39
    23dc:	ec 3b 4a 39 	addi    r10,r10,15340
    23e0:	00 00 2a 81 	lwz     r9,0(r10)
    23e4:	1d 05 29 1d 	mulli   r9,r9,1309
    23e8:	19 36 29 39 	addi    r9,r9,13849
    23ec:	3e 04 29 55 	clrlwi  r9,r9,16
    23f0:	b4 07 23 7d 	extsw   r3,r9
    23f4:	00 00 2a 91 	stw     r9,0(r10)
    23f8:	20 00 80 4e 	blr
	...
    2408:	00 00 00 60 	nop
    240c:	00 00 42 60 	ori     r2,r2,0

0000000000002410 <Swap>:
    2410:	02 00 23 e9 	lwa     r9,0(r3)
    2414:	02 00 44 e9 	lwa     r10,0(r4)
    2418:	00 00 43 91 	stw     r10,0(r3)
    241c:	00 00 24 91 	stw     r9,0(r4)
    2420:	20 00 80 4e 	blr
	...

0000000000002430 <Initialize>:
    2430:	02 00 4c 3c 	addis   r2,r12,2
    2434:	d0 5a 42 38 	addi    r2,r2,23248
    2438:	fe ff c2 3c 	addis   r6,r2,-2
    243c:	43 00 22 3d 	addis   r9,r2,67
    2440:	bc 68 29 39 	addi    r9,r9,26812
    2444:	04 00 40 39 	li      r10,4
    2448:	00 1f c6 38 	addi    r6,r6,7936
    244c:	05 00 e0 38 	li      r7,5
    2450:	06 00 00 39 	li      r8,6
    2454:	98 36 00 7c 	lxvd2x  vs0,0,r6
    2458:	14 00 49 91 	stw     r10,20(r9)
    245c:	18 00 e9 90 	stw     r7,24(r9)
    2460:	1c 00 09 91 	stw     r8,28(r9)
    2464:	98 57 09 7c 	stxvd2x vs0,r9,r10
    2468:	20 00 80 4e 	blr
	...
    2478:	00 00 00 60 	nop
    247c:	00 00 42 60 	ori     r2,r2,0

0000000000002480 <Permute>:
    2480:	02 00 4c 3c 	addis   r2,r12,2
    2484:	80 5a 42 38 	addi    r2,r2,23168
    2488:	3a 00 42 3d 	addis   r10,r2,58
    248c:	b4 8b 4a 39 	addi    r10,r10,-29772
    2490:	01 00 83 2f 	cmpwi   cr7,r3,1
    2494:	a1 ff 21 f8 	stdu    r1,-96(r1)
    2498:	00 00 2a 81 	lwz     r9,0(r10)
    249c:	01 00 29 39 	addi    r9,r9,1
    24a0:	00 00 2a 91 	stw     r9,0(r10)
    24a4:	0c 00 9e 40 	bne     cr7,24b0 <Permute+0x30>
    24a8:	60 00 21 38 	addi    r1,r1,96
    24ac:	20 00 80 4e 	blr
    24b0:	a6 02 08 7c 	mflr    r0
    24b4:	70 00 01 f8 	std     r0,112(r1)
    24b8:	11 ef ff 4b 	bl      13c8 <Permute.part.0+0x8>
    24bc:	70 00 01 e8 	ld      r0,112(r1)
    24c0:	60 00 21 38 	addi    r1,r1,96
    24c4:	a6 03 08 7c 	mtlr    r0
    24c8:	20 00 80 4e 	blr
    24cc:	00 00 00 00 	.long 0x0
    24d0:	00 00 00 01 	.long 0x1000000
    24d4:	80 00 00 00 	.long 0x80
    24d8:	00 00 00 60 	nop
    24dc:	00 00 42 60 	ori     r2,r2,0

00000000000024e0 <Perm>:
    24e0:	02 00 4c 3c 	addis   r2,r12,2
    24e4:	20 5a 42 38 	addi    r2,r2,23072
    24e8:	a6 02 08 7c 	mflr    r0
    24ec:	a0 ff 81 fa 	std     r20,-96(r1)
    24f0:	a8 ff a1 fa 	std     r21,-88(r1)
    24f4:	fe ff 42 3d 	addis   r10,r2,-2
    24f8:	43 00 a2 3e 	addis   r21,r2,67
    24fc:	bc 68 b5 3a 	addi    r21,r21,26812
    2500:	b8 ff e1 fa 	std     r23,-72(r1)
    2504:	00 1f 4a 39 	addi    r10,r10,7936
    2508:	00 00 a0 38 	li      r5,0
    250c:	c0 ff 01 fb 	std     r24,-64(r1)
    2510:	c8 ff 21 fb 	std     r25,-56(r1)
    2514:	04 00 80 3a 	li      r20,4
    2518:	d0 ff 41 fb 	std     r26,-48(r1)
    251c:	d8 ff 61 fb 	std     r27,-40(r1)
    2520:	03 00 60 3b 	li      r27,3
    2524:	f8 ff e1 fb 	std     r31,-8(r1)
    2528:	70 ff c1 f9 	std     r14,-144(r1)
    252c:	20 00 35 39 	addi    r9,r21,32
    2530:	18 00 15 3b 	addi    r24,r21,24
    2534:	10 00 01 f8 	std     r0,16(r1)
    2538:	78 ff e1 f9 	std     r15,-136(r1)
    253c:	b0 00 00 38 	li      r0,176
    2540:	14 00 f5 3a 	addi    r23,r21,20
    2544:	80 ff 01 fa 	std     r16,-128(r1)
    2548:	88 ff 21 fa 	std     r17,-120(r1)
    254c:	10 00 35 3b 	addi    r25,r21,16
    2550:	1c 00 55 3b 	addi    r26,r21,28
    2554:	90 ff 41 fa 	std     r18,-112(r1)
    2558:	98 ff 61 fa 	std     r19,-104(r1)
    255c:	b0 ff c1 fa 	std     r22,-80(r1)
    2560:	e0 ff 81 fb 	std     r28,-32(r1)
    2564:	e8 ff a1 fb 	std     r29,-24(r1)
    2568:	f0 ff c1 fb 	std     r30,-16(r1)
    256c:	b1 fe 21 f8 	stdu    r1,-336(r1)
    2570:	3a 00 e2 3f 	addis   r31,r2,58
    2574:	b4 8b ff 3b 	addi    r31,r31,-29772
    2578:	ce 01 e1 7f 	stvx    v31,r1,r0
    257c:	68 00 21 f9 	std     r9,104(r1)
    2580:	24 00 35 39 	addi    r9,r21,36
    2584:	99 56 e0 7f 	lxvd2x  vs63,0,r10
    2588:	78 00 21 f9 	std     r9,120(r1)
    258c:	28 00 35 39 	addi    r9,r21,40
    2590:	70 00 21 f9 	std     r9,112(r1)
    2594:	04 00 35 39 	addi    r9,r21,4
    2598:	57 fa ff f3 	xxswapd vs63,vs63
    259c:	80 00 21 f9 	std     r9,128(r1)
    25a0:	56 fa 1f f0 	xxswapd vs0,vs63
    25a4:	04 00 20 39 	li      r9,4
    25a8:	05 00 a5 38 	addi    r5,r5,5
    25ac:	06 00 60 38 	li      r3,6
    25b0:	78 d3 5d 7f 	mr      r29,r26
    25b4:	98 a7 15 7c 	stxvd2x vs0,r21,r20
    25b8:	14 00 35 91 	stw     r9,20(r21)
    25bc:	05 00 20 39 	li      r9,5
    25c0:	00 00 bf 90 	stw     r5,0(r31)
    25c4:	18 00 35 91 	stw     r9,24(r21)
    25c8:	06 00 20 39 	li      r9,6
    25cc:	1c 00 35 91 	stw     r9,28(r21)
    25d0:	f9 ed ff 4b 	bl      13c8 <Permute.part.0+0x8>
    25d4:	1e 00 55 e9 	lwa     r10,28(r21)
    25d8:	fc ff bd 3b 	addi    r29,r29,-4
    25dc:	00 00 3f 81 	lwz     r9,0(r31)
    25e0:	05 00 60 38 	li      r3,5
    25e4:	02 00 1d e9 	lwa     r8,0(r29)
    25e8:	78 c3 1e 7f 	mr      r30,r24
    25ec:	01 00 29 39 	addi    r9,r9,1
    25f0:	1c 00 15 91 	stw     r8,28(r21)
    25f4:	00 00 5d 91 	stw     r10,0(r29)
    25f8:	00 00 3f 91 	stw     r9,0(r31)
    25fc:	8d fe ff 4b 	bl      2488 <Permute+0x8>
    2600:	1a 00 55 e9 	lwa     r10,24(r21)
    2604:	fc ff de 3b 	addi    r30,r30,-4
    2608:	00 00 3f 81 	lwz     r9,0(r31)
    260c:	04 00 60 38 	li      r3,4
    2610:	02 00 1e e9 	lwa     r8,0(r30)
    2614:	78 bb fc 7e 	mr      r28,r23
    2618:	01 00 29 39 	addi    r9,r9,1
    261c:	18 00 15 91 	stw     r8,24(r21)
    2620:	00 00 5e 91 	stw     r10,0(r30)
    2624:	00 00 3f 91 	stw     r9,0(r31)
    2628:	61 fe ff 4b 	bl      2488 <Permute+0x8>
    262c:	16 00 55 e9 	lwa     r10,20(r21)
    2630:	fc ff 9c 3b 	addi    r28,r28,-4
    2634:	00 00 3f 81 	lwz     r9,0(r31)
    2638:	03 00 60 38 	li      r3,3
    263c:	02 00 1c e9 	lwa     r8,0(r28)
    2640:	78 cb 36 7f 	mr      r22,r25
    2644:	01 00 29 39 	addi    r9,r9,1
    2648:	14 00 15 91 	stw     r8,20(r21)
    264c:	00 00 5c 91 	stw     r10,0(r28)
    2650:	00 00 3f 91 	stw     r9,0(r31)
    2654:	35 fe ff 4b 	bl      2488 <Permute+0x8>
    2658:	12 00 55 e9 	lwa     r10,16(r21)
    265c:	fc ff d6 3a 	addi    r22,r22,-4
    2660:	00 00 3f 81 	lwz     r9,0(r31)
    2664:	02 00 60 38 	li      r3,2
    2668:	02 00 16 e9 	lwa     r8,0(r22)
    266c:	02 00 40 3a 	li      r18,2
    2670:	01 00 29 39 	addi    r9,r9,1
    2674:	10 00 15 91 	stw     r8,16(r21)
    2678:	00 00 56 91 	stw     r10,0(r22)
    267c:	00 00 3f 91 	stw     r9,0(r31)
    2680:	09 fe ff 4b 	bl      2488 <Permute+0x8>
    2684:	02 00 20 39 	li      r9,2
    2688:	0e 00 55 e9 	lwa     r10,12(r21)
    268c:	64 17 33 79 	rldicr  r19,r9,2,61
    2690:	00 00 3f 81 	lwz     r9,0(r31)
    2694:	02 00 60 38 	li      r3,2
    2698:	aa 9a 15 7d 	lwax    r8,r21,r19
    269c:	01 00 29 39 	addi    r9,r9,1
    26a0:	0c 00 15 91 	stw     r8,12(r21)
    26a4:	00 00 3f 91 	stw     r9,0(r31)
    26a8:	2e 99 55 7d 	stwx    r10,r21,r19
    26ac:	1d ed ff 4b 	bl      13c8 <Permute.part.0+0x8>
    26b0:	aa 9a 15 7d 	lwax    r8,r21,r19
    26b4:	01 00 92 2b 	cmplwi  cr7,r18,1
    26b8:	01 00 20 39 	li      r9,1
    26bc:	0e 00 55 e9 	lwa     r10,12(r21)
    26c0:	0c 00 15 91 	stw     r8,12(r21)
    26c4:	2e 99 55 7d 	stwx    r10,r21,r19
    26c8:	ec 1a 9e 40 	bne     cr7,41b4 <Perm+0x1cd4>
    26cc:	12 00 35 e9 	lwa     r9,16(r21)
    26d0:	80 00 01 e9 	ld      r8,128(r1)
    26d4:	02 00 56 e9 	lwa     r10,0(r22)
    26d8:	40 b0 a8 7f 	cmpld   cr7,r8,r22
    26dc:	10 00 55 91 	stw     r10,16(r21)
    26e0:	00 00 36 91 	stw     r9,0(r22)
    26e4:	74 ff 9e 40 	bne     cr7,2658 <Perm+0x178>
    26e8:	16 00 35 e9 	lwa     r9,20(r21)
    26ec:	40 40 bc 7f 	cmpld   cr7,r28,r8
    26f0:	02 00 5c e9 	lwa     r10,0(r28)
    26f4:	14 00 55 91 	stw     r10,20(r21)
    26f8:	00 00 3c 91 	stw     r9,0(r28)
    26fc:	30 ff 9e 40 	bne     cr7,262c <Perm+0x14c>
    2700:	1a 00 35 e9 	lwa     r9,24(r21)
    2704:	40 f0 a8 7f 	cmpld   cr7,r8,r30
    2708:	02 00 5e e9 	lwa     r10,0(r30)
    270c:	18 00 55 91 	stw     r10,24(r21)
    2710:	00 00 3e 91 	stw     r9,0(r30)
    2714:	ec fe 9e 40 	bne     cr7,2600 <Perm+0x120>
    2718:	1e 00 35 e9 	lwa     r9,28(r21)
    271c:	40 40 bd 7f 	cmpld   cr7,r29,r8
    2720:	02 00 5d e9 	lwa     r10,0(r29)
    2724:	1c 00 55 91 	stw     r10,28(r21)
    2728:	00 00 3d 91 	stw     r9,0(r29)
    272c:	a8 fe 9e 40 	bne     cr7,25d4 <Perm+0xf4>
    2730:	68 00 c1 eb 	ld      r30,104(r1)
    2734:	22 00 55 e9 	lwa     r10,32(r21)
    2738:	fc ff de 3b 	addi    r30,r30,-4
    273c:	00 00 3f 81 	lwz     r9,0(r31)
    2740:	05 00 60 38 	li      r3,5
    2744:	02 00 1e e9 	lwa     r8,0(r30)
    2748:	78 c3 1c 7f 	mr      r28,r24
    274c:	03 00 29 39 	addi    r9,r9,3
    2750:	20 00 15 91 	stw     r8,32(r21)
    2754:	00 00 5e 91 	stw     r10,0(r30)
    2758:	00 00 3f 91 	stw     r9,0(r31)
    275c:	6d ec ff 4b 	bl      13c8 <Permute.part.0+0x8>
    2760:	1a 00 55 e9 	lwa     r10,24(r21)
    2764:	fc ff 9c 3b 	addi    r28,r28,-4
    2768:	00 00 3f 81 	lwz     r9,0(r31)
    276c:	04 00 60 38 	li      r3,4
    2770:	02 00 1c e9 	lwa     r8,0(r28)
    2774:	78 bb f6 7e 	mr      r22,r23
    2778:	02 00 29 39 	addi    r9,r9,2
    277c:	18 00 15 91 	stw     r8,24(r21)
    2780:	00 00 5c 91 	stw     r10,0(r28)
    2784:	00 00 3f 91 	stw     r9,0(r31)
    2788:	41 ec ff 4b 	bl      13c8 <Permute.part.0+0x8>
    278c:	16 00 55 e9 	lwa     r10,20(r21)
    2790:	fc ff d6 3a 	addi    r22,r22,-4
    2794:	00 00 3f 81 	lwz     r9,0(r31)
    2798:	03 00 60 38 	li      r3,3
    279c:	02 00 16 e9 	lwa     r8,0(r22)
    27a0:	78 cb 31 7f 	mr      r17,r25
    27a4:	02 00 29 39 	addi    r9,r9,2
    27a8:	14 00 15 91 	stw     r8,20(r21)
    27ac:	00 00 56 91 	stw     r10,0(r22)
    27b0:	00 00 3f 91 	stw     r9,0(r31)
    27b4:	15 ec ff 4b 	bl      13c8 <Permute.part.0+0x8>
    27b8:	12 00 55 e9 	lwa     r10,16(r21)
    27bc:	fc ff 31 3a 	addi    r17,r17,-4
    27c0:	00 00 3f 81 	lwz     r9,0(r31)
    27c4:	02 00 60 38 	li      r3,2
    27c8:	02 00 11 e9 	lwa     r8,0(r17)
    27cc:	02 00 60 3a 	li      r19,2
    27d0:	02 00 00 3a 	li      r16,2
    27d4:	01 00 29 39 	addi    r9,r9,1
    27d8:	10 00 15 91 	stw     r8,16(r21)
    27dc:	00 00 51 91 	stw     r10,0(r17)
    27e0:	00 00 3f 91 	stw     r9,0(r31)
    27e4:	a5 fc ff 4b 	bl      2488 <Permute+0x8>
    27e8:	0e 00 55 e9 	lwa     r10,12(r21)
    27ec:	64 17 10 7a 	rldicr  r16,r16,2,61
    27f0:	00 00 3f 81 	lwz     r9,0(r31)
    27f4:	01 00 60 38 	li      r3,1
    27f8:	aa 82 15 7d 	lwax    r8,r21,r16
    27fc:	01 00 29 39 	addi    r9,r9,1
    2800:	0c 00 15 91 	stw     r8,12(r21)
    2804:	00 00 3f 91 	stw     r9,0(r31)
    2808:	2e 81 55 7d 	stwx    r10,r21,r16
    280c:	7d fc ff 4b 	bl      2488 <Permute+0x8>
    2810:	aa 82 15 7d 	lwax    r8,r21,r16
    2814:	00 00 3f 81 	lwz     r9,0(r31)
    2818:	01 00 93 2b 	cmplwi  cr7,r19,1
    281c:	0e 00 55 e9 	lwa     r10,12(r21)
    2820:	01 00 29 39 	addi    r9,r9,1
    2824:	0c 00 15 91 	stw     r8,12(r21)
    2828:	2e 81 55 7d 	stwx    r10,r21,r16
    282c:	01 00 00 3a 	li      r16,1
    2830:	00 00 3f 91 	stw     r9,0(r31)
    2834:	b4 07 29 7d 	extsw   r9,r9
    2838:	74 19 9e 40 	bne     cr7,41ac <Perm+0x1ccc>
    283c:	12 00 55 e9 	lwa     r10,16(r21)
    2840:	40 88 bd 7f 	cmpld   cr7,r29,r17
    2844:	02 00 11 e9 	lwa     r8,0(r17)
    2848:	10 00 15 91 	stw     r8,16(r21)
    284c:	00 00 51 91 	stw     r10,0(r17)
    2850:	68 ff 9e 40 	bne     cr7,27b8 <Perm+0x2d8>
    2854:	16 00 55 e9 	lwa     r10,20(r21)
    2858:	40 b0 bd 7f 	cmpld   cr7,r29,r22
    285c:	02 00 16 e9 	lwa     r8,0(r22)
    2860:	14 00 15 91 	stw     r8,20(r21)
    2864:	00 00 56 91 	stw     r10,0(r22)
    2868:	24 ff 9e 40 	bne     cr7,278c <Perm+0x2ac>
    286c:	1a 00 55 e9 	lwa     r10,24(r21)
    2870:	40 e0 bd 7f 	cmpld   cr7,r29,r28
    2874:	02 00 1c e9 	lwa     r8,0(r28)
    2878:	18 00 15 91 	stw     r8,24(r21)
    287c:	00 00 5c 91 	stw     r10,0(r28)
    2880:	e0 fe 9e 40 	bne     cr7,2760 <Perm+0x280>
    2884:	78 d3 5c 7f 	mr      r28,r26
    2888:	0c 00 00 48 	b       2894 <Perm+0x3b4>
    288c:	00 00 42 60 	ori     r2,r2,0
    2890:	02 00 3f e9 	lwa     r9,0(r31)
    2894:	1e 00 55 e9 	lwa     r10,28(r21)
    2898:	fc ff 9c 3b 	addi    r28,r28,-4
    289c:	02 00 1c e9 	lwa     r8,0(r28)
    28a0:	02 00 29 39 	addi    r9,r9,2
    28a4:	05 00 60 38 	li      r3,5
    28a8:	00 00 3f 91 	stw     r9,0(r31)
    28ac:	78 c3 16 7f 	mr      r22,r24
    28b0:	1c 00 15 91 	stw     r8,28(r21)
    28b4:	00 00 5c 91 	stw     r10,0(r28)
    28b8:	11 eb ff 4b 	bl      13c8 <Permute.part.0+0x8>
    28bc:	1a 00 55 e9 	lwa     r10,24(r21)
    28c0:	fc ff d6 3a 	addi    r22,r22,-4
    28c4:	00 00 3f 81 	lwz     r9,0(r31)
    28c8:	04 00 60 38 	li      r3,4
    28cc:	02 00 16 e9 	lwa     r8,0(r22)
    28d0:	78 bb f1 7e 	mr      r17,r23
    28d4:	02 00 29 39 	addi    r9,r9,2
    28d8:	18 00 15 91 	stw     r8,24(r21)
    28dc:	00 00 56 91 	stw     r10,0(r22)
    28e0:	00 00 3f 91 	stw     r9,0(r31)
    28e4:	e5 ea ff 4b 	bl      13c8 <Permute.part.0+0x8>
    28e8:	16 00 55 e9 	lwa     r10,20(r21)
    28ec:	fc ff 31 3a 	addi    r17,r17,-4
    28f0:	00 00 3f 81 	lwz     r9,0(r31)
    28f4:	03 00 60 38 	li      r3,3
    28f8:	02 00 11 e9 	lwa     r8,0(r17)
    28fc:	78 cb 2f 7f 	mr      r15,r25
    2900:	01 00 29 39 	addi    r9,r9,1
    2904:	14 00 15 91 	stw     r8,20(r21)
    2908:	00 00 51 91 	stw     r10,0(r17)
    290c:	00 00 3f 91 	stw     r9,0(r31)
    2910:	79 fb ff 4b 	bl      2488 <Permute+0x8>
    2914:	12 00 55 e9 	lwa     r10,16(r21)
    2918:	fc ff ef 39 	addi    r15,r15,-4
    291c:	00 00 3f 81 	lwz     r9,0(r31)
    2920:	02 00 60 38 	li      r3,2
    2924:	02 00 0f e9 	lwa     r8,0(r15)
    2928:	02 00 00 3a 	li      r16,2
    292c:	01 00 29 39 	addi    r9,r9,1
    2930:	10 00 15 91 	stw     r8,16(r21)
    2934:	00 00 4f 91 	stw     r10,0(r15)
    2938:	00 00 3f 91 	stw     r9,0(r31)
    293c:	4d fb ff 4b 	bl      2488 <Permute+0x8>
    2940:	02 00 20 39 	li      r9,2
    2944:	0e 00 55 e9 	lwa     r10,12(r21)
    2948:	64 17 2e 79 	rldicr  r14,r9,2,61
    294c:	00 00 3f 81 	lwz     r9,0(r31)
    2950:	02 00 60 38 	li      r3,2
    2954:	aa 72 15 7d 	lwax    r8,r21,r14
    2958:	01 00 29 39 	addi    r9,r9,1
    295c:	0c 00 15 91 	stw     r8,12(r21)
    2960:	00 00 3f 91 	stw     r9,0(r31)
    2964:	2e 71 55 7d 	stwx    r10,r21,r14
    2968:	61 ea ff 4b 	bl      13c8 <Permute.part.0+0x8>
    296c:	aa 72 15 7d 	lwax    r8,r21,r14
    2970:	01 00 90 2b 	cmplwi  cr7,r16,1
    2974:	01 00 20 39 	li      r9,1
    2978:	0e 00 55 e9 	lwa     r10,12(r21)
    297c:	0c 00 15 91 	stw     r8,12(r21)
    2980:	2e 71 55 7d 	stwx    r10,r21,r14
    2984:	20 18 9e 40 	bne     cr7,41a4 <Perm+0x1cc4>
    2988:	12 00 35 e9 	lwa     r9,16(r21)
    298c:	40 78 bd 7f 	cmpld   cr7,r29,r15
    2990:	02 00 4f e9 	lwa     r10,0(r15)
    2994:	10 00 55 91 	stw     r10,16(r21)
    2998:	00 00 2f 91 	stw     r9,0(r15)
    299c:	78 ff 9e 40 	bne     cr7,2914 <Perm+0x434>
    29a0:	16 00 35 e9 	lwa     r9,20(r21)
    29a4:	40 88 bd 7f 	cmpld   cr7,r29,r17
    29a8:	02 00 51 e9 	lwa     r10,0(r17)
    29ac:	14 00 55 91 	stw     r10,20(r21)
    29b0:	00 00 31 91 	stw     r9,0(r17)
    29b4:	34 ff 9e 40 	bne     cr7,28e8 <Perm+0x408>
    29b8:	1a 00 35 e9 	lwa     r9,24(r21)
    29bc:	40 b0 bd 7f 	cmpld   cr7,r29,r22
    29c0:	02 00 56 e9 	lwa     r10,0(r22)
    29c4:	18 00 55 91 	stw     r10,24(r21)
    29c8:	00 00 36 91 	stw     r9,0(r22)
    29cc:	f0 fe 9e 40 	bne     cr7,28bc <Perm+0x3dc>
    29d0:	1e 00 35 e9 	lwa     r9,28(r21)
    29d4:	40 e0 bd 7f 	cmpld   cr7,r29,r28
    29d8:	02 00 5c e9 	lwa     r10,0(r28)
    29dc:	1c 00 55 91 	stw     r10,28(r21)
    29e0:	00 00 3c 91 	stw     r9,0(r28)
    29e4:	ac fe 9e 40 	bne     cr7,2890 <Perm+0x3b0>
    29e8:	22 00 35 e9 	lwa     r9,32(r21)
    29ec:	40 f0 bd 7f 	cmpld   cr7,r29,r30
    29f0:	02 00 5e e9 	lwa     r10,0(r30)
    29f4:	20 00 55 91 	stw     r10,32(r21)
    29f8:	00 00 3e 91 	stw     r9,0(r30)
    29fc:	38 fd 9e 40 	bne     cr7,2734 <Perm+0x254>
    2a00:	02 00 bf e8 	lwa     r5,0(r31)
    2a04:	a0 00 01 fa 	std     r16,160(r1)
    2a08:	78 00 c1 eb 	ld      r30,120(r1)
    2a0c:	00 00 42 60 	ori     r2,r2,0
    2a10:	26 00 35 e9 	lwa     r9,36(r21)
    2a14:	fc ff de 3b 	addi    r30,r30,-4
    2a18:	02 00 5e e9 	lwa     r10,0(r30)
    2a1c:	03 00 a5 38 	addi    r5,r5,3
    2a20:	06 00 60 38 	li      r3,6
    2a24:	00 00 bf 90 	stw     r5,0(r31)
    2a28:	78 d3 5c 7f 	mr      r28,r26
    2a2c:	24 00 55 91 	stw     r10,36(r21)
    2a30:	00 00 3e 91 	stw     r9,0(r30)
    2a34:	95 e9 ff 4b 	bl      13c8 <Permute.part.0+0x8>
    2a38:	1e 00 55 e9 	lwa     r10,28(r21)
    2a3c:	fc ff 9c 3b 	addi    r28,r28,-4
    2a40:	00 00 3f 81 	lwz     r9,0(r31)
    2a44:	05 00 60 38 	li      r3,5
    2a48:	02 00 1c e9 	lwa     r8,0(r28)
    2a4c:	78 c3 16 7f 	mr      r22,r24
    2a50:	02 00 29 39 	addi    r9,r9,2
    2a54:	1c 00 15 91 	stw     r8,28(r21)
    2a58:	00 00 5c 91 	stw     r10,0(r28)
    2a5c:	00 00 3f 91 	stw     r9,0(r31)
    2a60:	69 e9 ff 4b 	bl      13c8 <Permute.part.0+0x8>
    2a64:	1a 00 55 e9 	lwa     r10,24(r21)
    2a68:	fc ff d6 3a 	addi    r22,r22,-4
    2a6c:	00 00 3f 81 	lwz     r9,0(r31)
    2a70:	04 00 60 38 	li      r3,4
    2a74:	02 00 16 e9 	lwa     r8,0(r22)
    2a78:	78 bb f3 7e 	mr      r19,r23
    2a7c:	02 00 29 39 	addi    r9,r9,2
    2a80:	18 00 15 91 	stw     r8,24(r21)
    2a84:	00 00 56 91 	stw     r10,0(r22)
    2a88:	00 00 3f 91 	stw     r9,0(r31)
    2a8c:	3d e9 ff 4b 	bl      13c8 <Permute.part.0+0x8>
    2a90:	16 00 55 e9 	lwa     r10,20(r21)
    2a94:	fc ff 73 3a 	addi    r19,r19,-4
    2a98:	00 00 3f 81 	lwz     r9,0(r31)
    2a9c:	03 00 60 38 	li      r3,3
    2aa0:	02 00 13 e9 	lwa     r8,0(r19)
    2aa4:	78 cb 32 7f 	mr      r18,r25
    2aa8:	01 00 29 39 	addi    r9,r9,1
    2aac:	14 00 15 91 	stw     r8,20(r21)
    2ab0:	00 00 53 91 	stw     r10,0(r19)
    2ab4:	00 00 3f 91 	stw     r9,0(r31)
    2ab8:	d1 f9 ff 4b 	bl      2488 <Permute+0x8>
    2abc:	12 00 55 e9 	lwa     r10,16(r21)
    2ac0:	fc ff 52 3a 	addi    r18,r18,-4
    2ac4:	00 00 3f 81 	lwz     r9,0(r31)
    2ac8:	02 00 60 38 	li      r3,2
    2acc:	02 00 12 e9 	lwa     r8,0(r18)
    2ad0:	01 00 29 39 	addi    r9,r9,1
    2ad4:	10 00 15 91 	stw     r8,16(r21)
    2ad8:	00 00 52 91 	stw     r10,0(r18)
    2adc:	02 00 40 39 	li      r10,2
    2ae0:	00 00 3f 91 	stw     r9,0(r31)
    2ae4:	98 00 41 f9 	std     r10,152(r1)
    2ae8:	a1 f9 ff 4b 	bl      2488 <Permute+0x8>
    2aec:	02 00 20 39 	li      r9,2
    2af0:	0e 00 55 e9 	lwa     r10,12(r21)
    2af4:	64 17 31 79 	rldicr  r17,r9,2,61
    2af8:	00 00 3f 81 	lwz     r9,0(r31)
    2afc:	02 00 60 38 	li      r3,2
    2b00:	aa 8a 15 7d 	lwax    r8,r21,r17
    2b04:	01 00 29 39 	addi    r9,r9,1
    2b08:	0c 00 15 91 	stw     r8,12(r21)
    2b0c:	00 00 3f 91 	stw     r9,0(r31)
    2b10:	2e 89 55 7d 	stwx    r10,r21,r17
    2b14:	b5 e8 ff 4b 	bl      13c8 <Permute.part.0+0x8>
    2b18:	aa 8a 15 7d 	lwax    r8,r21,r17
    2b1c:	98 00 21 81 	lwz     r9,152(r1)
    2b20:	0e 00 55 e9 	lwa     r10,12(r21)
    2b24:	01 00 89 2b 	cmplwi  cr7,r9,1
    2b28:	0c 00 15 91 	stw     r8,12(r21)
    2b2c:	01 00 20 39 	li      r9,1
    2b30:	2e 89 55 7d 	stwx    r10,r21,r17
    2b34:	64 16 9e 40 	bne     cr7,4198 <Perm+0x1cb8>
    2b38:	12 00 35 e9 	lwa     r9,16(r21)
    2b3c:	40 90 bd 7f 	cmpld   cr7,r29,r18
    2b40:	02 00 52 e9 	lwa     r10,0(r18)
    2b44:	10 00 55 91 	stw     r10,16(r21)
    2b48:	00 00 32 91 	stw     r9,0(r18)
    2b4c:	70 ff 9e 40 	bne     cr7,2abc <Perm+0x5dc>
    2b50:	16 00 35 e9 	lwa     r9,20(r21)
    2b54:	40 98 bd 7f 	cmpld   cr7,r29,r19
    2b58:	02 00 53 e9 	lwa     r10,0(r19)
    2b5c:	14 00 55 91 	stw     r10,20(r21)
    2b60:	00 00 33 91 	stw     r9,0(r19)
    2b64:	2c ff 9e 40 	bne     cr7,2a90 <Perm+0x5b0>
    2b68:	1a 00 35 e9 	lwa     r9,24(r21)
    2b6c:	40 b0 bd 7f 	cmpld   cr7,r29,r22
    2b70:	02 00 56 e9 	lwa     r10,0(r22)
    2b74:	18 00 55 91 	stw     r10,24(r21)
    2b78:	00 00 36 91 	stw     r9,0(r22)
    2b7c:	e8 fe 9e 40 	bne     cr7,2a64 <Perm+0x584>
    2b80:	1e 00 35 e9 	lwa     r9,28(r21)
    2b84:	40 e0 bd 7f 	cmpld   cr7,r29,r28
    2b88:	02 00 5c e9 	lwa     r10,0(r28)
    2b8c:	1c 00 55 91 	stw     r10,28(r21)
    2b90:	00 00 3c 91 	stw     r9,0(r28)
    2b94:	a4 fe 9e 40 	bne     cr7,2a38 <Perm+0x558>
    2b98:	02 00 bf e8 	lwa     r5,0(r31)
    2b9c:	68 00 c1 e9 	ld      r14,104(r1)
    2ba0:	22 00 35 e9 	lwa     r9,32(r21)
    2ba4:	fc ff ce 39 	addi    r14,r14,-4
    2ba8:	02 00 4e e9 	lwa     r10,0(r14)
    2bac:	03 00 a5 38 	addi    r5,r5,3
    2bb0:	05 00 60 38 	li      r3,5
    2bb4:	00 00 bf 90 	stw     r5,0(r31)
    2bb8:	78 c3 1c 7f 	mr      r28,r24
    2bbc:	20 00 55 91 	stw     r10,32(r21)
    2bc0:	00 00 2e 91 	stw     r9,0(r14)
    2bc4:	05 e8 ff 4b 	bl      13c8 <Permute.part.0+0x8>
    2bc8:	1a 00 55 e9 	lwa     r10,24(r21)
    2bcc:	fc ff 9c 3b 	addi    r28,r28,-4
    2bd0:	00 00 3f 81 	lwz     r9,0(r31)
    2bd4:	04 00 60 38 	li      r3,4
    2bd8:	02 00 1c e9 	lwa     r8,0(r28)
    2bdc:	78 bb f6 7e 	mr      r22,r23
    2be0:	02 00 29 39 	addi    r9,r9,2
    2be4:	18 00 15 91 	stw     r8,24(r21)
    2be8:	00 00 5c 91 	stw     r10,0(r28)
    2bec:	00 00 3f 91 	stw     r9,0(r31)
    2bf0:	d9 e7 ff 4b 	bl      13c8 <Permute.part.0+0x8>
    2bf4:	16 00 55 e9 	lwa     r10,20(r21)
    2bf8:	fc ff d6 3a 	addi    r22,r22,-4
    2bfc:	00 00 3f 81 	lwz     r9,0(r31)
    2c00:	03 00 60 38 	li      r3,3
    2c04:	02 00 16 e9 	lwa     r8,0(r22)
    2c08:	78 cb 33 7f 	mr      r19,r25
    2c0c:	01 00 29 39 	addi    r9,r9,1
    2c10:	14 00 15 91 	stw     r8,20(r21)
    2c14:	00 00 56 91 	stw     r10,0(r22)
    2c18:	00 00 3f 91 	stw     r9,0(r31)
    2c1c:	6d f8 ff 4b 	bl      2488 <Permute+0x8>
    2c20:	12 00 55 e9 	lwa     r10,16(r21)
    2c24:	fc ff 73 3a 	addi    r19,r19,-4
    2c28:	00 00 3f 81 	lwz     r9,0(r31)
    2c2c:	02 00 60 38 	li      r3,2
    2c30:	02 00 13 e9 	lwa     r8,0(r19)
    2c34:	02 00 40 3a 	li      r18,2
    2c38:	01 00 29 39 	addi    r9,r9,1
    2c3c:	10 00 15 91 	stw     r8,16(r21)
    2c40:	00 00 53 91 	stw     r10,0(r19)
    2c44:	02 00 40 39 	li      r10,2
    2c48:	00 00 3f 91 	stw     r9,0(r31)
    2c4c:	90 00 41 f9 	std     r10,144(r1)
    2c50:	39 f8 ff 4b 	bl      2488 <Permute+0x8>
    2c54:	0e 00 55 e9 	lwa     r10,12(r21)
    2c58:	64 17 52 7a 	rldicr  r18,r18,2,61
    2c5c:	00 00 3f 81 	lwz     r9,0(r31)
    2c60:	01 00 60 38 	li      r3,1
    2c64:	aa 92 15 7d 	lwax    r8,r21,r18
    2c68:	01 00 29 39 	addi    r9,r9,1
    2c6c:	0c 00 15 91 	stw     r8,12(r21)
    2c70:	00 00 3f 91 	stw     r9,0(r31)
    2c74:	2e 91 55 7d 	stwx    r10,r21,r18
    2c78:	11 f8 ff 4b 	bl      2488 <Permute+0x8>
    2c7c:	aa 92 55 7d 	lwax    r10,r21,r18
    2c80:	90 00 21 81 	lwz     r9,144(r1)
    2c84:	00 00 bf 80 	lwz     r5,0(r31)
    2c88:	01 00 89 2b 	cmplwi  cr7,r9,1
    2c8c:	01 00 a5 38 	addi    r5,r5,1
    2c90:	0e 00 35 e9 	lwa     r9,12(r21)
    2c94:	0c 00 55 91 	stw     r10,12(r21)
    2c98:	00 00 bf 90 	stw     r5,0(r31)
    2c9c:	b4 07 a5 7c 	extsw   r5,r5
    2ca0:	2e 91 35 7d 	stwx    r9,r21,r18
    2ca4:	01 00 40 3a 	li      r18,1
    2ca8:	e4 14 9e 40 	bne     cr7,418c <Perm+0x1cac>
    2cac:	12 00 35 e9 	lwa     r9,16(r21)
    2cb0:	40 98 bd 7f 	cmpld   cr7,r29,r19
    2cb4:	02 00 53 e9 	lwa     r10,0(r19)
    2cb8:	10 00 55 91 	stw     r10,16(r21)
    2cbc:	00 00 33 91 	stw     r9,0(r19)
    2cc0:	60 ff 9e 40 	bne     cr7,2c20 <Perm+0x740>
    2cc4:	16 00 35 e9 	lwa     r9,20(r21)
    2cc8:	40 b0 bd 7f 	cmpld   cr7,r29,r22
    2ccc:	02 00 56 e9 	lwa     r10,0(r22)
    2cd0:	14 00 55 91 	stw     r10,20(r21)
    2cd4:	00 00 36 91 	stw     r9,0(r22)
    2cd8:	1c ff 9e 40 	bne     cr7,2bf4 <Perm+0x714>
    2cdc:	1a 00 35 e9 	lwa     r9,24(r21)
    2ce0:	40 e0 bd 7f 	cmpld   cr7,r29,r28
    2ce4:	02 00 5c e9 	lwa     r10,0(r28)
    2ce8:	18 00 55 91 	stw     r10,24(r21)
    2cec:	00 00 3c 91 	stw     r9,0(r28)
    2cf0:	d8 fe 9e 40 	bne     cr7,2bc8 <Perm+0x6e8>
    2cf4:	78 d3 52 7f 	mr      r18,r26
    2cf8:	1e 00 35 e9 	lwa     r9,28(r21)
    2cfc:	fc ff 52 3a 	addi    r18,r18,-4
    2d00:	03 00 a5 38 	addi    r5,r5,3
    2d04:	02 00 52 e9 	lwa     r10,0(r18)
    2d08:	04 00 60 38 	li      r3,4
    2d0c:	00 00 bf 90 	stw     r5,0(r31)
    2d10:	78 bb fc 7e 	mr      r28,r23
    2d14:	1c 00 55 91 	stw     r10,28(r21)
    2d18:	00 00 32 91 	stw     r9,0(r18)
    2d1c:	ad e6 ff 4b 	bl      13c8 <Permute.part.0+0x8>
    2d20:	16 00 55 e9 	lwa     r10,20(r21)
    2d24:	fc ff 9c 3b 	addi    r28,r28,-4
    2d28:	00 00 3f 81 	lwz     r9,0(r31)
    2d2c:	03 00 60 38 	li      r3,3
    2d30:	02 00 1c e9 	lwa     r8,0(r28)
    2d34:	78 cb 36 7f 	mr      r22,r25
    2d38:	01 00 29 39 	addi    r9,r9,1
    2d3c:	14 00 15 91 	stw     r8,20(r21)
    2d40:	00 00 5c 91 	stw     r10,0(r28)
    2d44:	00 00 3f 91 	stw     r9,0(r31)
    2d48:	41 f7 ff 4b 	bl      2488 <Permute+0x8>
    2d4c:	12 00 55 e9 	lwa     r10,16(r21)
    2d50:	fc ff d6 3a 	addi    r22,r22,-4
    2d54:	00 00 3f 81 	lwz     r9,0(r31)
    2d58:	02 00 60 38 	li      r3,2
    2d5c:	02 00 16 e9 	lwa     r8,0(r22)
    2d60:	02 00 20 3a 	li      r17,2
    2d64:	02 00 60 3a 	li      r19,2
    2d68:	01 00 29 39 	addi    r9,r9,1
    2d6c:	10 00 15 91 	stw     r8,16(r21)
    2d70:	00 00 56 91 	stw     r10,0(r22)
    2d74:	00 00 3f 91 	stw     r9,0(r31)
    2d78:	11 f7 ff 4b 	bl      2488 <Permute+0x8>
    2d7c:	0e 00 55 e9 	lwa     r10,12(r21)
    2d80:	64 17 73 7a 	rldicr  r19,r19,2,61
    2d84:	00 00 3f 81 	lwz     r9,0(r31)
    2d88:	01 00 60 38 	li      r3,1
    2d8c:	aa 9a 15 7d 	lwax    r8,r21,r19
    2d90:	01 00 29 39 	addi    r9,r9,1
    2d94:	0c 00 15 91 	stw     r8,12(r21)
    2d98:	00 00 3f 91 	stw     r9,0(r31)
    2d9c:	2e 99 55 7d 	stwx    r10,r21,r19
    2da0:	e9 f6 ff 4b 	bl      2488 <Permute+0x8>
    2da4:	aa 9a 15 7d 	lwax    r8,r21,r19
    2da8:	00 00 3f 81 	lwz     r9,0(r31)
    2dac:	01 00 91 2b 	cmplwi  cr7,r17,1
    2db0:	0e 00 55 e9 	lwa     r10,12(r21)
    2db4:	01 00 29 39 	addi    r9,r9,1
    2db8:	0c 00 15 91 	stw     r8,12(r21)
    2dbc:	b4 07 25 7d 	extsw   r5,r9
    2dc0:	2e 99 55 7d 	stwx    r10,r21,r19
    2dc4:	01 00 60 3a 	li      r19,1
    2dc8:	00 00 3f 91 	stw     r9,0(r31)
    2dcc:	b8 13 9e 40 	bne     cr7,4184 <Perm+0x1ca4>
    2dd0:	12 00 35 e9 	lwa     r9,16(r21)
    2dd4:	40 b0 bd 7f 	cmpld   cr7,r29,r22
    2dd8:	02 00 56 e9 	lwa     r10,0(r22)
    2ddc:	10 00 55 91 	stw     r10,16(r21)
    2de0:	00 00 36 91 	stw     r9,0(r22)
    2de4:	68 ff 9e 40 	bne     cr7,2d4c <Perm+0x86c>
    2de8:	16 00 35 e9 	lwa     r9,20(r21)
    2dec:	40 e0 bd 7f 	cmpld   cr7,r29,r28
    2df0:	02 00 5c e9 	lwa     r10,0(r28)
    2df4:	14 00 55 91 	stw     r10,20(r21)
    2df8:	00 00 3c 91 	stw     r9,0(r28)
    2dfc:	24 ff 9e 40 	bne     cr7,2d20 <Perm+0x840>
    2e00:	a8 00 21 fa 	std     r17,168(r1)
    2e04:	78 c3 0f 7f 	mr      r15,r24
    2e08:	1a 00 35 e9 	lwa     r9,24(r21)
    2e0c:	fc ff ef 39 	addi    r15,r15,-4
    2e10:	03 00 a5 38 	addi    r5,r5,3
    2e14:	02 00 4f e9 	lwa     r10,0(r15)
    2e18:	03 00 60 38 	li      r3,3
    2e1c:	00 00 bf 90 	stw     r5,0(r31)
    2e20:	78 cb 3c 7f 	mr      r28,r25
    2e24:	18 00 55 91 	stw     r10,24(r21)
    2e28:	00 00 2f 91 	stw     r9,0(r15)
    2e2c:	9d e5 ff 4b 	bl      13c8 <Permute.part.0+0x8>
    2e30:	12 00 55 e9 	lwa     r10,16(r21)
    2e34:	fc ff 9c 3b 	addi    r28,r28,-4
    2e38:	00 00 3f 81 	lwz     r9,0(r31)
    2e3c:	02 00 60 38 	li      r3,2
    2e40:	02 00 1c e9 	lwa     r8,0(r28)
    2e44:	02 00 60 3a 	li      r19,2
    2e48:	02 00 c0 3a 	li      r22,2
    2e4c:	02 00 29 39 	addi    r9,r9,2
    2e50:	10 00 15 91 	stw     r8,16(r21)
    2e54:	00 00 5c 91 	stw     r10,0(r28)
    2e58:	00 00 3f 91 	stw     r9,0(r31)
    2e5c:	6d e5 ff 4b 	bl      13c8 <Permute.part.0+0x8>
    2e60:	0e 00 55 e9 	lwa     r10,12(r21)
    2e64:	64 17 d6 7a 	rldicr  r22,r22,2,61
    2e68:	00 00 3f 81 	lwz     r9,0(r31)
    2e6c:	01 00 60 38 	li      r3,1
    2e70:	aa b2 15 7d 	lwax    r8,r21,r22
    2e74:	01 00 29 39 	addi    r9,r9,1
    2e78:	0c 00 15 91 	stw     r8,12(r21)
    2e7c:	00 00 3f 91 	stw     r9,0(r31)
    2e80:	2e b1 55 7d 	stwx    r10,r21,r22
    2e84:	05 f6 ff 4b 	bl      2488 <Permute+0x8>
    2e88:	aa b2 15 7d 	lwax    r8,r21,r22
    2e8c:	00 00 3f 81 	lwz     r9,0(r31)
    2e90:	01 00 93 2b 	cmplwi  cr7,r19,1
    2e94:	0e 00 55 e9 	lwa     r10,12(r21)
    2e98:	01 00 29 39 	addi    r9,r9,1
    2e9c:	0c 00 15 91 	stw     r8,12(r21)
    2ea0:	b4 07 25 7d 	extsw   r5,r9
    2ea4:	2e b1 55 7d 	stwx    r10,r21,r22
    2ea8:	01 00 c0 3a 	li      r22,1
    2eac:	00 00 3f 91 	stw     r9,0(r31)
    2eb0:	cc 12 9e 40 	bne     cr7,417c <Perm+0x1c9c>
    2eb4:	12 00 35 e9 	lwa     r9,16(r21)
    2eb8:	40 e0 bd 7f 	cmpld   cr7,r29,r28
    2ebc:	02 00 5c e9 	lwa     r10,0(r28)
    2ec0:	10 00 55 91 	stw     r10,16(r21)
    2ec4:	00 00 3c 91 	stw     r9,0(r28)
    2ec8:	68 ff 9e 40 	bne     cr7,2e30 <Perm+0x950>
    2ecc:	78 bb f0 7e 	mr      r16,r23
    2ed0:	16 00 55 e9 	lwa     r10,20(r21)
    2ed4:	fc ff 10 3a 	addi    r16,r16,-4
    2ed8:	01 00 25 39 	addi    r9,r5,1
    2edc:	02 00 10 e9 	lwa     r8,0(r16)
    2ee0:	03 00 60 38 	li      r3,3
    2ee4:	00 00 3f 91 	stw     r9,0(r31)
    2ee8:	78 cb 3c 7f 	mr      r28,r25
    2eec:	14 00 15 91 	stw     r8,20(r21)
    2ef0:	00 00 50 91 	stw     r10,0(r16)
    2ef4:	95 f5 ff 4b 	bl      2488 <Permute+0x8>
    2ef8:	12 00 55 e9 	lwa     r10,16(r21)
    2efc:	fc ff 9c 3b 	addi    r28,r28,-4
    2f00:	00 00 3f 81 	lwz     r9,0(r31)
    2f04:	02 00 60 38 	li      r3,2
    2f08:	02 00 1c e9 	lwa     r8,0(r28)
    2f0c:	02 00 c0 3a 	li      r22,2
    2f10:	02 00 20 3a 	li      r17,2
    2f14:	01 00 29 39 	addi    r9,r9,1
    2f18:	10 00 15 91 	stw     r8,16(r21)
    2f1c:	00 00 5c 91 	stw     r10,0(r28)
    2f20:	00 00 3f 91 	stw     r9,0(r31)
    2f24:	65 f5 ff 4b 	bl      2488 <Permute+0x8>
    2f28:	0e 00 55 e9 	lwa     r10,12(r21)
    2f2c:	64 17 31 7a 	rldicr  r17,r17,2,61
    2f30:	00 00 3f 81 	lwz     r9,0(r31)
    2f34:	01 00 60 38 	li      r3,1
    2f38:	aa 8a 15 7d 	lwax    r8,r21,r17
    2f3c:	01 00 29 39 	addi    r9,r9,1
    2f40:	0c 00 15 91 	stw     r8,12(r21)
    2f44:	00 00 3f 91 	stw     r9,0(r31)
    2f48:	2e 89 55 7d 	stwx    r10,r21,r17
    2f4c:	3d f5 ff 4b 	bl      2488 <Permute+0x8>
    2f50:	aa 8a 15 7d 	lwax    r8,r21,r17
    2f54:	00 00 3f 81 	lwz     r9,0(r31)
    2f58:	01 00 96 2b 	cmplwi  cr7,r22,1
    2f5c:	0e 00 55 e9 	lwa     r10,12(r21)
    2f60:	01 00 29 39 	addi    r9,r9,1
    2f64:	0c 00 15 91 	stw     r8,12(r21)
    2f68:	b4 07 25 7d 	extsw   r5,r9
    2f6c:	2e 89 55 7d 	stwx    r10,r21,r17
    2f70:	01 00 20 3a 	li      r17,1
    2f74:	00 00 3f 91 	stw     r9,0(r31)
    2f78:	fc 11 9e 40 	bne     cr7,4174 <Perm+0x1c94>
    2f7c:	12 00 35 e9 	lwa     r9,16(r21)
    2f80:	40 e0 bd 7f 	cmpld   cr7,r29,r28
    2f84:	02 00 5c e9 	lwa     r10,0(r28)
    2f88:	10 00 55 91 	stw     r10,16(r21)
    2f8c:	00 00 3c 91 	stw     r9,0(r28)
    2f90:	68 ff 9e 40 	bne     cr7,2ef8 <Perm+0xa18>
    2f94:	16 00 35 e9 	lwa     r9,20(r21)
    2f98:	40 80 bd 7f 	cmpld   cr7,r29,r16
    2f9c:	02 00 50 e9 	lwa     r10,0(r16)
    2fa0:	14 00 55 91 	stw     r10,20(r21)
    2fa4:	00 00 30 91 	stw     r9,0(r16)
    2fa8:	28 ff 9e 40 	bne     cr7,2ed0 <Perm+0x9f0>
    2fac:	1a 00 35 e9 	lwa     r9,24(r21)
    2fb0:	40 78 bd 7f 	cmpld   cr7,r29,r15
    2fb4:	88 00 c1 fa 	std     r22,136(r1)
    2fb8:	02 00 4f e9 	lwa     r10,0(r15)
    2fbc:	18 00 55 91 	stw     r10,24(r21)
    2fc0:	00 00 2f 91 	stw     r9,0(r15)
    2fc4:	44 fe 9e 40 	bne     cr7,2e08 <Perm+0x928>
    2fc8:	1e 00 35 e9 	lwa     r9,28(r21)
    2fcc:	40 90 bd 7f 	cmpld   cr7,r29,r18
    2fd0:	02 00 52 e9 	lwa     r10,0(r18)
    2fd4:	1c 00 55 91 	stw     r10,28(r21)
    2fd8:	00 00 32 91 	stw     r9,0(r18)
    2fdc:	1c fd 9e 40 	bne     cr7,2cf8 <Perm+0x818>
    2fe0:	22 00 35 e9 	lwa     r9,32(r21)
    2fe4:	40 e8 ae 7f 	cmpld   cr7,r14,r29
    2fe8:	02 00 4e e9 	lwa     r10,0(r14)
    2fec:	20 00 55 91 	stw     r10,32(r21)
    2ff0:	00 00 2e 91 	stw     r9,0(r14)
    2ff4:	ac fb 9e 40 	bne     cr7,2ba0 <Perm+0x6c0>
    2ff8:	26 00 35 e9 	lwa     r9,36(r21)
    2ffc:	40 f0 bd 7f 	cmpld   cr7,r29,r30
    3000:	02 00 5e e9 	lwa     r10,0(r30)
    3004:	24 00 55 91 	stw     r10,36(r21)
    3008:	00 00 3e 91 	stw     r9,0(r30)
    300c:	04 fa 9e 40 	bne     cr7,2a10 <Perm+0x530>
    3010:	70 00 c1 eb 	ld      r30,112(r1)
    3014:	00 00 00 60 	nop
    3018:	00 00 00 60 	nop
    301c:	00 00 42 60 	ori     r2,r2,0
    3020:	2a 00 35 e9 	lwa     r9,40(r21)
    3024:	fc ff de 3b 	addi    r30,r30,-4
    3028:	04 00 a5 38 	addi    r5,r5,4
    302c:	02 00 5e e9 	lwa     r10,0(r30)
    3030:	06 00 60 38 	li      r3,6
    3034:	78 d3 5c 7f 	mr      r28,r26
    3038:	00 00 bf 90 	stw     r5,0(r31)
    303c:	28 00 55 91 	stw     r10,40(r21)
    3040:	00 00 3e 91 	stw     r9,0(r30)
    3044:	85 e3 ff 4b 	bl      13c8 <Permute.part.0+0x8>
    3048:	1e 00 55 e9 	lwa     r10,28(r21)
    304c:	fc ff 9c 3b 	addi    r28,r28,-4
    3050:	00 00 3f 81 	lwz     r9,0(r31)
    3054:	05 00 60 38 	li      r3,5
    3058:	02 00 1c e9 	lwa     r8,0(r28)
    305c:	78 c3 16 7f 	mr      r22,r24
    3060:	02 00 29 39 	addi    r9,r9,2
    3064:	1c 00 15 91 	stw     r8,28(r21)
    3068:	00 00 5c 91 	stw     r10,0(r28)
    306c:	00 00 3f 91 	stw     r9,0(r31)
    3070:	59 e3 ff 4b 	bl      13c8 <Permute.part.0+0x8>
    3074:	1a 00 55 e9 	lwa     r10,24(r21)
    3078:	fc ff d6 3a 	addi    r22,r22,-4
    307c:	00 00 3f 81 	lwz     r9,0(r31)
    3080:	04 00 60 38 	li      r3,4
    3084:	02 00 16 e9 	lwa     r8,0(r22)
    3088:	78 bb f3 7e 	mr      r19,r23
    308c:	02 00 29 39 	addi    r9,r9,2
    3090:	18 00 15 91 	stw     r8,24(r21)
    3094:	00 00 56 91 	stw     r10,0(r22)
    3098:	00 00 3f 91 	stw     r9,0(r31)
    309c:	2d e3 ff 4b 	bl      13c8 <Permute.part.0+0x8>
    30a0:	16 00 55 e9 	lwa     r10,20(r21)
    30a4:	fc ff 73 3a 	addi    r19,r19,-4
    30a8:	00 00 3f 81 	lwz     r9,0(r31)
    30ac:	03 00 60 38 	li      r3,3
    30b0:	02 00 13 e9 	lwa     r8,0(r19)
    30b4:	78 cb 32 7f 	mr      r18,r25
    30b8:	02 00 29 39 	addi    r9,r9,2
    30bc:	14 00 15 91 	stw     r8,20(r21)
    30c0:	00 00 53 91 	stw     r10,0(r19)
    30c4:	00 00 3f 91 	stw     r9,0(r31)
    30c8:	01 e3 ff 4b 	bl      13c8 <Permute.part.0+0x8>
    30cc:	12 00 55 e9 	lwa     r10,16(r21)
    30d0:	fc ff 52 3a 	addi    r18,r18,-4
    30d4:	00 00 3f 81 	lwz     r9,0(r31)
    30d8:	02 00 60 38 	li      r3,2
    30dc:	02 00 12 e9 	lwa     r8,0(r18)
    30e0:	01 00 29 39 	addi    r9,r9,1
    30e4:	10 00 15 91 	stw     r8,16(r21)
    30e8:	00 00 52 91 	stw     r10,0(r18)
    30ec:	02 00 40 39 	li      r10,2
    30f0:	00 00 3f 91 	stw     r9,0(r31)
    30f4:	98 00 41 f9 	std     r10,152(r1)
    30f8:	91 f3 ff 4b 	bl      2488 <Permute+0x8>
    30fc:	02 00 20 39 	li      r9,2
    3100:	0e 00 55 e9 	lwa     r10,12(r21)
    3104:	64 17 31 79 	rldicr  r17,r9,2,61
    3108:	00 00 3f 81 	lwz     r9,0(r31)
    310c:	02 00 60 38 	li      r3,2
    3110:	aa 8a 15 7d 	lwax    r8,r21,r17
    3114:	01 00 29 39 	addi    r9,r9,1
    3118:	0c 00 15 91 	stw     r8,12(r21)
    311c:	00 00 3f 91 	stw     r9,0(r31)
    3120:	2e 89 55 7d 	stwx    r10,r21,r17
    3124:	a5 e2 ff 4b 	bl      13c8 <Permute.part.0+0x8>
    3128:	aa 8a 15 7d 	lwax    r8,r21,r17
    312c:	98 00 21 81 	lwz     r9,152(r1)
    3130:	0e 00 55 e9 	lwa     r10,12(r21)
    3134:	01 00 89 2b 	cmplwi  cr7,r9,1
    3138:	0c 00 15 91 	stw     r8,12(r21)
    313c:	01 00 20 39 	li      r9,1
    3140:	2e 89 55 7d 	stwx    r10,r21,r17
    3144:	24 10 9e 40 	bne     cr7,4168 <Perm+0x1c88>
    3148:	12 00 35 e9 	lwa     r9,16(r21)
    314c:	40 90 bd 7f 	cmpld   cr7,r29,r18
    3150:	02 00 52 e9 	lwa     r10,0(r18)
    3154:	10 00 55 91 	stw     r10,16(r21)
    3158:	00 00 32 91 	stw     r9,0(r18)
    315c:	70 ff 9e 40 	bne     cr7,30cc <Perm+0xbec>
    3160:	16 00 35 e9 	lwa     r9,20(r21)
    3164:	40 98 bd 7f 	cmpld   cr7,r29,r19
    3168:	02 00 53 e9 	lwa     r10,0(r19)
    316c:	14 00 55 91 	stw     r10,20(r21)
    3170:	00 00 33 91 	stw     r9,0(r19)
    3174:	2c ff 9e 40 	bne     cr7,30a0 <Perm+0xbc0>
    3178:	1a 00 35 e9 	lwa     r9,24(r21)
    317c:	40 b0 bd 7f 	cmpld   cr7,r29,r22
    3180:	02 00 56 e9 	lwa     r10,0(r22)
    3184:	18 00 55 91 	stw     r10,24(r21)
    3188:	00 00 36 91 	stw     r9,0(r22)
    318c:	e8 fe 9e 40 	bne     cr7,3074 <Perm+0xb94>
    3190:	1e 00 35 e9 	lwa     r9,28(r21)
    3194:	40 e0 bd 7f 	cmpld   cr7,r29,r28
    3198:	02 00 5c e9 	lwa     r10,0(r28)
    319c:	1c 00 55 91 	stw     r10,28(r21)
    31a0:	00 00 3c 91 	stw     r9,0(r28)
    31a4:	a4 fe 9e 40 	bne     cr7,3048 <Perm+0xb68>
    31a8:	02 00 bf e8 	lwa     r5,0(r31)
    31ac:	68 00 81 eb 	ld      r28,104(r1)
    31b0:	22 00 35 e9 	lwa     r9,32(r21)
    31b4:	fc ff 9c 3b 	addi    r28,r28,-4
    31b8:	02 00 5c e9 	lwa     r10,0(r28)
    31bc:	03 00 a5 38 	addi    r5,r5,3
    31c0:	05 00 60 38 	li      r3,5
    31c4:	00 00 bf 90 	stw     r5,0(r31)
    31c8:	78 c3 16 7f 	mr      r22,r24
    31cc:	20 00 55 91 	stw     r10,32(r21)
    31d0:	00 00 3c 91 	stw     r9,0(r28)
    31d4:	f5 e1 ff 4b 	bl      13c8 <Permute.part.0+0x8>
    31d8:	1a 00 55 e9 	lwa     r10,24(r21)
    31dc:	fc ff d6 3a 	addi    r22,r22,-4
    31e0:	00 00 3f 81 	lwz     r9,0(r31)
    31e4:	04 00 60 38 	li      r3,4
    31e8:	02 00 16 e9 	lwa     r8,0(r22)
    31ec:	78 bb f3 7e 	mr      r19,r23
    31f0:	02 00 29 39 	addi    r9,r9,2
    31f4:	18 00 15 91 	stw     r8,24(r21)
    31f8:	00 00 56 91 	stw     r10,0(r22)
    31fc:	00 00 3f 91 	stw     r9,0(r31)
    3200:	c9 e1 ff 4b 	bl      13c8 <Permute.part.0+0x8>
    3204:	16 00 55 e9 	lwa     r10,20(r21)
    3208:	fc ff 73 3a 	addi    r19,r19,-4
    320c:	00 00 3f 81 	lwz     r9,0(r31)
    3210:	03 00 60 38 	li      r3,3
    3214:	02 00 13 e9 	lwa     r8,0(r19)
    3218:	78 cb 32 7f 	mr      r18,r25
    321c:	02 00 29 39 	addi    r9,r9,2
    3220:	14 00 15 91 	stw     r8,20(r21)
    3224:	00 00 53 91 	stw     r10,0(r19)
    3228:	00 00 3f 91 	stw     r9,0(r31)
    322c:	9d e1 ff 4b 	bl      13c8 <Permute.part.0+0x8>
    3230:	12 00 55 e9 	lwa     r10,16(r21)
    3234:	fc ff 52 3a 	addi    r18,r18,-4
    3238:	00 00 3f 81 	lwz     r9,0(r31)
    323c:	02 00 60 38 	li      r3,2
    3240:	02 00 12 e9 	lwa     r8,0(r18)
    3244:	02 00 20 3a 	li      r17,2
    3248:	01 00 29 39 	addi    r9,r9,1
    324c:	10 00 15 91 	stw     r8,16(r21)
    3250:	00 00 52 91 	stw     r10,0(r18)
    3254:	02 00 40 39 	li      r10,2
    3258:	00 00 3f 91 	stw     r9,0(r31)
    325c:	a0 00 41 f9 	std     r10,160(r1)
    3260:	29 f2 ff 4b 	bl      2488 <Permute+0x8>
    3264:	0e 00 55 e9 	lwa     r10,12(r21)
    3268:	64 17 31 7a 	rldicr  r17,r17,2,61
    326c:	00 00 3f 81 	lwz     r9,0(r31)
    3270:	01 00 60 38 	li      r3,1
    3274:	aa 8a 15 7d 	lwax    r8,r21,r17
    3278:	01 00 29 39 	addi    r9,r9,1
    327c:	0c 00 15 91 	stw     r8,12(r21)
    3280:	00 00 3f 91 	stw     r9,0(r31)
    3284:	2e 89 55 7d 	stwx    r10,r21,r17
    3288:	01 f2 ff 4b 	bl      2488 <Permute+0x8>
    328c:	aa 8a 55 7d 	lwax    r10,r21,r17
    3290:	a0 00 21 81 	lwz     r9,160(r1)
    3294:	00 00 bf 80 	lwz     r5,0(r31)
    3298:	01 00 89 2b 	cmplwi  cr7,r9,1
    329c:	01 00 a5 38 	addi    r5,r5,1
    32a0:	0e 00 35 e9 	lwa     r9,12(r21)
    32a4:	0c 00 55 91 	stw     r10,12(r21)
    32a8:	00 00 bf 90 	stw     r5,0(r31)
    32ac:	b4 07 a5 7c 	extsw   r5,r5
    32b0:	2e 89 35 7d 	stwx    r9,r21,r17
    32b4:	01 00 20 3a 	li      r17,1
    32b8:	a4 0e 9e 40 	bne     cr7,415c <Perm+0x1c7c>
    32bc:	12 00 35 e9 	lwa     r9,16(r21)
    32c0:	40 90 bd 7f 	cmpld   cr7,r29,r18
    32c4:	02 00 52 e9 	lwa     r10,0(r18)
    32c8:	10 00 55 91 	stw     r10,16(r21)
    32cc:	00 00 32 91 	stw     r9,0(r18)
    32d0:	60 ff 9e 40 	bne     cr7,3230 <Perm+0xd50>
    32d4:	16 00 35 e9 	lwa     r9,20(r21)
    32d8:	40 98 bd 7f 	cmpld   cr7,r29,r19
    32dc:	02 00 53 e9 	lwa     r10,0(r19)
    32e0:	14 00 55 91 	stw     r10,20(r21)
    32e4:	00 00 33 91 	stw     r9,0(r19)
    32e8:	1c ff 9e 40 	bne     cr7,3204 <Perm+0xd24>
    32ec:	1a 00 35 e9 	lwa     r9,24(r21)
    32f0:	40 b0 bd 7f 	cmpld   cr7,r29,r22
    32f4:	02 00 56 e9 	lwa     r10,0(r22)
    32f8:	18 00 55 91 	stw     r10,24(r21)
    32fc:	00 00 36 91 	stw     r9,0(r22)
    3300:	d8 fe 9e 40 	bne     cr7,31d8 <Perm+0xcf8>
    3304:	78 d3 51 7f 	mr      r17,r26
    3308:	1e 00 35 e9 	lwa     r9,28(r21)
    330c:	fc ff 31 3a 	addi    r17,r17,-4
    3310:	03 00 a5 38 	addi    r5,r5,3
    3314:	02 00 51 e9 	lwa     r10,0(r17)
    3318:	04 00 60 38 	li      r3,4
    331c:	00 00 bf 90 	stw     r5,0(r31)
    3320:	78 bb f6 7e 	mr      r22,r23
    3324:	1c 00 55 91 	stw     r10,28(r21)
    3328:	00 00 31 91 	stw     r9,0(r17)
    332c:	9d e0 ff 4b 	bl      13c8 <Permute.part.0+0x8>
    3330:	16 00 55 e9 	lwa     r10,20(r21)
    3334:	fc ff d6 3a 	addi    r22,r22,-4
    3338:	00 00 3f 81 	lwz     r9,0(r31)
    333c:	03 00 60 38 	li      r3,3
    3340:	02 00 16 e9 	lwa     r8,0(r22)
    3344:	78 cb 33 7f 	mr      r19,r25
    3348:	02 00 29 39 	addi    r9,r9,2
    334c:	14 00 15 91 	stw     r8,20(r21)
    3350:	00 00 56 91 	stw     r10,0(r22)
    3354:	00 00 3f 91 	stw     r9,0(r31)
    3358:	71 e0 ff 4b 	bl      13c8 <Permute.part.0+0x8>
    335c:	12 00 55 e9 	lwa     r10,16(r21)
    3360:	fc ff 73 3a 	addi    r19,r19,-4
    3364:	00 00 3f 81 	lwz     r9,0(r31)
    3368:	02 00 60 38 	li      r3,2
    336c:	02 00 13 e9 	lwa     r8,0(r19)
    3370:	02 00 00 3a 	li      r16,2
    3374:	02 00 40 3a 	li      r18,2
    3378:	01 00 29 39 	addi    r9,r9,1
    337c:	10 00 15 91 	stw     r8,16(r21)
    3380:	00 00 53 91 	stw     r10,0(r19)
    3384:	00 00 3f 91 	stw     r9,0(r31)
    3388:	01 f1 ff 4b 	bl      2488 <Permute+0x8>
    338c:	0e 00 55 e9 	lwa     r10,12(r21)
    3390:	64 17 52 7a 	rldicr  r18,r18,2,61
    3394:	00 00 3f 81 	lwz     r9,0(r31)
    3398:	01 00 60 38 	li      r3,1
    339c:	aa 92 15 7d 	lwax    r8,r21,r18
    33a0:	01 00 29 39 	addi    r9,r9,1
    33a4:	0c 00 15 91 	stw     r8,12(r21)
    33a8:	00 00 3f 91 	stw     r9,0(r31)
    33ac:	2e 91 55 7d 	stwx    r10,r21,r18
    33b0:	d9 f0 ff 4b 	bl      2488 <Permute+0x8>
    33b4:	aa 92 15 7d 	lwax    r8,r21,r18
    33b8:	00 00 3f 81 	lwz     r9,0(r31)
    33bc:	01 00 90 2b 	cmplwi  cr7,r16,1
    33c0:	0e 00 55 e9 	lwa     r10,12(r21)
    33c4:	01 00 29 39 	addi    r9,r9,1
    33c8:	0c 00 15 91 	stw     r8,12(r21)
    33cc:	b4 07 25 7d 	extsw   r5,r9
    33d0:	2e 91 55 7d 	stwx    r10,r21,r18
    33d4:	01 00 40 3a 	li      r18,1
    33d8:	00 00 3f 91 	stw     r9,0(r31)
    33dc:	78 0d 9e 40 	bne     cr7,4154 <Perm+0x1c74>
    33e0:	12 00 35 e9 	lwa     r9,16(r21)
    33e4:	40 98 bd 7f 	cmpld   cr7,r29,r19
    33e8:	02 00 53 e9 	lwa     r10,0(r19)
    33ec:	10 00 55 91 	stw     r10,16(r21)
    33f0:	00 00 33 91 	stw     r9,0(r19)
    33f4:	68 ff 9e 40 	bne     cr7,335c <Perm+0xe7c>
    33f8:	16 00 35 e9 	lwa     r9,20(r21)
    33fc:	40 b0 bd 7f 	cmpld   cr7,r29,r22
    3400:	02 00 56 e9 	lwa     r10,0(r22)
    3404:	14 00 55 91 	stw     r10,20(r21)
    3408:	00 00 36 91 	stw     r9,0(r22)
    340c:	24 ff 9e 40 	bne     cr7,3330 <Perm+0xe50>
    3410:	a8 00 01 fa 	std     r16,168(r1)
    3414:	78 c3 0e 7f 	mr      r14,r24
    3418:	1a 00 35 e9 	lwa     r9,24(r21)
    341c:	fc ff ce 39 	addi    r14,r14,-4
    3420:	03 00 a5 38 	addi    r5,r5,3
    3424:	02 00 4e e9 	lwa     r10,0(r14)
    3428:	03 00 60 38 	li      r3,3
    342c:	00 00 bf 90 	stw     r5,0(r31)
    3430:	78 cb 36 7f 	mr      r22,r25
    3434:	18 00 55 91 	stw     r10,24(r21)
    3438:	00 00 2e 91 	stw     r9,0(r14)
    343c:	8d df ff 4b 	bl      13c8 <Permute.part.0+0x8>
    3440:	12 00 55 e9 	lwa     r10,16(r21)
    3444:	fc ff d6 3a 	addi    r22,r22,-4
    3448:	00 00 3f 81 	lwz     r9,0(r31)
    344c:	02 00 60 38 	li      r3,2
    3450:	02 00 16 e9 	lwa     r8,0(r22)
    3454:	02 00 40 3a 	li      r18,2
    3458:	02 00 60 3a 	li      r19,2
    345c:	02 00 29 39 	addi    r9,r9,2
    3460:	10 00 15 91 	stw     r8,16(r21)
    3464:	00 00 56 91 	stw     r10,0(r22)
    3468:	00 00 3f 91 	stw     r9,0(r31)
    346c:	5d df ff 4b 	bl      13c8 <Permute.part.0+0x8>
    3470:	0e 00 55 e9 	lwa     r10,12(r21)
    3474:	64 17 73 7a 	rldicr  r19,r19,2,61
    3478:	00 00 3f 81 	lwz     r9,0(r31)
    347c:	01 00 60 38 	li      r3,1
    3480:	aa 9a 15 7d 	lwax    r8,r21,r19
    3484:	01 00 29 39 	addi    r9,r9,1
    3488:	0c 00 15 91 	stw     r8,12(r21)
    348c:	00 00 3f 91 	stw     r9,0(r31)
    3490:	2e 99 55 7d 	stwx    r10,r21,r19
    3494:	f5 ef ff 4b 	bl      2488 <Permute+0x8>
    3498:	aa 9a 15 7d 	lwax    r8,r21,r19
    349c:	00 00 3f 81 	lwz     r9,0(r31)
    34a0:	01 00 92 2b 	cmplwi  cr7,r18,1
    34a4:	0e 00 55 e9 	lwa     r10,12(r21)
    34a8:	01 00 29 39 	addi    r9,r9,1
    34ac:	0c 00 15 91 	stw     r8,12(r21)
    34b0:	b4 07 25 7d 	extsw   r5,r9
    34b4:	2e 99 55 7d 	stwx    r10,r21,r19
    34b8:	01 00 60 3a 	li      r19,1
    34bc:	00 00 3f 91 	stw     r9,0(r31)
    34c0:	8c 0c 9e 40 	bne     cr7,414c <Perm+0x1c6c>
    34c4:	12 00 35 e9 	lwa     r9,16(r21)
    34c8:	40 b0 bd 7f 	cmpld   cr7,r29,r22
    34cc:	02 00 56 e9 	lwa     r10,0(r22)
    34d0:	10 00 55 91 	stw     r10,16(r21)
    34d4:	00 00 36 91 	stw     r9,0(r22)
    34d8:	68 ff 9e 40 	bne     cr7,3440 <Perm+0xf60>
    34dc:	78 bb ef 7e 	mr      r15,r23
    34e0:	16 00 55 e9 	lwa     r10,20(r21)
    34e4:	fc ff ef 39 	addi    r15,r15,-4
    34e8:	01 00 25 39 	addi    r9,r5,1
    34ec:	02 00 0f e9 	lwa     r8,0(r15)
    34f0:	03 00 60 38 	li      r3,3
    34f4:	00 00 3f 91 	stw     r9,0(r31)
    34f8:	78 cb 36 7f 	mr      r22,r25
    34fc:	14 00 15 91 	stw     r8,20(r21)
    3500:	00 00 4f 91 	stw     r10,0(r15)
    3504:	85 ef ff 4b 	bl      2488 <Permute+0x8>
    3508:	12 00 55 e9 	lwa     r10,16(r21)
    350c:	fc ff d6 3a 	addi    r22,r22,-4
    3510:	00 00 3f 81 	lwz     r9,0(r31)
    3514:	02 00 60 38 	li      r3,2
    3518:	02 00 16 e9 	lwa     r8,0(r22)
    351c:	02 00 60 3a 	li      r19,2
    3520:	02 00 00 3a 	li      r16,2
    3524:	01 00 29 39 	addi    r9,r9,1
    3528:	10 00 15 91 	stw     r8,16(r21)
    352c:	00 00 56 91 	stw     r10,0(r22)
    3530:	00 00 3f 91 	stw     r9,0(r31)
    3534:	55 ef ff 4b 	bl      2488 <Permute+0x8>
    3538:	0e 00 55 e9 	lwa     r10,12(r21)
    353c:	64 17 10 7a 	rldicr  r16,r16,2,61
    3540:	00 00 3f 81 	lwz     r9,0(r31)
    3544:	01 00 60 38 	li      r3,1
    3548:	aa 82 15 7d 	lwax    r8,r21,r16
    354c:	01 00 29 39 	addi    r9,r9,1
    3550:	0c 00 15 91 	stw     r8,12(r21)
    3554:	00 00 3f 91 	stw     r9,0(r31)
    3558:	2e 81 55 7d 	stwx    r10,r21,r16
    355c:	2d ef ff 4b 	bl      2488 <Permute+0x8>
    3560:	aa 82 15 7d 	lwax    r8,r21,r16
    3564:	00 00 3f 81 	lwz     r9,0(r31)
    3568:	01 00 93 2b 	cmplwi  cr7,r19,1
    356c:	0e 00 55 e9 	lwa     r10,12(r21)
    3570:	01 00 29 39 	addi    r9,r9,1
    3574:	0c 00 15 91 	stw     r8,12(r21)
    3578:	b4 07 25 7d 	extsw   r5,r9
    357c:	2e 81 55 7d 	stwx    r10,r21,r16
    3580:	01 00 00 3a 	li      r16,1
    3584:	00 00 3f 91 	stw     r9,0(r31)
    3588:	bc 0b 9e 40 	bne     cr7,4144 <Perm+0x1c64>
    358c:	12 00 35 e9 	lwa     r9,16(r21)
    3590:	40 b0 bd 7f 	cmpld   cr7,r29,r22
    3594:	02 00 56 e9 	lwa     r10,0(r22)
    3598:	10 00 55 91 	stw     r10,16(r21)
    359c:	00 00 36 91 	stw     r9,0(r22)
    35a0:	68 ff 9e 40 	bne     cr7,3508 <Perm+0x1028>
    35a4:	16 00 35 e9 	lwa     r9,20(r21)
    35a8:	40 78 bd 7f 	cmpld   cr7,r29,r15
    35ac:	02 00 4f e9 	lwa     r10,0(r15)
    35b0:	14 00 55 91 	stw     r10,20(r21)
    35b4:	00 00 2f 91 	stw     r9,0(r15)
    35b8:	28 ff 9e 40 	bne     cr7,34e0 <Perm+0x1000>
    35bc:	1a 00 35 e9 	lwa     r9,24(r21)
    35c0:	40 70 bd 7f 	cmpld   cr7,r29,r14
    35c4:	90 00 61 fa 	std     r19,144(r1)
    35c8:	02 00 4e e9 	lwa     r10,0(r14)
    35cc:	18 00 55 91 	stw     r10,24(r21)
    35d0:	00 00 2e 91 	stw     r9,0(r14)
    35d4:	44 fe 9e 40 	bne     cr7,3418 <Perm+0xf38>
    35d8:	1e 00 35 e9 	lwa     r9,28(r21)
    35dc:	40 88 bd 7f 	cmpld   cr7,r29,r17
    35e0:	02 00 51 e9 	lwa     r10,0(r17)
    35e4:	1c 00 55 91 	stw     r10,28(r21)
    35e8:	00 00 31 91 	stw     r9,0(r17)
    35ec:	1c fd 9e 40 	bne     cr7,3308 <Perm+0xe28>
    35f0:	22 00 35 e9 	lwa     r9,32(r21)
    35f4:	40 e0 bd 7f 	cmpld   cr7,r29,r28
    35f8:	02 00 5c e9 	lwa     r10,0(r28)
    35fc:	20 00 55 91 	stw     r10,32(r21)
    3600:	00 00 3c 91 	stw     r9,0(r28)
    3604:	ac fb 9e 40 	bne     cr7,31b0 <Perm+0xcd0>
    3608:	78 00 c1 ea 	ld      r22,120(r1)
    360c:	00 00 42 60 	ori     r2,r2,0
    3610:	26 00 35 e9 	lwa     r9,36(r21)
    3614:	fc ff d6 3a 	addi    r22,r22,-4
    3618:	04 00 a5 38 	addi    r5,r5,4
    361c:	02 00 56 e9 	lwa     r10,0(r22)
    3620:	05 00 60 38 	li      r3,5
    3624:	78 c3 1c 7f 	mr      r28,r24
    3628:	00 00 bf 90 	stw     r5,0(r31)
    362c:	24 00 55 91 	stw     r10,36(r21)
    3630:	00 00 36 91 	stw     r9,0(r22)
    3634:	95 dd ff 4b 	bl      13c8 <Permute.part.0+0x8>
    3638:	1a 00 55 e9 	lwa     r10,24(r21)
    363c:	fc ff 9c 3b 	addi    r28,r28,-4
    3640:	00 00 3f 81 	lwz     r9,0(r31)
    3644:	04 00 60 38 	li      r3,4
    3648:	02 00 1c e9 	lwa     r8,0(r28)
    364c:	78 bb f3 7e 	mr      r19,r23
    3650:	02 00 29 39 	addi    r9,r9,2
    3654:	18 00 15 91 	stw     r8,24(r21)
    3658:	00 00 5c 91 	stw     r10,0(r28)
    365c:	00 00 3f 91 	stw     r9,0(r31)
    3660:	69 dd ff 4b 	bl      13c8 <Permute.part.0+0x8>
    3664:	16 00 55 e9 	lwa     r10,20(r21)
    3668:	fc ff 73 3a 	addi    r19,r19,-4
    366c:	00 00 3f 81 	lwz     r9,0(r31)
    3670:	03 00 60 38 	li      r3,3
    3674:	02 00 13 e9 	lwa     r8,0(r19)
    3678:	78 cb 32 7f 	mr      r18,r25
    367c:	02 00 29 39 	addi    r9,r9,2
    3680:	14 00 15 91 	stw     r8,20(r21)
    3684:	00 00 53 91 	stw     r10,0(r19)
    3688:	00 00 3f 91 	stw     r9,0(r31)
    368c:	3d dd ff 4b 	bl      13c8 <Permute.part.0+0x8>
    3690:	12 00 55 e9 	lwa     r10,16(r21)
    3694:	fc ff 52 3a 	addi    r18,r18,-4
    3698:	00 00 3f 81 	lwz     r9,0(r31)
    369c:	02 00 60 38 	li      r3,2
    36a0:	02 00 12 e9 	lwa     r8,0(r18)
    36a4:	02 00 20 3a 	li      r17,2
    36a8:	01 00 29 39 	addi    r9,r9,1
    36ac:	10 00 15 91 	stw     r8,16(r21)
    36b0:	00 00 52 91 	stw     r10,0(r18)
    36b4:	02 00 40 39 	li      r10,2
    36b8:	00 00 3f 91 	stw     r9,0(r31)
    36bc:	98 00 41 f9 	std     r10,152(r1)
    36c0:	c9 ed ff 4b 	bl      2488 <Permute+0x8>
    36c4:	0e 00 55 e9 	lwa     r10,12(r21)
    36c8:	64 17 31 7a 	rldicr  r17,r17,2,61
    36cc:	00 00 3f 81 	lwz     r9,0(r31)
    36d0:	01 00 60 38 	li      r3,1
    36d4:	aa 8a 15 7d 	lwax    r8,r21,r17
    36d8:	01 00 29 39 	addi    r9,r9,1
    36dc:	0c 00 15 91 	stw     r8,12(r21)
    36e0:	00 00 3f 91 	stw     r9,0(r31)
    36e4:	2e 89 55 7d 	stwx    r10,r21,r17
    36e8:	a1 ed ff 4b 	bl      2488 <Permute+0x8>
    36ec:	aa 8a 55 7d 	lwax    r10,r21,r17
    36f0:	98 00 21 81 	lwz     r9,152(r1)
    36f4:	00 00 bf 80 	lwz     r5,0(r31)
    36f8:	01 00 89 2b 	cmplwi  cr7,r9,1
    36fc:	01 00 a5 38 	addi    r5,r5,1
    3700:	0e 00 35 e9 	lwa     r9,12(r21)
    3704:	0c 00 55 91 	stw     r10,12(r21)
    3708:	00 00 bf 90 	stw     r5,0(r31)
    370c:	b4 07 a5 7c 	extsw   r5,r5
    3710:	2e 89 35 7d 	stwx    r9,r21,r17
    3714:	01 00 20 3a 	li      r17,1
    3718:	20 0a 9e 40 	bne     cr7,4138 <Perm+0x1c58>
    371c:	12 00 35 e9 	lwa     r9,16(r21)
    3720:	40 90 bd 7f 	cmpld   cr7,r29,r18
    3724:	02 00 52 e9 	lwa     r10,0(r18)
    3728:	10 00 55 91 	stw     r10,16(r21)
    372c:	00 00 32 91 	stw     r9,0(r18)
    3730:	60 ff 9e 40 	bne     cr7,3690 <Perm+0x11b0>
    3734:	16 00 35 e9 	lwa     r9,20(r21)
    3738:	40 98 bd 7f 	cmpld   cr7,r29,r19
    373c:	02 00 53 e9 	lwa     r10,0(r19)
    3740:	14 00 55 91 	stw     r10,20(r21)
    3744:	00 00 33 91 	stw     r9,0(r19)
    3748:	1c ff 9e 40 	bne     cr7,3664 <Perm+0x1184>
    374c:	1a 00 35 e9 	lwa     r9,24(r21)
    3750:	40 e0 bd 7f 	cmpld   cr7,r29,r28
    3754:	02 00 5c e9 	lwa     r10,0(r28)
    3758:	18 00 55 91 	stw     r10,24(r21)
    375c:	00 00 3c 91 	stw     r9,0(r28)
    3760:	d8 fe 9e 40 	bne     cr7,3638 <Perm+0x1158>
    3764:	78 d3 5c 7f 	mr      r28,r26
    3768:	1e 00 35 e9 	lwa     r9,28(r21)
    376c:	fc ff 9c 3b 	addi    r28,r28,-4
    3770:	03 00 a5 38 	addi    r5,r5,3
    3774:	02 00 5c e9 	lwa     r10,0(r28)
    3778:	04 00 60 38 	li      r3,4
    377c:	00 00 bf 90 	stw     r5,0(r31)
    3780:	78 bb f3 7e 	mr      r19,r23
    3784:	1c 00 55 91 	stw     r10,28(r21)
    3788:	00 00 3c 91 	stw     r9,0(r28)
    378c:	3d dc ff 4b 	bl      13c8 <Permute.part.0+0x8>
    3790:	16 00 55 e9 	lwa     r10,20(r21)
    3794:	fc ff 73 3a 	addi    r19,r19,-4
    3798:	00 00 3f 81 	lwz     r9,0(r31)
    379c:	03 00 60 38 	li      r3,3
    37a0:	02 00 13 e9 	lwa     r8,0(r19)
    37a4:	78 cb 32 7f 	mr      r18,r25
    37a8:	01 00 29 39 	addi    r9,r9,1
    37ac:	14 00 15 91 	stw     r8,20(r21)
    37b0:	00 00 53 91 	stw     r10,0(r19)
    37b4:	00 00 3f 91 	stw     r9,0(r31)
    37b8:	d1 ec ff 4b 	bl      2488 <Permute+0x8>
    37bc:	12 00 55 e9 	lwa     r10,16(r21)
    37c0:	fc ff 52 3a 	addi    r18,r18,-4
    37c4:	00 00 3f 81 	lwz     r9,0(r31)
    37c8:	02 00 60 38 	li      r3,2
    37cc:	02 00 12 e9 	lwa     r8,0(r18)
    37d0:	02 00 00 3a 	li      r16,2
    37d4:	02 00 20 3a 	li      r17,2
    37d8:	01 00 29 39 	addi    r9,r9,1
    37dc:	10 00 15 91 	stw     r8,16(r21)
    37e0:	00 00 52 91 	stw     r10,0(r18)
    37e4:	00 00 3f 91 	stw     r9,0(r31)
    37e8:	a1 ec ff 4b 	bl      2488 <Permute+0x8>
    37ec:	0e 00 55 e9 	lwa     r10,12(r21)
    37f0:	64 17 31 7a 	rldicr  r17,r17,2,61
    37f4:	00 00 3f 81 	lwz     r9,0(r31)
    37f8:	01 00 60 38 	li      r3,1
    37fc:	aa 8a 15 7d 	lwax    r8,r21,r17
    3800:	01 00 29 39 	addi    r9,r9,1
    3804:	0c 00 15 91 	stw     r8,12(r21)
    3808:	00 00 3f 91 	stw     r9,0(r31)
    380c:	2e 89 55 7d 	stwx    r10,r21,r17
    3810:	79 ec ff 4b 	bl      2488 <Permute+0x8>
    3814:	aa 8a 15 7d 	lwax    r8,r21,r17
    3818:	00 00 3f 81 	lwz     r9,0(r31)
    381c:	01 00 90 2b 	cmplwi  cr7,r16,1
    3820:	0e 00 55 e9 	lwa     r10,12(r21)
    3824:	01 00 29 39 	addi    r9,r9,1
    3828:	0c 00 15 91 	stw     r8,12(r21)
    382c:	b4 07 25 7d 	extsw   r5,r9
    3830:	2e 89 55 7d 	stwx    r10,r21,r17
    3834:	01 00 20 3a 	li      r17,1
    3838:	00 00 3f 91 	stw     r9,0(r31)
    383c:	f4 08 9e 40 	bne     cr7,4130 <Perm+0x1c50>
    3840:	12 00 35 e9 	lwa     r9,16(r21)
    3844:	40 90 bd 7f 	cmpld   cr7,r29,r18
    3848:	02 00 52 e9 	lwa     r10,0(r18)
    384c:	10 00 55 91 	stw     r10,16(r21)
    3850:	00 00 32 91 	stw     r9,0(r18)
    3854:	68 ff 9e 40 	bne     cr7,37bc <Perm+0x12dc>
    3858:	16 00 35 e9 	lwa     r9,20(r21)
    385c:	40 98 bd 7f 	cmpld   cr7,r29,r19
    3860:	a0 00 01 fa 	std     r16,160(r1)
    3864:	02 00 53 e9 	lwa     r10,0(r19)
    3868:	14 00 55 91 	stw     r10,20(r21)
    386c:	00 00 33 91 	stw     r9,0(r19)
    3870:	20 ff 9e 40 	bne     cr7,3790 <Perm+0x12b0>
    3874:	78 c3 0e 7f 	mr      r14,r24
    3878:	1a 00 35 e9 	lwa     r9,24(r21)
    387c:	fc ff ce 39 	addi    r14,r14,-4
    3880:	03 00 a5 38 	addi    r5,r5,3
    3884:	02 00 4e e9 	lwa     r10,0(r14)
    3888:	03 00 60 38 	li      r3,3
    388c:	00 00 bf 90 	stw     r5,0(r31)
    3890:	78 cb 33 7f 	mr      r19,r25
    3894:	18 00 55 91 	stw     r10,24(r21)
    3898:	00 00 2e 91 	stw     r9,0(r14)
    389c:	2d db ff 4b 	bl      13c8 <Permute.part.0+0x8>
    38a0:	12 00 55 e9 	lwa     r10,16(r21)
    38a4:	fc ff 73 3a 	addi    r19,r19,-4
    38a8:	00 00 3f 81 	lwz     r9,0(r31)
    38ac:	02 00 60 38 	li      r3,2
    38b0:	02 00 13 e9 	lwa     r8,0(r19)
    38b4:	02 00 40 3a 	li      r18,2
    38b8:	02 00 20 3a 	li      r17,2
    38bc:	02 00 29 39 	addi    r9,r9,2
    38c0:	10 00 15 91 	stw     r8,16(r21)
    38c4:	00 00 53 91 	stw     r10,0(r19)
    38c8:	00 00 3f 91 	stw     r9,0(r31)
    38cc:	fd da ff 4b 	bl      13c8 <Permute.part.0+0x8>
    38d0:	0e 00 55 e9 	lwa     r10,12(r21)
    38d4:	64 17 31 7a 	rldicr  r17,r17,2,61
    38d8:	00 00 3f 81 	lwz     r9,0(r31)
    38dc:	01 00 60 38 	li      r3,1
    38e0:	aa 8a 15 7d 	lwax    r8,r21,r17
    38e4:	01 00 29 39 	addi    r9,r9,1
    38e8:	0c 00 15 91 	stw     r8,12(r21)
    38ec:	00 00 3f 91 	stw     r9,0(r31)
    38f0:	2e 89 55 7d 	stwx    r10,r21,r17
    38f4:	95 eb ff 4b 	bl      2488 <Permute+0x8>
    38f8:	aa 8a 15 7d 	lwax    r8,r21,r17
    38fc:	00 00 3f 81 	lwz     r9,0(r31)
    3900:	01 00 92 2b 	cmplwi  cr7,r18,1
    3904:	0e 00 55 e9 	lwa     r10,12(r21)
    3908:	01 00 29 39 	addi    r9,r9,1
    390c:	0c 00 15 91 	stw     r8,12(r21)
    3910:	b4 07 25 7d 	extsw   r5,r9
    3914:	2e 89 55 7d 	stwx    r10,r21,r17
    3918:	01 00 20 3a 	li      r17,1
    391c:	00 00 3f 91 	stw     r9,0(r31)
    3920:	08 08 9e 40 	bne     cr7,4128 <Perm+0x1c48>
    3924:	12 00 35 e9 	lwa     r9,16(r21)
    3928:	40 98 bd 7f 	cmpld   cr7,r29,r19
    392c:	02 00 53 e9 	lwa     r10,0(r19)
    3930:	10 00 55 91 	stw     r10,16(r21)
    3934:	00 00 33 91 	stw     r9,0(r19)
    3938:	68 ff 9e 40 	bne     cr7,38a0 <Perm+0x13c0>
    393c:	78 bb f1 7e 	mr      r17,r23
    3940:	16 00 55 e9 	lwa     r10,20(r21)
    3944:	fc ff 31 3a 	addi    r17,r17,-4
    3948:	01 00 25 39 	addi    r9,r5,1
    394c:	02 00 11 e9 	lwa     r8,0(r17)
    3950:	03 00 60 38 	li      r3,3
    3954:	00 00 3f 91 	stw     r9,0(r31)
    3958:	78 cb 33 7f 	mr      r19,r25
    395c:	14 00 15 91 	stw     r8,20(r21)
    3960:	00 00 51 91 	stw     r10,0(r17)
    3964:	25 eb ff 4b 	bl      2488 <Permute+0x8>
    3968:	12 00 55 e9 	lwa     r10,16(r21)
    396c:	fc ff 73 3a 	addi    r19,r19,-4
    3970:	00 00 3f 81 	lwz     r9,0(r31)
    3974:	02 00 60 38 	li      r3,2
    3978:	02 00 13 e9 	lwa     r8,0(r19)
    397c:	02 00 00 3a 	li      r16,2
    3980:	02 00 e0 39 	li      r15,2
    3984:	01 00 29 39 	addi    r9,r9,1
    3988:	10 00 15 91 	stw     r8,16(r21)
    398c:	00 00 53 91 	stw     r10,0(r19)
    3990:	00 00 3f 91 	stw     r9,0(r31)
    3994:	f5 ea ff 4b 	bl      2488 <Permute+0x8>
    3998:	0e 00 55 e9 	lwa     r10,12(r21)
    399c:	64 17 ef 79 	rldicr  r15,r15,2,61
    39a0:	00 00 3f 81 	lwz     r9,0(r31)
    39a4:	01 00 60 38 	li      r3,1
    39a8:	aa 7a 15 7d 	lwax    r8,r21,r15
    39ac:	01 00 29 39 	addi    r9,r9,1
    39b0:	0c 00 15 91 	stw     r8,12(r21)
    39b4:	00 00 3f 91 	stw     r9,0(r31)
    39b8:	2e 79 55 7d 	stwx    r10,r21,r15
    39bc:	cd ea ff 4b 	bl      2488 <Permute+0x8>
    39c0:	aa 7a 15 7d 	lwax    r8,r21,r15
    39c4:	00 00 3f 81 	lwz     r9,0(r31)
    39c8:	01 00 90 2b 	cmplwi  cr7,r16,1
    39cc:	0e 00 55 e9 	lwa     r10,12(r21)
    39d0:	01 00 29 39 	addi    r9,r9,1
    39d4:	0c 00 15 91 	stw     r8,12(r21)
    39d8:	b4 07 25 7d 	extsw   r5,r9
    39dc:	2e 79 55 7d 	stwx    r10,r21,r15
    39e0:	01 00 e0 39 	li      r15,1
    39e4:	00 00 3f 91 	stw     r9,0(r31)
    39e8:	38 07 9e 40 	bne     cr7,4120 <Perm+0x1c40>
    39ec:	12 00 35 e9 	lwa     r9,16(r21)
    39f0:	40 98 bd 7f 	cmpld   cr7,r29,r19
    39f4:	02 00 53 e9 	lwa     r10,0(r19)
    39f8:	10 00 55 91 	stw     r10,16(r21)
    39fc:	00 00 33 91 	stw     r9,0(r19)
    3a00:	68 ff 9e 40 	bne     cr7,3968 <Perm+0x1488>
    3a04:	16 00 35 e9 	lwa     r9,20(r21)
    3a08:	40 88 bd 7f 	cmpld   cr7,r29,r17
    3a0c:	02 00 51 e9 	lwa     r10,0(r17)
    3a10:	14 00 55 91 	stw     r10,20(r21)
    3a14:	00 00 31 91 	stw     r9,0(r17)
    3a18:	28 ff 9e 40 	bne     cr7,3940 <Perm+0x1460>
    3a1c:	1a 00 35 e9 	lwa     r9,24(r21)
    3a20:	40 70 bd 7f 	cmpld   cr7,r29,r14
    3a24:	02 00 4e e9 	lwa     r10,0(r14)
    3a28:	18 00 55 91 	stw     r10,24(r21)
    3a2c:	00 00 2e 91 	stw     r9,0(r14)
    3a30:	48 fe 9e 40 	bne     cr7,3878 <Perm+0x1398>
    3a34:	1e 00 35 e9 	lwa     r9,28(r21)
    3a38:	40 e0 bd 7f 	cmpld   cr7,r29,r28
    3a3c:	02 00 5c e9 	lwa     r10,0(r28)
    3a40:	1c 00 55 91 	stw     r10,28(r21)
    3a44:	00 00 3c 91 	stw     r9,0(r28)
    3a48:	20 fd 9e 40 	bne     cr7,3768 <Perm+0x1288>
    3a4c:	98 00 01 fa 	std     r16,152(r1)
    3a50:	68 00 81 eb 	ld      r28,104(r1)
    3a54:	00 00 00 60 	nop
    3a58:	00 00 00 60 	nop
    3a5c:	00 00 42 60 	ori     r2,r2,0
    3a60:	22 00 35 e9 	lwa     r9,32(r21)
    3a64:	fc ff 9c 3b 	addi    r28,r28,-4
    3a68:	04 00 a5 38 	addi    r5,r5,4
    3a6c:	02 00 5c e9 	lwa     r10,0(r28)
    3a70:	04 00 60 38 	li      r3,4
    3a74:	00 00 bf 90 	stw     r5,0(r31)
    3a78:	78 bb f3 7e 	mr      r19,r23
    3a7c:	20 00 55 91 	stw     r10,32(r21)
    3a80:	00 00 3c 91 	stw     r9,0(r28)
    3a84:	45 d9 ff 4b 	bl      13c8 <Permute.part.0+0x8>
    3a88:	16 00 55 e9 	lwa     r10,20(r21)
    3a8c:	fc ff 73 3a 	addi    r19,r19,-4
    3a90:	00 00 3f 81 	lwz     r9,0(r31)
    3a94:	03 00 60 38 	li      r3,3
    3a98:	02 00 13 e9 	lwa     r8,0(r19)
    3a9c:	78 cb 32 7f 	mr      r18,r25
    3aa0:	02 00 29 39 	addi    r9,r9,2
    3aa4:	14 00 15 91 	stw     r8,20(r21)
    3aa8:	00 00 53 91 	stw     r10,0(r19)
    3aac:	00 00 3f 91 	stw     r9,0(r31)
    3ab0:	19 d9 ff 4b 	bl      13c8 <Permute.part.0+0x8>
    3ab4:	12 00 55 e9 	lwa     r10,16(r21)
    3ab8:	fc ff 52 3a 	addi    r18,r18,-4
    3abc:	00 00 3f 81 	lwz     r9,0(r31)
    3ac0:	02 00 60 38 	li      r3,2
    3ac4:	02 00 12 e9 	lwa     r8,0(r18)
    3ac8:	02 00 00 3a 	li      r16,2
    3acc:	02 00 20 3a 	li      r17,2
    3ad0:	01 00 29 39 	addi    r9,r9,1
    3ad4:	10 00 15 91 	stw     r8,16(r21)
    3ad8:	00 00 52 91 	stw     r10,0(r18)
    3adc:	00 00 3f 91 	stw     r9,0(r31)
    3ae0:	a9 e9 ff 4b 	bl      2488 <Permute+0x8>
    3ae4:	0e 00 55 e9 	lwa     r10,12(r21)
    3ae8:	64 17 31 7a 	rldicr  r17,r17,2,61
    3aec:	00 00 3f 81 	lwz     r9,0(r31)
    3af0:	01 00 60 38 	li      r3,1
    3af4:	aa 8a 15 7d 	lwax    r8,r21,r17
    3af8:	01 00 29 39 	addi    r9,r9,1
    3afc:	0c 00 15 91 	stw     r8,12(r21)
    3b00:	00 00 3f 91 	stw     r9,0(r31)
    3b04:	2e 89 55 7d 	stwx    r10,r21,r17
    3b08:	81 e9 ff 4b 	bl      2488 <Permute+0x8>
    3b0c:	aa 8a 15 7d 	lwax    r8,r21,r17
    3b10:	00 00 3f 81 	lwz     r9,0(r31)
    3b14:	01 00 90 2b 	cmplwi  cr7,r16,1
    3b18:	0e 00 55 e9 	lwa     r10,12(r21)
    3b1c:	01 00 29 39 	addi    r9,r9,1
    3b20:	0c 00 15 91 	stw     r8,12(r21)
    3b24:	b4 07 25 7d 	extsw   r5,r9
    3b28:	2e 89 55 7d 	stwx    r10,r21,r17
    3b2c:	01 00 20 3a 	li      r17,1
    3b30:	00 00 3f 91 	stw     r9,0(r31)
    3b34:	e4 05 9e 40 	bne     cr7,4118 <Perm+0x1c38>
    3b38:	12 00 35 e9 	lwa     r9,16(r21)
    3b3c:	40 90 bd 7f 	cmpld   cr7,r29,r18
    3b40:	02 00 52 e9 	lwa     r10,0(r18)
    3b44:	10 00 55 91 	stw     r10,16(r21)
    3b48:	00 00 32 91 	stw     r9,0(r18)
    3b4c:	68 ff 9e 40 	bne     cr7,3ab4 <Perm+0x15d4>
    3b50:	16 00 35 e9 	lwa     r9,20(r21)
    3b54:	40 98 bd 7f 	cmpld   cr7,r29,r19
    3b58:	a0 00 01 fa 	std     r16,160(r1)
    3b5c:	02 00 53 e9 	lwa     r10,0(r19)
    3b60:	14 00 55 91 	stw     r10,20(r21)
    3b64:	00 00 33 91 	stw     r9,0(r19)
    3b68:	20 ff 9e 40 	bne     cr7,3a88 <Perm+0x15a8>
    3b6c:	78 c3 13 7f 	mr      r19,r24
    3b70:	1a 00 35 e9 	lwa     r9,24(r21)
    3b74:	fc ff 73 3a 	addi    r19,r19,-4
    3b78:	03 00 a5 38 	addi    r5,r5,3
    3b7c:	02 00 53 e9 	lwa     r10,0(r19)
    3b80:	03 00 60 38 	li      r3,3
    3b84:	00 00 bf 90 	stw     r5,0(r31)
    3b88:	78 cb 32 7f 	mr      r18,r25
    3b8c:	18 00 55 91 	stw     r10,24(r21)
    3b90:	00 00 33 91 	stw     r9,0(r19)
    3b94:	35 d8 ff 4b 	bl      13c8 <Permute.part.0+0x8>
    3b98:	12 00 55 e9 	lwa     r10,16(r21)
    3b9c:	fc ff 52 3a 	addi    r18,r18,-4
    3ba0:	00 00 3f 81 	lwz     r9,0(r31)
    3ba4:	02 00 60 38 	li      r3,2
    3ba8:	02 00 12 e9 	lwa     r8,0(r18)
    3bac:	02 00 00 3a 	li      r16,2
    3bb0:	02 00 20 3a 	li      r17,2
    3bb4:	02 00 29 39 	addi    r9,r9,2
    3bb8:	10 00 15 91 	stw     r8,16(r21)
    3bbc:	00 00 52 91 	stw     r10,0(r18)
    3bc0:	00 00 3f 91 	stw     r9,0(r31)
    3bc4:	05 d8 ff 4b 	bl      13c8 <Permute.part.0+0x8>
    3bc8:	0e 00 55 e9 	lwa     r10,12(r21)
    3bcc:	64 17 31 7a 	rldicr  r17,r17,2,61
    3bd0:	00 00 3f 81 	lwz     r9,0(r31)
    3bd4:	01 00 60 38 	li      r3,1
    3bd8:	aa 8a 15 7d 	lwax    r8,r21,r17
    3bdc:	01 00 29 39 	addi    r9,r9,1
    3be0:	0c 00 15 91 	stw     r8,12(r21)
    3be4:	00 00 3f 91 	stw     r9,0(r31)
    3be8:	2e 89 55 7d 	stwx    r10,r21,r17
    3bec:	9d e8 ff 4b 	bl      2488 <Permute+0x8>
    3bf0:	aa 8a 15 7d 	lwax    r8,r21,r17
    3bf4:	00 00 3f 81 	lwz     r9,0(r31)
    3bf8:	01 00 90 2b 	cmplwi  cr7,r16,1
    3bfc:	0e 00 55 e9 	lwa     r10,12(r21)
    3c00:	01 00 29 39 	addi    r9,r9,1
    3c04:	0c 00 15 91 	stw     r8,12(r21)
    3c08:	b4 07 25 7d 	extsw   r5,r9
    3c0c:	2e 89 55 7d 	stwx    r10,r21,r17
    3c10:	01 00 20 3a 	li      r17,1
    3c14:	00 00 3f 91 	stw     r9,0(r31)
    3c18:	f8 04 9e 40 	bne     cr7,4110 <Perm+0x1c30>
    3c1c:	12 00 35 e9 	lwa     r9,16(r21)
    3c20:	40 90 bd 7f 	cmpld   cr7,r29,r18
    3c24:	02 00 52 e9 	lwa     r10,0(r18)
    3c28:	10 00 55 91 	stw     r10,16(r21)
    3c2c:	00 00 32 91 	stw     r9,0(r18)
    3c30:	68 ff 9e 40 	bne     cr7,3b98 <Perm+0x16b8>
    3c34:	78 bb ef 7e 	mr      r15,r23
    3c38:	16 00 55 e9 	lwa     r10,20(r21)
    3c3c:	fc ff ef 39 	addi    r15,r15,-4
    3c40:	01 00 25 39 	addi    r9,r5,1
    3c44:	02 00 0f e9 	lwa     r8,0(r15)
    3c48:	03 00 60 38 	li      r3,3
    3c4c:	00 00 3f 91 	stw     r9,0(r31)
    3c50:	78 cb 32 7f 	mr      r18,r25
    3c54:	14 00 15 91 	stw     r8,20(r21)
    3c58:	00 00 4f 91 	stw     r10,0(r15)
    3c5c:	2d e8 ff 4b 	bl      2488 <Permute+0x8>
    3c60:	12 00 55 e9 	lwa     r10,16(r21)
    3c64:	fc ff 52 3a 	addi    r18,r18,-4
    3c68:	00 00 3f 81 	lwz     r9,0(r31)
    3c6c:	02 00 60 38 	li      r3,2
    3c70:	02 00 12 e9 	lwa     r8,0(r18)
    3c74:	02 00 20 3a 	li      r17,2
    3c78:	02 00 c0 39 	li      r14,2
    3c7c:	01 00 29 39 	addi    r9,r9,1
    3c80:	10 00 15 91 	stw     r8,16(r21)
    3c84:	00 00 52 91 	stw     r10,0(r18)
    3c88:	00 00 3f 91 	stw     r9,0(r31)
    3c8c:	fd e7 ff 4b 	bl      2488 <Permute+0x8>
    3c90:	0e 00 55 e9 	lwa     r10,12(r21)
    3c94:	64 17 ce 79 	rldicr  r14,r14,2,61
    3c98:	00 00 3f 81 	lwz     r9,0(r31)
    3c9c:	01 00 60 38 	li      r3,1
    3ca0:	aa 72 15 7d 	lwax    r8,r21,r14
    3ca4:	01 00 29 39 	addi    r9,r9,1
    3ca8:	0c 00 15 91 	stw     r8,12(r21)
    3cac:	00 00 3f 91 	stw     r9,0(r31)
    3cb0:	2e 71 55 7d 	stwx    r10,r21,r14
    3cb4:	d5 e7 ff 4b 	bl      2488 <Permute+0x8>
    3cb8:	aa 72 15 7d 	lwax    r8,r21,r14
    3cbc:	00 00 3f 81 	lwz     r9,0(r31)
    3cc0:	01 00 91 2b 	cmplwi  cr7,r17,1
    3cc4:	0e 00 55 e9 	lwa     r10,12(r21)
    3cc8:	01 00 29 39 	addi    r9,r9,1
    3ccc:	0c 00 15 91 	stw     r8,12(r21)
    3cd0:	b4 07 25 7d 	extsw   r5,r9
    3cd4:	2e 71 55 7d 	stwx    r10,r21,r14
    3cd8:	01 00 c0 39 	li      r14,1
    3cdc:	00 00 3f 91 	stw     r9,0(r31)
    3ce0:	28 04 9e 40 	bne     cr7,4108 <Perm+0x1c28>
    3ce4:	12 00 35 e9 	lwa     r9,16(r21)
    3ce8:	40 90 bd 7f 	cmpld   cr7,r29,r18
    3cec:	02 00 52 e9 	lwa     r10,0(r18)
    3cf0:	10 00 55 91 	stw     r10,16(r21)
    3cf4:	00 00 32 91 	stw     r9,0(r18)
    3cf8:	68 ff 9e 40 	bne     cr7,3c60 <Perm+0x1780>
    3cfc:	16 00 35 e9 	lwa     r9,20(r21)
    3d00:	40 78 bd 7f 	cmpld   cr7,r29,r15
    3d04:	02 00 4f e9 	lwa     r10,0(r15)
    3d08:	14 00 55 91 	stw     r10,20(r21)
    3d0c:	00 00 2f 91 	stw     r9,0(r15)
    3d10:	28 ff 9e 40 	bne     cr7,3c38 <Perm+0x1758>
    3d14:	1a 00 35 e9 	lwa     r9,24(r21)
    3d18:	40 98 bd 7f 	cmpld   cr7,r29,r19
    3d1c:	02 00 53 e9 	lwa     r10,0(r19)
    3d20:	18 00 55 91 	stw     r10,24(r21)
    3d24:	00 00 33 91 	stw     r9,0(r19)
    3d28:	48 fe 9e 40 	bne     cr7,3b70 <Perm+0x1690>
    3d2c:	a0 00 21 fa 	std     r17,160(r1)
    3d30:	78 d3 50 7f 	mr      r16,r26
    3d34:	00 00 00 60 	nop
    3d38:	00 00 00 60 	nop
    3d3c:	00 00 42 60 	ori     r2,r2,0
    3d40:	1e 00 35 e9 	lwa     r9,28(r21)
    3d44:	fc ff 10 3a 	addi    r16,r16,-4
    3d48:	04 00 a5 38 	addi    r5,r5,4
    3d4c:	02 00 50 e9 	lwa     r10,0(r16)
    3d50:	03 00 60 38 	li      r3,3
    3d54:	00 00 bf 90 	stw     r5,0(r31)
    3d58:	78 cb 33 7f 	mr      r19,r25
    3d5c:	1c 00 55 91 	stw     r10,28(r21)
    3d60:	00 00 30 91 	stw     r9,0(r16)
    3d64:	65 d6 ff 4b 	bl      13c8 <Permute.part.0+0x8>
    3d68:	12 00 55 e9 	lwa     r10,16(r21)
    3d6c:	fc ff 73 3a 	addi    r19,r19,-4
    3d70:	00 00 3f 81 	lwz     r9,0(r31)
    3d74:	02 00 60 38 	li      r3,2
    3d78:	02 00 13 e9 	lwa     r8,0(r19)
    3d7c:	02 00 e0 39 	li      r15,2
    3d80:	02 00 40 3a 	li      r18,2
    3d84:	02 00 29 39 	addi    r9,r9,2
    3d88:	10 00 15 91 	stw     r8,16(r21)
    3d8c:	00 00 53 91 	stw     r10,0(r19)
    3d90:	00 00 3f 91 	stw     r9,0(r31)
    3d94:	35 d6 ff 4b 	bl      13c8 <Permute.part.0+0x8>
    3d98:	0e 00 55 e9 	lwa     r10,12(r21)
    3d9c:	64 17 52 7a 	rldicr  r18,r18,2,61
    3da0:	00 00 3f 81 	lwz     r9,0(r31)
    3da4:	01 00 60 38 	li      r3,1
    3da8:	aa 92 15 7d 	lwax    r8,r21,r18
    3dac:	01 00 29 39 	addi    r9,r9,1
    3db0:	0c 00 15 91 	stw     r8,12(r21)
    3db4:	00 00 3f 91 	stw     r9,0(r31)
    3db8:	2e 91 55 7d 	stwx    r10,r21,r18
    3dbc:	cd e6 ff 4b 	bl      2488 <Permute+0x8>
    3dc0:	aa 92 15 7d 	lwax    r8,r21,r18
    3dc4:	00 00 3f 81 	lwz     r9,0(r31)
    3dc8:	01 00 8f 2b 	cmplwi  cr7,r15,1
    3dcc:	0e 00 55 e9 	lwa     r10,12(r21)
    3dd0:	01 00 29 39 	addi    r9,r9,1
    3dd4:	0c 00 15 91 	stw     r8,12(r21)
    3dd8:	b4 07 25 7d 	extsw   r5,r9
    3ddc:	2e 91 55 7d 	stwx    r10,r21,r18
    3de0:	01 00 40 3a 	li      r18,1
    3de4:	00 00 3f 91 	stw     r9,0(r31)
    3de8:	18 03 9e 40 	bne     cr7,4100 <Perm+0x1c20>
    3dec:	12 00 35 e9 	lwa     r9,16(r21)
    3df0:	40 98 bd 7f 	cmpld   cr7,r29,r19
    3df4:	02 00 53 e9 	lwa     r10,0(r19)
    3df8:	10 00 55 91 	stw     r10,16(r21)
    3dfc:	00 00 33 91 	stw     r9,0(r19)
    3e00:	68 ff 9e 40 	bne     cr7,3d68 <Perm+0x1888>
    3e04:	78 bb f3 7e 	mr      r19,r23
    3e08:	16 00 55 e9 	lwa     r10,20(r21)
    3e0c:	fc ff 73 3a 	addi    r19,r19,-4
    3e10:	01 00 25 39 	addi    r9,r5,1
    3e14:	02 00 13 e9 	lwa     r8,0(r19)
    3e18:	03 00 60 38 	li      r3,3
    3e1c:	00 00 3f 91 	stw     r9,0(r31)
    3e20:	78 cb 31 7f 	mr      r17,r25
    3e24:	14 00 15 91 	stw     r8,20(r21)
    3e28:	00 00 53 91 	stw     r10,0(r19)
    3e2c:	5d e6 ff 4b 	bl      2488 <Permute+0x8>
    3e30:	12 00 55 e9 	lwa     r10,16(r21)
    3e34:	fc ff 31 3a 	addi    r17,r17,-4
    3e38:	00 00 3f 81 	lwz     r9,0(r31)
    3e3c:	02 00 60 38 	li      r3,2
    3e40:	02 00 11 e9 	lwa     r8,0(r17)
    3e44:	02 00 40 3a 	li      r18,2
    3e48:	02 00 c0 39 	li      r14,2
    3e4c:	01 00 29 39 	addi    r9,r9,1
    3e50:	10 00 15 91 	stw     r8,16(r21)
    3e54:	00 00 51 91 	stw     r10,0(r17)
    3e58:	00 00 3f 91 	stw     r9,0(r31)
    3e5c:	2d e6 ff 4b 	bl      2488 <Permute+0x8>
    3e60:	0e 00 55 e9 	lwa     r10,12(r21)
    3e64:	64 17 ce 79 	rldicr  r14,r14,2,61
    3e68:	00 00 3f 81 	lwz     r9,0(r31)
    3e6c:	01 00 60 38 	li      r3,1
    3e70:	aa 72 15 7d 	lwax    r8,r21,r14
    3e74:	01 00 29 39 	addi    r9,r9,1
    3e78:	0c 00 15 91 	stw     r8,12(r21)
    3e7c:	00 00 3f 91 	stw     r9,0(r31)
    3e80:	2e 71 55 7d 	stwx    r10,r21,r14
    3e84:	05 e6 ff 4b 	bl      2488 <Permute+0x8>
    3e88:	aa 72 15 7d 	lwax    r8,r21,r14
    3e8c:	00 00 3f 81 	lwz     r9,0(r31)
    3e90:	01 00 92 2b 	cmplwi  cr7,r18,1
    3e94:	0e 00 55 e9 	lwa     r10,12(r21)
    3e98:	01 00 29 39 	addi    r9,r9,1
    3e9c:	0c 00 15 91 	stw     r8,12(r21)
    3ea0:	b4 07 25 7d 	extsw   r5,r9
    3ea4:	2e 71 55 7d 	stwx    r10,r21,r14
    3ea8:	01 00 c0 39 	li      r14,1
    3eac:	00 00 3f 91 	stw     r9,0(r31)
    3eb0:	48 02 9e 40 	bne     cr7,40f8 <Perm+0x1c18>
    3eb4:	12 00 35 e9 	lwa     r9,16(r21)
    3eb8:	40 e8 b1 7f 	cmpld   cr7,r17,r29
    3ebc:	02 00 51 e9 	lwa     r10,0(r17)
    3ec0:	10 00 55 91 	stw     r10,16(r21)
    3ec4:	00 00 31 91 	stw     r9,0(r17)
    3ec8:	68 ff 9e 40 	bne     cr7,3e30 <Perm+0x1950>
    3ecc:	16 00 35 e9 	lwa     r9,20(r21)
    3ed0:	40 98 bd 7f 	cmpld   cr7,r29,r19
    3ed4:	02 00 53 e9 	lwa     r10,0(r19)
    3ed8:	14 00 55 91 	stw     r10,20(r21)
    3edc:	00 00 33 91 	stw     r9,0(r19)
    3ee0:	28 ff 9e 40 	bne     cr7,3e08 <Perm+0x1928>
    3ee4:	78 c3 0f 7f 	mr      r15,r24
    3ee8:	00 00 00 60 	nop
    3eec:	00 00 42 60 	ori     r2,r2,0
    3ef0:	1a 00 35 e9 	lwa     r9,24(r21)
    3ef4:	fc ff ef 39 	addi    r15,r15,-4
    3ef8:	02 00 a5 38 	addi    r5,r5,2
    3efc:	02 00 4f e9 	lwa     r10,0(r15)
    3f00:	03 00 60 38 	li      r3,3
    3f04:	00 00 bf 90 	stw     r5,0(r31)
    3f08:	78 cb 33 7f 	mr      r19,r25
    3f0c:	18 00 55 91 	stw     r10,24(r21)
    3f10:	00 00 2f 91 	stw     r9,0(r15)
    3f14:	75 e5 ff 4b 	bl      2488 <Permute+0x8>
    3f18:	12 00 55 e9 	lwa     r10,16(r21)
    3f1c:	fc ff 73 3a 	addi    r19,r19,-4
    3f20:	00 00 3f 81 	lwz     r9,0(r31)
    3f24:	02 00 60 38 	li      r3,2
    3f28:	02 00 13 e9 	lwa     r8,0(r19)
    3f2c:	02 00 c0 39 	li      r14,2
    3f30:	01 00 29 39 	addi    r9,r9,1
    3f34:	10 00 15 91 	stw     r8,16(r21)
    3f38:	00 00 53 91 	stw     r10,0(r19)
    3f3c:	00 00 3f 91 	stw     r9,0(r31)
    3f40:	49 e5 ff 4b 	bl      2488 <Permute+0x8>
    3f44:	02 00 40 39 	li      r10,2
    3f48:	64 17 51 79 	rldicr  r17,r10,2,61
    3f4c:	00 00 3f 81 	lwz     r9,0(r31)
    3f50:	01 00 60 38 	li      r3,1
    3f54:	0e 00 55 e9 	lwa     r10,12(r21)
    3f58:	aa 8a 15 7d 	lwax    r8,r21,r17
    3f5c:	01 00 29 39 	addi    r9,r9,1
    3f60:	0c 00 15 91 	stw     r8,12(r21)
    3f64:	00 00 3f 91 	stw     r9,0(r31)
    3f68:	2e 89 55 7d 	stwx    r10,r21,r17
    3f6c:	1d e5 ff 4b 	bl      2488 <Permute+0x8>
    3f70:	aa 8a 55 7d 	lwax    r10,r21,r17
    3f74:	00 00 3f 81 	lwz     r9,0(r31)
    3f78:	01 00 8e 2b 	cmplwi  cr7,r14,1
    3f7c:	0e 00 15 e9 	lwa     r8,12(r21)
    3f80:	01 00 29 39 	addi    r9,r9,1
    3f84:	0c 00 55 91 	stw     r10,12(r21)
    3f88:	01 00 40 39 	li      r10,1
    3f8c:	2e 89 15 7d 	stwx    r8,r21,r17
    3f90:	00 00 3f 91 	stw     r9,0(r31)
    3f94:	5c 01 9e 40 	bne     cr7,40f0 <Perm+0x1c10>
    3f98:	12 00 35 e9 	lwa     r9,16(r21)
    3f9c:	40 98 bd 7f 	cmpld   cr7,r29,r19
    3fa0:	02 00 53 e9 	lwa     r10,0(r19)
    3fa4:	10 00 55 91 	stw     r10,16(r21)
    3fa8:	00 00 33 91 	stw     r9,0(r19)
    3fac:	6c ff 9e 40 	bne     cr7,3f18 <Perm+0x1a38>
    3fb0:	78 bb f3 7e 	mr      r19,r23
    3fb4:	16 00 35 e9 	lwa     r9,20(r21)
    3fb8:	fc ff 73 3a 	addi    r19,r19,-4
    3fbc:	04 00 60 38 	li      r3,4
    3fc0:	02 00 53 e9 	lwa     r10,0(r19)
    3fc4:	14 00 55 91 	stw     r10,20(r21)
    3fc8:	00 00 33 91 	stw     r9,0(r19)
    3fcc:	bd e4 ff 4b 	bl      2488 <Permute+0x8>
    3fd0:	02 00 53 e9 	lwa     r10,0(r19)
    3fd4:	40 98 bd 7f 	cmpld   cr7,r29,r19
    3fd8:	16 00 35 e9 	lwa     r9,20(r21)
    3fdc:	14 00 55 91 	stw     r10,20(r21)
    3fe0:	00 00 33 91 	stw     r9,0(r19)
    3fe4:	d0 ff 9e 40 	bne     cr7,3fb4 <Perm+0x1ad4>
    3fe8:	1a 00 35 e9 	lwa     r9,24(r21)
    3fec:	40 78 bd 7f 	cmpld   cr7,r29,r15
    3ff0:	02 00 4f e9 	lwa     r10,0(r15)
    3ff4:	02 00 bf e8 	lwa     r5,0(r31)
    3ff8:	18 00 55 91 	stw     r10,24(r21)
    3ffc:	00 00 2f 91 	stw     r9,0(r15)
    4000:	f0 fe 9e 40 	bne     cr7,3ef0 <Perm+0x1a10>
    4004:	1e 00 35 e9 	lwa     r9,28(r21)
    4008:	40 80 bd 7f 	cmpld   cr7,r29,r16
    400c:	02 00 50 e9 	lwa     r10,0(r16)
    4010:	1c 00 55 91 	stw     r10,28(r21)
    4014:	00 00 30 91 	stw     r9,0(r16)
    4018:	28 fd 9e 40 	bne     cr7,3d40 <Perm+0x1860>
    401c:	22 00 35 e9 	lwa     r9,32(r21)
    4020:	40 e8 bc 7f 	cmpld   cr7,r28,r29
    4024:	02 00 5c e9 	lwa     r10,0(r28)
    4028:	20 00 55 91 	stw     r10,32(r21)
    402c:	00 00 3c 91 	stw     r9,0(r28)
    4030:	30 fa 9e 40 	bne     cr7,3a60 <Perm+0x1580>
    4034:	26 00 35 e9 	lwa     r9,36(r21)
    4038:	40 b0 bc 7f 	cmpld   cr7,r28,r22
    403c:	02 00 56 e9 	lwa     r10,0(r22)
    4040:	24 00 55 91 	stw     r10,36(r21)
    4044:	00 00 36 91 	stw     r9,0(r22)
    4048:	c8 f5 9e 40 	bne     cr7,3610 <Perm+0x1130>
    404c:	2a 00 35 e9 	lwa     r9,40(r21)
    4050:	40 f0 bc 7f 	cmpld   cr7,r28,r30
    4054:	02 00 5e e9 	lwa     r10,0(r30)
    4058:	28 00 55 91 	stw     r10,40(r21)
    405c:	00 00 3e 91 	stw     r9,0(r30)
    4060:	c0 ef 9e 40 	bne     cr7,3020 <Perm+0xb40>
    4064:	ff ff 7b 3b 	addi    r27,r27,-1
    4068:	21 00 7b 7b 	clrldi. r27,r27,32
    406c:	34 e5 82 40 	bne     25a0 <Perm+0xc0>
    4070:	1d 01 a9 6c 	xoris   r9,r5,285
    4074:	ef 6d 89 2f 	cmpwi   cr7,r9,28143
    4078:	18 00 9e 41 	beq     cr7,4090 <Perm+0x1bb0>
    407c:	fe ff 82 3c 	addis   r4,r2,-2
    4080:	01 00 60 38 	li      r3,1
    4084:	20 20 84 38 	addi    r4,r4,8224
    4088:	19 cc ff 4b 	bl      ca0 <00000048.plt_call.__printf_chk@@GLIBC_2.17>
    408c:	18 00 41 e8 	ld      r2,24(r1)
    4090:	60 ff 00 38 	li      r0,-160
    4094:	50 01 21 38 	addi    r1,r1,336
    4098:	ce 00 e1 7f 	lvx     v31,r1,r0
    409c:	10 00 01 e8 	ld      r0,16(r1)
    40a0:	70 ff c1 e9 	ld      r14,-144(r1)
    40a4:	78 ff e1 e9 	ld      r15,-136(r1)
    40a8:	80 ff 01 ea 	ld      r16,-128(r1)
    40ac:	88 ff 21 ea 	ld      r17,-120(r1)
    40b0:	90 ff 41 ea 	ld      r18,-112(r1)
    40b4:	98 ff 61 ea 	ld      r19,-104(r1)
    40b8:	a0 ff 81 ea 	ld      r20,-96(r1)
    40bc:	a8 ff a1 ea 	ld      r21,-88(r1)
    40c0:	b0 ff c1 ea 	ld      r22,-80(r1)
    40c4:	b8 ff e1 ea 	ld      r23,-72(r1)
    40c8:	a6 03 08 7c 	mtlr    r0
    40cc:	c0 ff 01 eb 	ld      r24,-64(r1)
    40d0:	c8 ff 21 eb 	ld      r25,-56(r1)
    40d4:	d0 ff 41 eb 	ld      r26,-48(r1)
    40d8:	d8 ff 61 eb 	ld      r27,-40(r1)
    40dc:	e0 ff 81 eb 	ld      r28,-32(r1)
    40e0:	e8 ff a1 eb 	ld      r29,-24(r1)
    40e4:	f0 ff c1 eb 	ld      r30,-16(r1)
    40e8:	f8 ff e1 eb 	ld      r31,-8(r1)
    40ec:	20 00 80 4e 	blr
    40f0:	78 93 4e 7e 	mr      r14,r18
    40f4:	54 fe ff 4b 	b       3f48 <Perm+0x1a68>
    40f8:	78 7b f2 7d 	mr      r18,r15
    40fc:	64 fd ff 4b 	b       3e60 <Perm+0x1980>
    4100:	a0 00 e1 e9 	ld      r15,160(r1)
    4104:	94 fc ff 4b 	b       3d98 <Perm+0x18b8>
    4108:	78 83 11 7e 	mr      r17,r16
    410c:	84 fb ff 4b 	b       3c90 <Perm+0x17b0>
    4110:	a0 00 01 ea 	ld      r16,160(r1)
    4114:	b4 fa ff 4b 	b       3bc8 <Perm+0x16e8>
    4118:	98 00 01 ea 	ld      r16,152(r1)
    411c:	c8 f9 ff 4b 	b       3ae4 <Perm+0x1604>
    4120:	78 93 50 7e 	mr      r16,r18
    4124:	74 f8 ff 4b 	b       3998 <Perm+0x14b8>
    4128:	a0 00 41 ea 	ld      r18,160(r1)
    412c:	a4 f7 ff 4b 	b       38d0 <Perm+0x13f0>
    4130:	98 00 01 ea 	ld      r16,152(r1)
    4134:	b8 f6 ff 4b 	b       37ec <Perm+0x130c>
    4138:	90 00 21 e9 	ld      r9,144(r1)
    413c:	98 00 21 f9 	std     r9,152(r1)
    4140:	84 f5 ff 4b 	b       36c4 <Perm+0x11e4>
    4144:	78 93 53 7e 	mr      r19,r18
    4148:	f0 f3 ff 4b 	b       3538 <Perm+0x1058>
    414c:	a8 00 41 ea 	ld      r18,168(r1)
    4150:	20 f3 ff 4b 	b       3470 <Perm+0xf90>
    4154:	a0 00 01 ea 	ld      r16,160(r1)
    4158:	34 f2 ff 4b 	b       338c <Perm+0xeac>
    415c:	98 00 21 e9 	ld      r9,152(r1)
    4160:	a0 00 21 f9 	std     r9,160(r1)
    4164:	00 f1 ff 4b 	b       3264 <Perm+0xd84>
    4168:	88 00 41 e9 	ld      r10,136(r1)
    416c:	98 00 41 f9 	std     r10,152(r1)
    4170:	90 ef ff 4b 	b       3100 <Perm+0xc20>
    4174:	78 9b 76 7e 	mr      r22,r19
    4178:	b0 ed ff 4b 	b       2f28 <Perm+0xa48>
    417c:	a8 00 61 ea 	ld      r19,168(r1)
    4180:	e0 ec ff 4b 	b       2e60 <Perm+0x980>
    4184:	90 00 21 ea 	ld      r17,144(r1)
    4188:	f4 eb ff 4b 	b       2d7c <Perm+0x89c>
    418c:	98 00 21 e9 	ld      r9,152(r1)
    4190:	90 00 21 f9 	std     r9,144(r1)
    4194:	c0 ea ff 4b 	b       2c54 <Perm+0x774>
    4198:	a0 00 41 e9 	ld      r10,160(r1)
    419c:	98 00 41 f9 	std     r10,152(r1)
    41a0:	50 e9 ff 4b 	b       2af0 <Perm+0x610>
    41a4:	78 9b 70 7e 	mr      r16,r19
    41a8:	9c e7 ff 4b 	b       2944 <Perm+0x464>
    41ac:	78 93 53 7e 	mr      r19,r18
    41b0:	38 e6 ff 4b 	b       27e8 <Perm+0x308>
    41b4:	01 00 40 3a 	li      r18,1
    41b8:	d0 e4 ff 4b 	b       2688 <Perm+0x1a8>
    41bc:	00 00 00 00 	.long 0x0
    41c0:	00 00 00 01 	.long 0x1000000
    41c4:	80 12 00 00 	.long 0x1280
    41c8:	00 00 00 60 	nop
    41cc:	00 00 42 60 	ori     r2,r2,0

00000000000041d0 <Error>:
    41d0:	02 00 4c 3c 	addis   r2,r12,2
    41d4:	30 3d 42 38 	addi    r2,r2,15664
    41d8:	a6 02 08 7c 	mflr    r0
    41dc:	fe ff 82 3c 	addis   r4,r2,-2
    41e0:	78 1b 65 7c 	mr      r5,r3
    41e4:	38 20 84 38 	addi    r4,r4,8248
    41e8:	01 00 60 38 	li      r3,1
    41ec:	10 00 01 f8 	std     r0,16(r1)
    41f0:	a1 ff 21 f8 	stdu    r1,-96(r1)
    41f4:	ad ca ff 4b 	bl      ca0 <00000048.plt_call.__printf_chk@@GLIBC_2.17>
    41f8:	18 00 41 e8 	ld      r2,24(r1)
    41fc:	60 00 21 38 	addi    r1,r1,96
    4200:	10 00 01 e8 	ld      r0,16(r1)
    4204:	a6 03 08 7c 	mtlr    r0
    4208:	20 00 80 4e 	blr
    420c:	00 00 00 00 	.long 0x0
    4210:	00 00 00 01 	.long 0x1000000
    4214:	80 00 00 00 	.long 0x80
    4218:	00 00 00 60 	nop
    421c:	00 00 42 60 	ori     r2,r2,0

0000000000004220 <Makenull>:
    4220:	02 00 4c 3c 	addis   r2,r12,2
    4224:	e0 3c 42 38 	addi    r2,r2,15584
    4228:	4d 00 22 3d 	addis   r9,r2,77
    422c:	88 39 29 39 	addi    r9,r9,14728
    4230:	64 17 63 78 	rldicr  r3,r3,2,61
    4234:	00 00 40 39 	li      r10,0
    4238:	2e 19 49 7d 	stwx    r10,r9,r3
    423c:	20 00 80 4e 	blr
	...
    424c:	00 00 42 60 	ori     r2,r2,0

0000000000004250 <Getelement>:
    4250:	02 00 4c 3c 	addis   r2,r12,2
    4254:	b0 3c 42 38 	addi    r2,r2,15536
    4258:	43 00 42 3d 	addis   r10,r2,67
    425c:	b0 60 4a 39 	addi    r10,r10,24752
    4260:	a1 ff 21 f8 	stdu    r1,-96(r1)
    4264:	02 00 6a e8 	lwa     r3,0(r10)
    4268:	00 00 83 2f 	cmpwi   cr7,r3,0
    426c:	24 00 9d 40 	ble     cr7,4290 <Getelement+0x40>
    4270:	27 00 22 3d 	addis   r9,r2,39
    4274:	54 3b 29 39 	addi    r9,r9,15188
    4278:	24 1f 68 78 	rldicr  r8,r3,3,60
    427c:	60 00 21 38 	addi    r1,r1,96
    4280:	14 42 29 7d 	add     r9,r9,r8
    4284:	04 00 29 81 	lwz     r9,4(r9)
    4288:	00 00 2a 91 	stw     r9,0(r10)
    428c:	20 00 80 4e 	blr
    4290:	a6 02 08 7c 	mflr    r0
    4294:	fe ff a2 3c 	addis   r5,r2,-2
    4298:	fe ff 82 3c 	addis   r4,r2,-2
    429c:	50 20 a5 38 	addi    r5,r5,8272
    42a0:	38 20 84 38 	addi    r4,r4,8248
    42a4:	01 00 60 38 	li      r3,1
    42a8:	70 00 01 f8 	std     r0,112(r1)
    42ac:	f5 c9 ff 4b 	bl      ca0 <00000048.plt_call.__printf_chk@@GLIBC_2.17>
    42b0:	18 00 41 e8 	ld      r2,24(r1)
    42b4:	70 00 01 e8 	ld      r0,112(r1)
    42b8:	00 00 60 38 	li      r3,0
    42bc:	60 00 21 38 	addi    r1,r1,96
    42c0:	a6 03 08 7c 	mtlr    r0
    42c4:	20 00 80 4e 	blr
    42c8:	00 00 00 00 	.long 0x0
    42cc:	00 00 00 01 	.long 0x1000000
    42d0:	80 00 00 00 	.long 0x80
    42d4:	00 00 00 60 	nop
    42d8:	00 00 00 60 	nop
    42dc:	00 00 42 60 	ori     r2,r2,0

00000000000042e0 <Push>:
    42e0:	02 00 4c 3c 	addis   r2,r12,2
    42e4:	20 3c 42 38 	addi    r2,r2,15392
    42e8:	e8 ff a1 fb 	std     r29,-24(r1)
    42ec:	4d 00 a2 3f 	addis   r29,r2,77
    42f0:	88 39 bd 3b 	addi    r29,r29,14728
    42f4:	f0 ff c1 fb 	std     r30,-16(r1)
    42f8:	64 17 9e 78 	rldicr  r30,r4,2,61
    42fc:	e0 ff 81 fb 	std     r28,-32(r1)
    4300:	78 1b 7c 7c 	mr      r28,r3
    4304:	f8 ff e1 fb 	std     r31,-8(r1)
    4308:	81 ff 21 f8 	stdu    r1,-128(r1)
    430c:	aa f2 3d 7d 	lwax    r9,r29,r30
    4310:	27 00 e2 3f 	addis   r31,r2,39
    4314:	54 3b ff 3b 	addi    r31,r31,15188
    4318:	00 00 89 2f 	cmpwi   cr7,r9,0
    431c:	14 00 9d 40 	ble     cr7,4330 <Push+0x50>
    4320:	24 1f 2a 79 	rldicr  r10,r9,3,60
    4324:	2e 50 5f 7d 	lwzx    r10,r31,r10
    4328:	00 18 8a 7f 	cmpw    cr7,r10,r3
    432c:	54 00 9d 40 	ble     cr7,4380 <Push+0xa0>
    4330:	43 00 e2 3c 	addis   r7,r2,67
    4334:	b0 60 e7 38 	addi    r7,r7,24752
    4338:	02 00 47 e9 	lwa     r10,0(r7)
    433c:	00 00 8a 2f 	cmpwi   cr7,r10,0
    4340:	90 00 9d 40 	ble     cr7,43d0 <Push+0xf0>
    4344:	24 1f 48 79 	rldicr  r8,r10,3,60
    4348:	14 42 df 7c 	add     r6,r31,r8
    434c:	04 00 c6 80 	lwz     r6,4(r6)
    4350:	00 00 c7 90 	stw     r6,0(r7)
    4354:	80 00 21 38 	addi    r1,r1,128
    4358:	14 42 ff 7c 	add     r7,r31,r8
    435c:	2e f1 5d 7d 	stwx    r10,r29,r30
    4360:	2e 41 9f 7f 	stwx    r28,r31,r8
    4364:	e8 ff a1 eb 	ld      r29,-24(r1)
    4368:	e0 ff 81 eb 	ld      r28,-32(r1)
    436c:	f0 ff c1 eb 	ld      r30,-16(r1)
    4370:	f8 ff e1 eb 	ld      r31,-8(r1)
    4374:	04 00 27 91 	stw     r9,4(r7)
    4378:	20 00 80 4e 	blr
    437c:	00 00 42 60 	ori     r2,r2,0
    4380:	a6 02 08 7c 	mflr    r0
    4384:	fe ff a2 3c 	addis   r5,r2,-2
    4388:	fe ff 82 3c 	addis   r4,r2,-2
    438c:	60 20 a5 38 	addi    r5,r5,8288
    4390:	38 20 84 38 	addi    r4,r4,8248
    4394:	01 00 60 38 	li      r3,1
    4398:	90 00 01 f8 	std     r0,144(r1)
    439c:	05 c9 ff 4b 	bl      ca0 <00000048.plt_call.__printf_chk@@GLIBC_2.17>
    43a0:	18 00 41 e8 	ld      r2,24(r1)
    43a4:	90 00 01 e8 	ld      r0,144(r1)
    43a8:	80 00 21 38 	addi    r1,r1,128
    43ac:	e0 ff 81 eb 	ld      r28,-32(r1)
    43b0:	e8 ff a1 eb 	ld      r29,-24(r1)
    43b4:	f0 ff c1 eb 	ld      r30,-16(r1)
    43b8:	f8 ff e1 eb 	ld      r31,-8(r1)
    43bc:	a6 03 08 7c 	mtlr    r0
    43c0:	20 00 80 4e 	blr
    43c4:	00 00 00 60 	nop
    43c8:	00 00 00 60 	nop
    43cc:	00 00 42 60 	ori     r2,r2,0
    43d0:	a6 02 08 7c 	mflr    r0
    43d4:	fe ff a2 3c 	addis   r5,r2,-2
    43d8:	fe ff 82 3c 	addis   r4,r2,-2
    43dc:	50 20 a5 38 	addi    r5,r5,8272
    43e0:	38 20 84 38 	addi    r4,r4,8248
    43e4:	01 00 60 38 	li      r3,1
    43e8:	90 00 01 f8 	std     r0,144(r1)
    43ec:	b5 c8 ff 4b 	bl      ca0 <00000048.plt_call.__printf_chk@@GLIBC_2.17>
    43f0:	18 00 41 e8 	ld      r2,24(r1)
    43f4:	aa f2 3d 7d 	lwax    r9,r29,r30
    43f8:	90 00 01 e8 	ld      r0,144(r1)
    43fc:	00 00 40 39 	li      r10,0
    4400:	00 00 00 39 	li      r8,0
    4404:	a6 03 08 7c 	mtlr    r0
    4408:	4c ff ff 4b 	b       4354 <Push+0x74>
    440c:	00 00 00 00 	.long 0x0
    4410:	00 00 00 01 	.long 0x1000000
    4414:	80 04 00 00 	.long 0x480
    4418:	00 00 00 60 	nop
    441c:	00 00 42 60 	ori     r2,r2,0

0000000000004420 <Init>:
    4420:	02 00 4c 3c 	addis   r2,r12,2
    4424:	e0 3a 42 38 	addi    r2,r2,15072
    4428:	00 00 84 2f 	cmpwi   cr7,r4,0
    442c:	e0 ff 81 fb 	std     r28,-32(r1)
    4430:	4d 00 82 3f 	addis   r28,r2,77
    4434:	88 39 9c 3b 	addi    r28,r28,14728
    4438:	00 00 20 39 	li      r9,0
    443c:	e8 ff a1 fb 	std     r29,-24(r1)
    4440:	64 17 7d 78 	rldicr  r29,r3,2,61
    4444:	61 ff 21 f8 	stdu    r1,-160(r1)
    4448:	2e e9 3c 7d 	stwx    r9,r28,r29
    444c:	f0 00 9d 40 	ble     cr7,453c <Init+0x11c>
    4450:	a6 02 08 7c 	mflr    r0
    4454:	68 00 21 fb 	std     r25,104(r1)
    4458:	70 00 41 fb 	std     r26,112(r1)
    445c:	fe ff 22 3f 	addis   r25,r2,-2
    4460:	78 00 61 fb 	std     r27,120(r1)
    4464:	fe ff 42 3f 	addis   r26,r2,-2
    4468:	fe ff 62 3f 	addis   r27,r2,-2
    446c:	90 00 c1 fb 	std     r30,144(r1)
    4470:	98 00 e1 fb 	std     r31,152(r1)
    4474:	27 00 c2 3f 	addis   r30,r2,39
    4478:	54 3b de 3b 	addi    r30,r30,15188
    447c:	78 23 9f 7c 	mr      r31,r4
    4480:	00 00 20 39 	li      r9,0
    4484:	50 20 39 3b 	addi    r25,r25,8272
    4488:	38 20 7b 3b 	addi    r27,r27,8248
    448c:	60 20 5a 3b 	addi    r26,r26,8288
    4490:	b0 00 01 f8 	std     r0,176(r1)
    4494:	50 00 00 48 	b       44e4 <Init+0xc4>
    4498:	00 00 00 60 	nop
    449c:	00 00 42 60 	ori     r2,r2,0
    44a0:	43 00 e2 3c 	addis   r7,r2,67
    44a4:	b0 60 e7 38 	addi    r7,r7,24752
    44a8:	02 00 07 e9 	lwa     r8,0(r7)
    44ac:	00 00 88 2f 	cmpwi   cr7,r8,0
    44b0:	24 1f 0a 79 	rldicr  r10,r8,3,60
    44b4:	14 52 de 7c 	add     r6,r30,r10
    44b8:	98 00 9d 40 	ble     cr7,4550 <Init+0x130>
    44bc:	04 00 c6 80 	lwz     r6,4(r6)
    44c0:	00 00 c7 90 	stw     r6,0(r7)
    44c4:	2e 51 fe 7f 	stwx    r31,r30,r10
    44c8:	ff ff ff 3b 	addi    r31,r31,-1
    44cc:	14 52 fe 7c 	add     r7,r30,r10
    44d0:	2e e9 1c 7d 	stwx    r8,r28,r29
    44d4:	b5 07 ff 7f 	extsw.  r31,r31
    44d8:	04 00 27 91 	stw     r9,4(r7)
    44dc:	44 00 82 41 	beq     4520 <Init+0x100>
    44e0:	aa ea 3c 7d 	lwax    r9,r28,r29
    44e4:	00 00 89 2f 	cmpwi   cr7,r9,0
    44e8:	24 1f 2a 79 	rldicr  r10,r9,3,60
    44ec:	b4 ff 9d 40 	ble     cr7,44a0 <Init+0x80>
    44f0:	2e 50 5e 7d 	lwzx    r10,r30,r10
    44f4:	00 f8 8a 7f 	cmpw    cr7,r10,r31
    44f8:	a8 ff 9d 41 	bgt     cr7,44a0 <Init+0x80>
    44fc:	78 d3 45 7f 	mr      r5,r26
    4500:	78 db 64 7f 	mr      r4,r27
    4504:	01 00 60 38 	li      r3,1
    4508:	ff ff ff 3b 	addi    r31,r31,-1
    450c:	95 c7 ff 4b 	bl      ca0 <00000048.plt_call.__printf_chk@@GLIBC_2.17>
    4510:	18 00 41 e8 	ld      r2,24(r1)
    4514:	b5 07 ff 7f 	extsw.  r31,r31
    4518:	c8 ff 82 40 	bne     44e0 <Init+0xc0>
    451c:	00 00 42 60 	ori     r2,r2,0
    4520:	b0 00 01 e8 	ld      r0,176(r1)
    4524:	68 00 21 eb 	ld      r25,104(r1)
    4528:	70 00 41 eb 	ld      r26,112(r1)
    452c:	78 00 61 eb 	ld      r27,120(r1)
    4530:	90 00 c1 eb 	ld      r30,144(r1)
    4534:	98 00 e1 eb 	ld      r31,152(r1)
    4538:	a6 03 08 7c 	mtlr    r0
    453c:	a0 00 21 38 	addi    r1,r1,160
    4540:	e0 ff 81 eb 	ld      r28,-32(r1)
    4544:	e8 ff a1 eb 	ld      r29,-24(r1)
    4548:	20 00 80 4e 	blr
    454c:	00 00 42 60 	ori     r2,r2,0
    4550:	78 cb 25 7f 	mr      r5,r25
    4554:	78 db 64 7f 	mr      r4,r27
    4558:	01 00 60 38 	li      r3,1
    455c:	45 c7 ff 4b 	bl      ca0 <00000048.plt_call.__printf_chk@@GLIBC_2.17>
    4560:	18 00 41 e8 	ld      r2,24(r1)
    4564:	aa ea 3c 7d 	lwax    r9,r28,r29
    4568:	00 00 00 39 	li      r8,0
    456c:	00 00 40 39 	li      r10,0
    4570:	54 ff ff 4b 	b       44c4 <Init+0xa4>
    4574:	00 00 00 00 	.long 0x0
    4578:	00 00 00 01 	.long 0x1000000
    457c:	80 07 00 00 	.long 0x780

0000000000004580 <Pop>:
    4580:	02 00 4c 3c 	addis   r2,r12,2
    4584:	80 39 42 38 	addi    r2,r2,14720
    4588:	4d 00 02 3d 	addis   r8,r2,77
    458c:	88 39 08 39 	addi    r8,r8,14728
    4590:	64 17 6a 78 	rldicr  r10,r3,2,61
    4594:	a1 ff 21 f8 	stdu    r1,-96(r1)
    4598:	aa 52 28 7d 	lwax    r9,r8,r10
    459c:	00 00 89 2f 	cmpwi   cr7,r9,0
    45a0:	3c 00 9d 40 	ble     cr7,45dc <Pop+0x5c>
    45a4:	27 00 a2 3c 	addis   r5,r2,39
    45a8:	54 3b a5 38 	addi    r5,r5,15188
    45ac:	24 1f 26 79 	rldicr  r6,r9,3,60
    45b0:	43 00 82 3c 	addis   r4,r2,67
    45b4:	b0 60 84 38 	addi    r4,r4,24752
    45b8:	aa 32 65 7c 	lwax    r3,r5,r6
    45bc:	14 32 e5 7c 	add     r7,r5,r6
    45c0:	00 00 64 81 	lwz     r11,0(r4)
    45c4:	00 00 24 91 	stw     r9,0(r4)
    45c8:	06 00 27 e9 	lwa     r9,4(r7)
    45cc:	04 00 67 91 	stw     r11,4(r7)
    45d0:	2e 51 28 7d 	stwx    r9,r8,r10
    45d4:	60 00 21 38 	addi    r1,r1,96
    45d8:	20 00 80 4e 	blr
    45dc:	a6 02 08 7c 	mflr    r0
    45e0:	fe ff a2 3c 	addis   r5,r2,-2
    45e4:	fe ff 82 3c 	addis   r4,r2,-2
    45e8:	70 20 a5 38 	addi    r5,r5,8304
    45ec:	38 20 84 38 	addi    r4,r4,8248
    45f0:	01 00 60 38 	li      r3,1
    45f4:	70 00 01 f8 	std     r0,112(r1)
    45f8:	a9 c6 ff 4b 	bl      ca0 <00000048.plt_call.__printf_chk@@GLIBC_2.17>
    45fc:	18 00 41 e8 	ld      r2,24(r1)
    4600:	70 00 01 e8 	ld      r0,112(r1)
    4604:	ff ff 60 38 	li      r3,-1
    4608:	a6 03 08 7c 	mtlr    r0
    460c:	c8 ff ff 4b 	b       45d4 <Pop+0x54>
    4610:	00 00 00 00 	.long 0x0
    4614:	00 00 00 01 	.long 0x1000000
    4618:	80 00 00 00 	.long 0x80
    461c:	00 00 42 60 	ori     r2,r2,0

0000000000004620 <Move>:
    4620:	02 00 4c 3c 	addis   r2,r12,2
    4624:	e0 38 42 38 	addi    r2,r2,14560
    4628:	e8 ff a1 fb 	std     r29,-24(r1)
    462c:	4d 00 a2 3f 	addis   r29,r2,77
    4630:	88 39 bd 3b 	addi    r29,r29,14728
    4634:	64 17 63 78 	rldicr  r3,r3,2,61
    4638:	f0 ff c1 fb 	std     r30,-16(r1)
    463c:	f8 ff e1 fb 	std     r31,-8(r1)
    4640:	81 ff 21 f8 	stdu    r1,-128(r1)
    4644:	aa 1a 3d 7d 	lwax    r9,r29,r3
    4648:	00 00 89 2f 	cmpwi   cr7,r9,0
    464c:	04 01 9d 40 	ble     cr7,4750 <Move+0x130>
    4650:	27 00 e2 3f 	addis   r31,r2,39
    4654:	54 3b ff 3b 	addi    r31,r31,15188
    4658:	24 1f 2a 79 	rldicr  r10,r9,3,60
    465c:	64 17 9e 78 	rldicr  r30,r4,2,61
    4660:	43 00 e2 3c 	addis   r7,r2,67
    4664:	b0 60 e7 38 	addi    r7,r7,24752
    4668:	aa 52 bf 7c 	lwax    r5,r31,r10
    466c:	14 52 1f 7d 	add     r8,r31,r10
    4670:	02 00 c7 e8 	lwa     r6,0(r7)
    4674:	00 00 27 91 	stw     r9,0(r7)
    4678:	06 00 88 e8 	lwa     r4,4(r8)
    467c:	04 00 c8 90 	stw     r6,4(r8)
    4680:	2e 19 9d 7c 	stwx    r4,r29,r3
    4684:	aa f2 1d 7d 	lwax    r8,r29,r30
    4688:	00 00 88 2f 	cmpwi   cr7,r8,0
    468c:	88 00 9d 40 	ble     cr7,4714 <Move+0xf4>
    4690:	24 1f 08 79 	rldicr  r8,r8,3,60
    4694:	2e 40 3f 7d 	lwzx    r9,r31,r8
    4698:	00 28 89 7f 	cmpw    cr7,r9,r5
    469c:	64 00 9d 41 	bgt     cr7,4700 <Move+0xe0>
    46a0:	a6 02 08 7c 	mflr    r0
    46a4:	60 00 81 fb 	std     r28,96(r1)
    46a8:	fe ff 82 3f 	addis   r28,r2,-2
    46ac:	38 20 9c 3b 	addi    r28,r28,8248
    46b0:	90 00 01 f8 	std     r0,144(r1)
    46b4:	fe ff a2 3c 	addis   r5,r2,-2
    46b8:	78 e3 84 7f 	mr      r4,r28
    46bc:	60 20 a5 38 	addi    r5,r5,8288
    46c0:	01 00 60 38 	li      r3,1
    46c4:	dd c5 ff 4b 	bl      ca0 <00000048.plt_call.__printf_chk@@GLIBC_2.17>
    46c8:	18 00 41 e8 	ld      r2,24(r1)
    46cc:	90 00 01 e8 	ld      r0,144(r1)
    46d0:	27 00 42 3d 	addis   r10,r2,39
    46d4:	f0 3b 4a 39 	addi    r10,r10,15344
    46d8:	60 00 81 eb 	ld      r28,96(r1)
    46dc:	80 00 21 38 	addi    r1,r1,128
    46e0:	e8 ff a1 eb 	ld      r29,-24(r1)
    46e4:	f0 ff c1 eb 	ld      r30,-16(r1)
    46e8:	f8 ff e1 eb 	ld      r31,-8(r1)
    46ec:	a6 03 08 7c 	mtlr    r0
    46f0:	00 00 2a 81 	lwz     r9,0(r10)
    46f4:	01 00 29 39 	addi    r9,r9,1
    46f8:	00 00 2a 91 	stw     r9,0(r10)
    46fc:	20 00 80 4e 	blr
    4700:	02 00 27 e9 	lwa     r9,0(r7)
    4704:	aa f2 1d 7d 	lwax    r8,r29,r30
    4708:	24 1f 2a 79 	rldicr  r10,r9,3,60
    470c:	14 52 df 7c 	add     r6,r31,r10
    4710:	06 00 c6 e8 	lwa     r6,4(r6)
    4714:	00 00 c7 90 	stw     r6,0(r7)
    4718:	14 52 ff 7c 	add     r7,r31,r10
    471c:	2e 51 bf 7c 	stwx    r5,r31,r10
    4720:	27 00 42 3d 	addis   r10,r2,39
    4724:	f0 3b 4a 39 	addi    r10,r10,15344
    4728:	80 00 21 38 	addi    r1,r1,128
    472c:	2e f1 3d 7d 	stwx    r9,r29,r30
    4730:	f8 ff e1 eb 	ld      r31,-8(r1)
    4734:	e8 ff a1 eb 	ld      r29,-24(r1)
    4738:	f0 ff c1 eb 	ld      r30,-16(r1)
    473c:	00 00 2a 81 	lwz     r9,0(r10)
    4740:	04 00 07 91 	stw     r8,4(r7)
    4744:	01 00 29 39 	addi    r9,r9,1
    4748:	00 00 2a 91 	stw     r9,0(r10)
    474c:	20 00 80 4e 	blr
    4750:	a6 02 08 7c 	mflr    r0
    4754:	60 00 81 fb 	std     r28,96(r1)
    4758:	fe ff 82 3f 	addis   r28,r2,-2
    475c:	64 17 9e 78 	rldicr  r30,r4,2,61
    4760:	38 20 9c 3b 	addi    r28,r28,8248
    4764:	fe ff a2 3c 	addis   r5,r2,-2
    4768:	78 e3 84 7f 	mr      r4,r28
    476c:	70 20 a5 38 	addi    r5,r5,8304
    4770:	01 00 60 38 	li      r3,1
    4774:	90 00 01 f8 	std     r0,144(r1)
    4778:	29 c5 ff 4b 	bl      ca0 <00000048.plt_call.__printf_chk@@GLIBC_2.17>
    477c:	18 00 41 e8 	ld      r2,24(r1)
    4780:	aa f2 3d 7d 	lwax    r9,r29,r30
    4784:	00 00 89 2f 	cmpwi   cr7,r9,0
    4788:	68 00 9d 40 	ble     cr7,47f0 <Move+0x1d0>
    478c:	27 00 e2 3f 	addis   r31,r2,39
    4790:	54 3b ff 3b 	addi    r31,r31,15188
    4794:	24 1f 29 79 	rldicr  r9,r9,3,60
    4798:	2e 48 3f 7d 	lwzx    r9,r31,r9
    479c:	00 00 89 2f 	cmpwi   cr7,r9,0
    47a0:	14 ff 9c 41 	blt     cr7,46b4 <Move+0x94>
    47a4:	43 00 e2 3c 	addis   r7,r2,67
    47a8:	b0 60 e7 38 	addi    r7,r7,24752
    47ac:	02 00 27 e9 	lwa     r9,0(r7)
    47b0:	00 00 89 2f 	cmpwi   cr7,r9,0
    47b4:	48 00 9d 41 	bgt     cr7,47fc <Move+0x1dc>
    47b8:	fe ff a2 3c 	addis   r5,r2,-2
    47bc:	78 e3 84 7f 	mr      r4,r28
    47c0:	50 20 a5 38 	addi    r5,r5,8272
    47c4:	01 00 60 38 	li      r3,1
    47c8:	d9 c4 ff 4b 	bl      ca0 <00000048.plt_call.__printf_chk@@GLIBC_2.17>
    47cc:	18 00 41 e8 	ld      r2,24(r1)
    47d0:	aa f2 1d 7d 	lwax    r8,r29,r30
    47d4:	90 00 01 e8 	ld      r0,144(r1)
    47d8:	ff ff a0 38 	li      r5,-1
    47dc:	00 00 20 39 	li      r9,0
    47e0:	60 00 81 eb 	ld      r28,96(r1)
    47e4:	00 00 40 39 	li      r10,0
    47e8:	a6 03 08 7c 	mtlr    r0
    47ec:	2c ff ff 4b 	b       4718 <Move+0xf8>
    47f0:	27 00 e2 3f 	addis   r31,r2,39
    47f4:	54 3b ff 3b 	addi    r31,r31,15188
    47f8:	ac ff ff 4b 	b       47a4 <Move+0x184>
    47fc:	90 00 01 e8 	ld      r0,144(r1)
    4800:	ff ff a0 38 	li      r5,-1
    4804:	60 00 81 eb 	ld      r28,96(r1)
    4808:	a6 03 08 7c 	mtlr    r0
    480c:	f8 fe ff 4b 	b       4704 <Move+0xe4>
    4810:	00 00 00 00 	.long 0x0
    4814:	00 00 00 01 	.long 0x1000000
    4818:	80 04 00 00 	.long 0x480
    481c:	00 00 42 60 	ori     r2,r2,0

0000000000004820 <tower>:
    4820:	02 00 4c 3c 	addis   r2,r12,2
    4824:	e0 36 42 38 	addi    r2,r2,14048
    4828:	01 00 85 2f 	cmpwi   cr7,r5,1
    482c:	e0 ff 81 fb 	std     r28,-32(r1)
    4830:	f0 ff c1 fb 	std     r30,-16(r1)
    4834:	78 23 9c 7c 	mr      r28,r4
    4838:	98 ff 61 fa 	std     r19,-104(r1)
    483c:	a0 ff 81 fa 	std     r20,-96(r1)
    4840:	78 1b 7e 7c 	mr      r30,r3
    4844:	b8 ff e1 fa 	std     r23,-72(r1)
    4848:	e8 ff a1 fb 	std     r29,-24(r1)
    484c:	f8 ff e1 fb 	std     r31,-8(r1)
    4850:	31 ff 21 f8 	stdu    r1,-208(r1)
    4854:	7c 02 9e 41 	beq     cr7,4ad0 <tower+0x2b0>
    4858:	a6 02 08 7c 	mflr    r0
    485c:	80 00 c1 fa 	std     r22,128(r1)
    4860:	4d 00 e2 3e 	addis   r23,r2,77
    4864:	88 39 f7 3a 	addi    r23,r23,14728
    4868:	27 00 a2 3f 	addis   r29,r2,39
    486c:	54 3b bd 3b 	addi    r29,r29,15188
    4870:	64 17 94 78 	rldicr  r20,r4,2,61
    4874:	27 00 62 3e 	addis   r19,r2,39
    4878:	f0 3b 73 3a 	addi    r19,r19,15344
    487c:	90 00 01 fb 	std     r24,144(r1)
    4880:	fe ff 02 3f 	addis   r24,r2,-2
    4884:	98 00 21 fb 	std     r25,152(r1)
    4888:	a0 00 41 fb 	std     r26,160(r1)
    488c:	fe ff 22 3f 	addis   r25,r2,-2
    4890:	fe ff 42 3f 	addis   r26,r2,-2
    4894:	a8 00 61 fb 	std     r27,168(r1)
    4898:	fe ff 62 3f 	addis   r27,r2,-2
    489c:	78 00 a1 fa 	std     r21,120(r1)
    48a0:	60 20 5a 3b 	addi    r26,r26,8288
    48a4:	78 2b b5 7c 	mr      r21,r5
    48a8:	70 20 18 3b 	addi    r24,r24,8304
    48ac:	e0 00 01 f8 	std     r0,224(r1)
    48b0:	38 20 7b 3b 	addi    r27,r27,8248
    48b4:	50 20 39 3b 	addi    r25,r25,8272
    48b8:	06 00 fe 23 	subfic  r31,r30,6
    48bc:	ff ff d5 3a 	addi    r22,r21,-1
    48c0:	50 f8 fc 7f 	subf    r31,r28,r31
    48c4:	78 f3 c3 7f 	mr      r3,r30
    48c8:	b4 07 d5 7e 	extsw   r21,r22
    48cc:	b4 07 ff 7f 	extsw   r31,r31
    48d0:	64 17 de 7b 	rldicr  r30,r30,2,61
    48d4:	78 ab a5 7e 	mr      r5,r21
    48d8:	78 fb e4 7f 	mr      r4,r31
    48dc:	4d ff ff 4b 	bl      4828 <tower+0x8>
    48e0:	aa f2 57 7d 	lwax    r10,r23,r30
    48e4:	00 00 8a 2f 	cmpwi   cr7,r10,0
    48e8:	0c 02 9d 40 	ble     cr7,4af4 <tower+0x2d4>
    48ec:	24 1f 48 79 	rldicr  r8,r10,3,60
    48f0:	43 00 22 3d 	addis   r9,r2,67
    48f4:	b0 60 29 39 	addi    r9,r9,24752
    48f8:	14 42 fd 7c 	add     r7,r29,r8
    48fc:	aa 42 bd 7c 	lwax    r5,r29,r8
    4900:	06 00 87 e8 	lwa     r4,4(r7)
    4904:	02 00 c9 e8 	lwa     r6,0(r9)
    4908:	00 00 49 91 	stw     r10,0(r9)
    490c:	2e f1 97 7c 	stwx    r4,r23,r30
    4910:	04 00 c7 90 	stw     r6,4(r7)
    4914:	aa a2 f7 7c 	lwax    r7,r23,r20
    4918:	00 00 87 2f 	cmpwi   cr7,r7,0
    491c:	38 01 9d 40 	ble     cr7,4a54 <tower+0x234>
    4920:	24 1f e7 78 	rldicr  r7,r7,3,60
    4924:	2e 38 5d 7d 	lwzx    r10,r29,r7
    4928:	00 28 8a 7f 	cmpw    cr7,r10,r5
    492c:	14 01 9d 41 	bgt     cr7,4a40 <tower+0x220>
    4930:	78 d3 45 7f 	mr      r5,r26
    4934:	78 db 64 7f 	mr      r4,r27
    4938:	01 00 60 38 	li      r3,1
    493c:	65 c3 ff 4b 	bl      ca0 <00000048.plt_call.__printf_chk@@GLIBC_2.17>
    4940:	18 00 41 e8 	ld      r2,24(r1)
    4944:	00 00 00 60 	nop
    4948:	00 00 00 60 	nop
    494c:	00 00 42 60 	ori     r2,r2,0
    4950:	00 00 33 81 	lwz     r9,0(r19)
    4954:	01 00 96 2f 	cmpwi   cr7,r22,1
    4958:	78 fb fe 7f 	mr      r30,r31
    495c:	01 00 29 39 	addi    r9,r9,1
    4960:	00 00 33 91 	stw     r9,0(r19)
    4964:	54 ff 9e 40 	bne     cr7,48b8 <tower+0x98>
    4968:	e0 00 01 e8 	ld      r0,224(r1)
    496c:	78 00 a1 ea 	ld      r21,120(r1)
    4970:	80 00 c1 ea 	ld      r22,128(r1)
    4974:	90 00 01 eb 	ld      r24,144(r1)
    4978:	98 00 21 eb 	ld      r25,152(r1)
    497c:	a0 00 41 eb 	ld      r26,160(r1)
    4980:	a8 00 61 eb 	ld      r27,168(r1)
    4984:	a6 03 08 7c 	mtlr    r0
    4988:	64 17 ff 7b 	rldicr  r31,r31,2,61
    498c:	aa fa 57 7d 	lwax    r10,r23,r31
    4990:	00 00 8a 2f 	cmpwi   cr7,r10,0
    4994:	cc 01 9d 40 	ble     cr7,4b60 <tower+0x340>
    4998:	24 1f 48 79 	rldicr  r8,r10,3,60
    499c:	43 00 22 3d 	addis   r9,r2,67
    49a0:	b0 60 29 39 	addi    r9,r9,24752
    49a4:	14 42 fd 7c 	add     r7,r29,r8
    49a8:	aa 42 bd 7c 	lwax    r5,r29,r8
    49ac:	06 00 87 e8 	lwa     r4,4(r7)
    49b0:	02 00 c9 e8 	lwa     r6,0(r9)
    49b4:	00 00 49 91 	stw     r10,0(r9)
    49b8:	2e f9 97 7c 	stwx    r4,r23,r31
    49bc:	04 00 c7 90 	stw     r6,4(r7)
    49c0:	aa a2 f7 7c 	lwax    r7,r23,r20
    49c4:	00 00 87 2f 	cmpwi   cr7,r7,0
    49c8:	bc 00 9d 40 	ble     cr7,4a84 <tower+0x264>
    49cc:	24 1f e7 78 	rldicr  r7,r7,3,60
    49d0:	2e 38 5d 7d 	lwzx    r10,r29,r7
    49d4:	00 28 8a 7f 	cmpw    cr7,r10,r5
    49d8:	98 00 9d 41 	bgt     cr7,4a70 <tower+0x250>
    49dc:	a6 02 08 7c 	mflr    r0
    49e0:	fe ff e2 3f 	addis   r31,r2,-2
    49e4:	38 20 ff 3b 	addi    r31,r31,8248
    49e8:	e0 00 01 f8 	std     r0,224(r1)
    49ec:	fe ff a2 3c 	addis   r5,r2,-2
    49f0:	78 fb e4 7f 	mr      r4,r31
    49f4:	60 20 a5 38 	addi    r5,r5,8288
    49f8:	01 00 60 38 	li      r3,1
    49fc:	a5 c2 ff 4b 	bl      ca0 <00000048.plt_call.__printf_chk@@GLIBC_2.17>
    4a00:	18 00 41 e8 	ld      r2,24(r1)
    4a04:	e0 00 01 e8 	ld      r0,224(r1)
    4a08:	00 00 33 81 	lwz     r9,0(r19)
    4a0c:	d0 00 21 38 	addi    r1,r1,208
    4a10:	a0 ff 81 ea 	ld      r20,-96(r1)
    4a14:	b8 ff e1 ea 	ld      r23,-72(r1)
    4a18:	e0 ff 81 eb 	ld      r28,-32(r1)
    4a1c:	e8 ff a1 eb 	ld      r29,-24(r1)
    4a20:	a6 03 08 7c 	mtlr    r0
    4a24:	01 00 29 39 	addi    r9,r9,1
    4a28:	f0 ff c1 eb 	ld      r30,-16(r1)
    4a2c:	f8 ff e1 eb 	ld      r31,-8(r1)
    4a30:	00 00 33 91 	stw     r9,0(r19)
    4a34:	98 ff 61 ea 	ld      r19,-104(r1)
    4a38:	20 00 80 4e 	blr
    4a3c:	00 00 42 60 	ori     r2,r2,0
    4a40:	02 00 49 e9 	lwa     r10,0(r9)
    4a44:	aa a2 f7 7c 	lwax    r7,r23,r20
    4a48:	24 1f 48 79 	rldicr  r8,r10,3,60
    4a4c:	14 42 dd 7c 	add     r6,r29,r8
    4a50:	06 00 c6 e8 	lwa     r6,4(r6)
    4a54:	00 00 c9 90 	stw     r6,0(r9)
    4a58:	14 42 3d 7d 	add     r9,r29,r8
    4a5c:	2e a1 57 7d 	stwx    r10,r23,r20
    4a60:	2e 41 bd 7c 	stwx    r5,r29,r8
    4a64:	04 00 e9 90 	stw     r7,4(r9)
    4a68:	e8 fe ff 4b 	b       4950 <tower+0x130>
    4a6c:	00 00 42 60 	ori     r2,r2,0
    4a70:	02 00 49 e9 	lwa     r10,0(r9)
    4a74:	aa a2 f7 7c 	lwax    r7,r23,r20
    4a78:	24 1f 48 79 	rldicr  r8,r10,3,60
    4a7c:	14 42 dd 7c 	add     r6,r29,r8
    4a80:	06 00 c6 e8 	lwa     r6,4(r6)
    4a84:	00 00 c9 90 	stw     r6,0(r9)
    4a88:	14 42 3d 7d 	add     r9,r29,r8
    4a8c:	d0 00 21 38 	addi    r1,r1,208
    4a90:	2e a1 57 7d 	stwx    r10,r23,r20
    4a94:	2e 41 bd 7c 	stwx    r5,r29,r8
    4a98:	04 00 e9 90 	stw     r7,4(r9)
    4a9c:	00 00 33 81 	lwz     r9,0(r19)
    4aa0:	a0 ff 81 ea 	ld      r20,-96(r1)
    4aa4:	b8 ff e1 ea 	ld      r23,-72(r1)
    4aa8:	e0 ff 81 eb 	ld      r28,-32(r1)
    4aac:	e8 ff a1 eb 	ld      r29,-24(r1)
    4ab0:	f0 ff c1 eb 	ld      r30,-16(r1)
    4ab4:	f8 ff e1 eb 	ld      r31,-8(r1)
    4ab8:	01 00 29 39 	addi    r9,r9,1
    4abc:	00 00 33 91 	stw     r9,0(r19)
    4ac0:	98 ff 61 ea 	ld      r19,-104(r1)
    4ac4:	20 00 80 4e 	blr
    4ac8:	00 00 00 60 	nop
    4acc:	00 00 42 60 	ori     r2,r2,0
    4ad0:	4d 00 e2 3e 	addis   r23,r2,77
    4ad4:	88 39 f7 3a 	addi    r23,r23,14728
    4ad8:	27 00 a2 3f 	addis   r29,r2,39
    4adc:	54 3b bd 3b 	addi    r29,r29,15188
    4ae0:	27 00 62 3e 	addis   r19,r2,39
    4ae4:	f0 3b 73 3a 	addi    r19,r19,15344
    4ae8:	78 1b 7f 7c 	mr      r31,r3
    4aec:	64 17 94 78 	rldicr  r20,r4,2,61
    4af0:	98 fe ff 4b 	b       4988 <tower+0x168>
    4af4:	78 c3 05 7f 	mr      r5,r24
    4af8:	78 db 64 7f 	mr      r4,r27
    4afc:	01 00 60 38 	li      r3,1
    4b00:	a1 c1 ff 4b 	bl      ca0 <00000048.plt_call.__printf_chk@@GLIBC_2.17>
    4b04:	18 00 41 e8 	ld      r2,24(r1)
    4b08:	aa a2 37 7d 	lwax    r9,r23,r20
    4b0c:	00 00 89 2f 	cmpwi   cr7,r9,0
    4b10:	14 00 9d 40 	ble     cr7,4b24 <tower+0x304>
    4b14:	24 1f 29 79 	rldicr  r9,r9,3,60
    4b18:	2e 48 3d 7d 	lwzx    r9,r29,r9
    4b1c:	00 00 89 2f 	cmpwi   cr7,r9,0
    4b20:	10 fe 9c 41 	blt     cr7,4930 <tower+0x110>
    4b24:	43 00 22 3d 	addis   r9,r2,67
    4b28:	b0 60 29 39 	addi    r9,r9,24752
    4b2c:	02 00 49 e9 	lwa     r10,0(r9)
    4b30:	00 00 8a 2f 	cmpwi   cr7,r10,0
    4b34:	b8 00 9d 41 	bgt     cr7,4bec <tower+0x3cc>
    4b38:	78 cb 25 7f 	mr      r5,r25
    4b3c:	78 db 64 7f 	mr      r4,r27
    4b40:	01 00 60 38 	li      r3,1
    4b44:	5d c1 ff 4b 	bl      ca0 <00000048.plt_call.__printf_chk@@GLIBC_2.17>
    4b48:	18 00 41 e8 	ld      r2,24(r1)
    4b4c:	aa a2 f7 7c 	lwax    r7,r23,r20
    4b50:	ff ff a0 38 	li      r5,-1
    4b54:	00 00 40 39 	li      r10,0
    4b58:	00 00 00 39 	li      r8,0
    4b5c:	fc fe ff 4b 	b       4a58 <tower+0x238>
    4b60:	a6 02 08 7c 	mflr    r0
    4b64:	fe ff e2 3f 	addis   r31,r2,-2
    4b68:	38 20 ff 3b 	addi    r31,r31,8248
    4b6c:	fe ff a2 3c 	addis   r5,r2,-2
    4b70:	70 20 a5 38 	addi    r5,r5,8304
    4b74:	78 fb e4 7f 	mr      r4,r31
    4b78:	01 00 60 38 	li      r3,1
    4b7c:	e0 00 01 f8 	std     r0,224(r1)
    4b80:	21 c1 ff 4b 	bl      ca0 <00000048.plt_call.__printf_chk@@GLIBC_2.17>
    4b84:	18 00 41 e8 	ld      r2,24(r1)
    4b88:	aa a2 37 7d 	lwax    r9,r23,r20
    4b8c:	00 00 89 2f 	cmpwi   cr7,r9,0
    4b90:	14 00 9d 40 	ble     cr7,4ba4 <tower+0x384>
    4b94:	24 1f 29 79 	rldicr  r9,r9,3,60
    4b98:	2e 48 3d 7d 	lwzx    r9,r29,r9
    4b9c:	00 00 89 2f 	cmpwi   cr7,r9,0
    4ba0:	4c fe 9c 41 	blt     cr7,49ec <tower+0x1cc>
    4ba4:	43 00 22 3d 	addis   r9,r2,67
    4ba8:	b0 60 29 39 	addi    r9,r9,24752
    4bac:	02 00 49 e9 	lwa     r10,0(r9)
    4bb0:	00 00 8a 2f 	cmpwi   cr7,r10,0
    4bb4:	40 00 9d 41 	bgt     cr7,4bf4 <tower+0x3d4>
    4bb8:	fe ff a2 3c 	addis   r5,r2,-2
    4bbc:	78 fb e4 7f 	mr      r4,r31
    4bc0:	50 20 a5 38 	addi    r5,r5,8272
    4bc4:	01 00 60 38 	li      r3,1
    4bc8:	d9 c0 ff 4b 	bl      ca0 <00000048.plt_call.__printf_chk@@GLIBC_2.17>
    4bcc:	18 00 41 e8 	ld      r2,24(r1)
    4bd0:	aa a2 f7 7c 	lwax    r7,r23,r20
    4bd4:	e0 00 01 e8 	ld      r0,224(r1)
    4bd8:	ff ff a0 38 	li      r5,-1
    4bdc:	00 00 40 39 	li      r10,0
    4be0:	00 00 00 39 	li      r8,0
    4be4:	a6 03 08 7c 	mtlr    r0
    4be8:	a0 fe ff 4b 	b       4a88 <tower+0x268>
    4bec:	ff ff a0 38 	li      r5,-1
    4bf0:	54 fe ff 4b 	b       4a44 <tower+0x224>
    4bf4:	e0 00 01 e8 	ld      r0,224(r1)
    4bf8:	ff ff a0 38 	li      r5,-1
    4bfc:	a6 03 08 7c 	mtlr    r0
    4c00:	74 fe ff 4b 	b       4a74 <tower+0x254>
    4c04:	00 00 00 00 	.long 0x0
    4c08:	00 00 00 01 	.long 0x1000000
    4c0c:	80 0d 00 00 	.long 0xd80

0000000000004c10 <Towers>:
    4c10:	02 00 4c 3c 	addis   r2,r12,2
    4c14:	f0 32 42 38 	addi    r2,r2,13040
    4c18:	a6 02 08 7c 	mflr    r0
    4c1c:	a0 ff 81 fa 	std     r20,-96(r1)
    4c20:	b8 ff e1 fa 	std     r23,-72(r1)
    4c24:	01 00 e0 3e 	lis     r23,1
    4c28:	26 80 90 7d 	mfocrf  r12,8
    4c2c:	c0 ff 01 fb 	std     r24,-64(r1)
    4c30:	c8 ff 21 fb 	std     r25,-56(r1)
    4c34:	fe ff 22 3f 	addis   r25,r2,-2
    4c38:	64 00 00 3b 	li      r24,100
    4c3c:	d0 ff 41 fb 	std     r26,-48(r1)
    4c40:	d8 ff 61 fb 	std     r27,-40(r1)
    4c44:	fe ff 42 3f 	addis   r26,r2,-2
    4c48:	fe ff 62 3f 	addis   r27,r2,-2
    4c4c:	e0 ff 81 fb 	std     r28,-32(r1)
    4c50:	e8 ff a1 fb 	std     r29,-24(r1)
    4c54:	ff ff f7 62 	ori     r23,r23,65535
    4c58:	12 00 80 3a 	li      r20,18
    4c5c:	f0 ff c1 fb 	std     r30,-16(r1)
    4c60:	f8 ff e1 fb 	std     r31,-8(r1)
    4c64:	50 20 39 3b 	addi    r25,r25,8272
    4c68:	38 20 7b 3b 	addi    r27,r27,8248
    4c6c:	10 00 01 f8 	std     r0,16(r1)
    4c70:	70 ff c1 f9 	std     r14,-144(r1)
    4c74:	60 20 5a 3b 	addi    r26,r26,8288
    4c78:	78 ff e1 f9 	std     r15,-136(r1)
    4c7c:	80 ff 01 fa 	std     r16,-128(r1)
    4c80:	88 ff 21 fa 	std     r17,-120(r1)
    4c84:	90 ff 41 fa 	std     r18,-112(r1)
    4c88:	98 ff 61 fa 	std     r19,-104(r1)
    4c8c:	a8 ff a1 fa 	std     r21,-88(r1)
    4c90:	b0 ff c1 fa 	std     r22,-80(r1)
    4c94:	08 00 81 91 	stw     r12,8(r1)
    4c98:	27 00 e2 3f 	addis   r31,r2,39
    4c9c:	54 3b ff 3b 	addi    r31,r31,15188
    4ca0:	01 ff 21 f8 	stdu    r1,-256(r1)
    4ca4:	43 00 a2 3f 	addis   r29,r2,67
    4ca8:	b0 60 bd 3b 	addi    r29,r29,24752
    4cac:	4d 00 c2 3f 	addis   r30,r2,77
    4cb0:	88 39 de 3b 	addi    r30,r30,14728
    4cb4:	27 00 82 3f 	addis   r28,r2,39
    4cb8:	f0 3b 9c 3b 	addi    r28,r28,15344
    4cbc:	0c 00 3f 39 	addi    r9,r31,12
    4cc0:	60 00 21 f9 	std     r9,96(r1)
    4cc4:	fe ff 22 3d 	addis   r9,r2,-2
    4cc8:	70 20 29 39 	addi    r9,r9,8304
    4ccc:	68 00 21 f9 	std     r9,104(r1)
    4cd0:	12 00 00 39 	li      r8,18
    4cd4:	60 00 41 e9 	ld      r10,96(r1)
    4cd8:	00 00 20 39 	li      r9,0
    4cdc:	a6 03 09 7d 	mtctr   r8
    4ce0:	01 00 09 39 	addi    r8,r9,1
    4ce4:	00 00 2a 91 	stw     r9,0(r10)
    4ce8:	08 00 4a 39 	addi    r10,r10,8
    4cec:	20 00 09 79 	clrldi  r9,r8,32
    4cf0:	f0 ff 00 42 	bdnz    4ce0 <Towers+0xd0>
    4cf4:	00 00 20 39 	li      r9,0
    4cf8:	00 00 9d 92 	stw     r20,0(r29)
    4cfc:	11 00 40 3a 	li      r18,17
    4d00:	00 00 40 39 	li      r10,0
    4d04:	04 00 3e 91 	stw     r9,4(r30)
    4d08:	44 00 00 48 	b       4d4c <Towers+0x13c>
    4d0c:	00 00 42 60 	ori     r2,r2,0
    4d10:	02 00 fd e8 	lwa     r7,0(r29)
    4d14:	00 00 87 2f 	cmpwi   cr7,r7,0
    4d18:	24 1f e8 78 	rldicr  r8,r7,3,60
    4d1c:	14 42 3f 7d 	add     r9,r31,r8
    4d20:	50 03 9d 40 	ble     cr7,5070 <Towers+0x460>
    4d24:	04 00 29 81 	lwz     r9,4(r9)
    4d28:	00 00 3d 91 	stw     r9,0(r29)
    4d2c:	14 42 3f 7d 	add     r9,r31,r8
    4d30:	04 00 fe 90 	stw     r7,4(r30)
    4d34:	2e 41 3f 7e 	stwx    r17,r31,r8
    4d38:	04 00 49 91 	stw     r10,4(r9)
    4d3c:	ff ff 32 39 	addi    r9,r18,-1
    4d40:	21 00 32 79 	clrldi. r18,r9,32
    4d44:	4c 00 82 41 	beq     4d90 <Towers+0x180>
    4d48:	06 00 5e e9 	lwa     r10,4(r30)
    4d4c:	00 00 8a 2f 	cmpwi   cr7,r10,0
    4d50:	24 1f 49 79 	rldicr  r9,r10,3,60
    4d54:	b4 07 51 7e 	extsw   r17,r18
    4d58:	b8 ff 9d 40 	ble     cr7,4d10 <Towers+0x100>
    4d5c:	2e 48 3f 7d 	lwzx    r9,r31,r9
    4d60:	00 88 89 7f 	cmpw    cr7,r9,r17
    4d64:	ac ff 9d 41 	bgt     cr7,4d10 <Towers+0x100>
    4d68:	78 d3 45 7f 	mr      r5,r26
    4d6c:	78 db 64 7f 	mr      r4,r27
    4d70:	01 00 60 38 	li      r3,1
    4d74:	2d bf ff 4b 	bl      ca0 <00000048.plt_call.__printf_chk@@GLIBC_2.17>
    4d78:	18 00 41 e8 	ld      r2,24(r1)
    4d7c:	ff ff 32 39 	addi    r9,r18,-1
    4d80:	21 00 32 79 	clrldi. r18,r9,32
    4d84:	c4 ff 82 40 	bne     4d48 <Towers+0x138>
    4d88:	00 00 00 60 	nop
    4d8c:	00 00 42 60 	ori     r2,r2,0
    4d90:	08 00 5e fa 	std     r18,8(r30)
    4d94:	00 00 5c 92 	stw     r18,0(r28)
    4d98:	01 00 e0 39 	li      r15,1
    4d9c:	11 00 c0 39 	li      r14,17
    4da0:	ff ff ce 39 	addi    r14,r14,-1
    4da4:	04 00 0f 22 	subfic  r16,r15,4
    4da8:	01 00 0e 2e 	cmpwi   cr4,r14,1
    4dac:	b4 07 10 7e 	extsw   r16,r16
    4db0:	b4 07 ce 7d 	extsw   r14,r14
    4db4:	fc 03 92 41 	beq     cr4,51b0 <Towers+0x5a0>
    4db8:	78 7b f1 7d 	mr      r17,r15
    4dbc:	78 73 d6 7d 	mr      r22,r14
    4dc0:	64 17 13 7a 	rldicr  r19,r16,2,61
    4dc4:	06 00 51 22 	subfic  r18,r17,6
    4dc8:	ff ff b6 3a 	addi    r21,r22,-1
    4dcc:	50 90 50 7e 	subf    r18,r16,r18
    4dd0:	78 8b 23 7e 	mr      r3,r17
    4dd4:	b4 07 b6 7e 	extsw   r22,r21
    4dd8:	b4 07 52 7e 	extsw   r18,r18
    4ddc:	64 17 31 7a 	rldicr  r17,r17,2,61
    4de0:	78 b3 c5 7e 	mr      r5,r22
    4de4:	78 93 44 7e 	mr      r4,r18
    4de8:	41 fa ff 4b 	bl      4828 <tower+0x8>
    4dec:	aa 8a 3e 7d 	lwax    r9,r30,r17
    4df0:	00 00 89 2f 	cmpwi   cr7,r9,0
    4df4:	68 04 9d 40 	ble     cr7,525c <Towers+0x64c>
    4df8:	02 00 bd e8 	lwa     r5,0(r29)
    4dfc:	24 1f 2a 79 	rldicr  r10,r9,3,60
    4e00:	00 00 3d 91 	stw     r9,0(r29)
    4e04:	14 52 1f 7d 	add     r8,r31,r10
    4e08:	aa 52 9f 7c 	lwax    r4,r31,r10
    4e0c:	06 00 68 e8 	lwa     r3,4(r8)
    4e10:	04 00 a8 90 	stw     r5,4(r8)
    4e14:	2e 89 7e 7c 	stwx    r3,r30,r17
    4e18:	aa 9a 1e 7d 	lwax    r8,r30,r19
    4e1c:	00 00 88 2f 	cmpwi   cr7,r8,0
    4e20:	94 02 9d 40 	ble     cr7,50b4 <Towers+0x4a4>
    4e24:	24 1f 08 79 	rldicr  r8,r8,3,60
    4e28:	2e 40 3f 7d 	lwzx    r9,r31,r8
    4e2c:	00 20 89 7f 	cmpw    cr7,r9,r4
    4e30:	70 02 9d 41 	bgt     cr7,50a0 <Towers+0x490>
    4e34:	78 d3 45 7f 	mr      r5,r26
    4e38:	78 db 64 7f 	mr      r4,r27
    4e3c:	01 00 60 38 	li      r3,1
    4e40:	61 be ff 4b 	bl      ca0 <00000048.plt_call.__printf_chk@@GLIBC_2.17>
    4e44:	18 00 41 e8 	ld      r2,24(r1)
    4e48:	00 00 00 60 	nop
    4e4c:	00 00 42 60 	ori     r2,r2,0
    4e50:	00 00 3c 81 	lwz     r9,0(r28)
    4e54:	01 00 95 2f 	cmpwi   cr7,r21,1
    4e58:	78 93 51 7e 	mr      r17,r18
    4e5c:	01 00 29 39 	addi    r9,r9,1
    4e60:	00 00 3c 91 	stw     r9,0(r28)
    4e64:	60 ff 9e 40 	bne     cr7,4dc4 <Towers+0x1b4>
    4e68:	64 17 52 7a 	rldicr  r18,r18,2,61
    4e6c:	aa 92 3e 7d 	lwax    r9,r30,r18
    4e70:	00 00 89 2f 	cmpwi   cr7,r9,0
    4e74:	54 03 9d 40 	ble     cr7,51c8 <Towers+0x5b8>
    4e78:	02 00 fd e8 	lwa     r7,0(r29)
    4e7c:	24 1f 2a 79 	rldicr  r10,r9,3,60
    4e80:	00 00 3d 91 	stw     r9,0(r29)
    4e84:	14 52 1f 7d 	add     r8,r31,r10
    4e88:	aa 52 bf 7c 	lwax    r5,r31,r10
    4e8c:	06 00 88 e8 	lwa     r4,4(r8)
    4e90:	04 00 e8 90 	stw     r7,4(r8)
    4e94:	2e 91 9e 7c 	stwx    r4,r30,r18
    4e98:	aa 9a 1e 7d 	lwax    r8,r30,r19
    4e9c:	00 00 88 2f 	cmpwi   cr7,r8,0
    4ea0:	74 02 9d 40 	ble     cr7,5114 <Towers+0x504>
    4ea4:	24 1f 08 79 	rldicr  r8,r8,3,60
    4ea8:	2e 40 3f 7d 	lwzx    r9,r31,r8
    4eac:	00 28 89 7f 	cmpw    cr7,r9,r5
    4eb0:	50 02 9d 41 	bgt     cr7,5100 <Towers+0x4f0>
    4eb4:	64 17 ef 79 	rldicr  r15,r15,2,61
    4eb8:	78 d3 45 7f 	mr      r5,r26
    4ebc:	78 db 64 7f 	mr      r4,r27
    4ec0:	01 00 60 38 	li      r3,1
    4ec4:	dd bd ff 4b 	bl      ca0 <00000048.plt_call.__printf_chk@@GLIBC_2.17>
    4ec8:	18 00 41 e8 	ld      r2,24(r1)
    4ecc:	aa 7a 3e 7d 	lwax    r9,r30,r15
    4ed0:	00 00 1c 81 	lwz     r8,0(r28)
    4ed4:	00 00 89 2f 	cmpwi   cr7,r9,0
    4ed8:	01 00 08 39 	addi    r8,r8,1
    4edc:	b4 07 0a 7d 	extsw   r10,r8
    4ee0:	00 00 1c 91 	stw     r8,0(r28)
    4ee4:	64 02 9d 40 	ble     cr7,5148 <Towers+0x538>
    4ee8:	00 00 00 60 	nop
    4eec:	00 00 42 60 	ori     r2,r2,0
    4ef0:	02 00 bd e8 	lwa     r5,0(r29)
    4ef4:	24 1f 28 79 	rldicr  r8,r9,3,60
    4ef8:	00 00 3d 91 	stw     r9,0(r29)
    4efc:	14 42 ff 7c 	add     r7,r31,r8
    4f00:	aa 42 9f 7c 	lwax    r4,r31,r8
    4f04:	06 00 67 e8 	lwa     r3,4(r7)
    4f08:	04 00 a7 90 	stw     r5,4(r7)
    4f0c:	2e 79 7e 7c 	stwx    r3,r30,r15
    4f10:	0a 00 fe e8 	lwa     r7,8(r30)
    4f14:	00 00 87 2f 	cmpwi   cr7,r7,0
    4f18:	cc 01 9d 40 	ble     cr7,50e4 <Towers+0x4d4>
    4f1c:	24 1f e9 78 	rldicr  r9,r7,3,60
    4f20:	2e 48 3f 7d 	lwzx    r9,r31,r9
    4f24:	00 20 89 7f 	cmpw    cr7,r9,r4
    4f28:	a8 01 9d 41 	bgt     cr7,50d0 <Towers+0x4c0>
    4f2c:	78 d3 45 7f 	mr      r5,r26
    4f30:	78 db 64 7f 	mr      r4,r27
    4f34:	01 00 60 38 	li      r3,1
    4f38:	69 bd ff 4b 	bl      ca0 <00000048.plt_call.__printf_chk@@GLIBC_2.17>
    4f3c:	18 00 41 e8 	ld      r2,24(r1)
    4f40:	02 00 5c e9 	lwa     r10,0(r28)
    4f44:	00 00 00 60 	nop
    4f48:	00 00 00 60 	nop
    4f4c:	00 00 42 60 	ori     r2,r2,0
    4f50:	01 00 2a 39 	addi    r9,r10,1
    4f54:	78 83 0f 7e 	mr      r15,r16
    4f58:	b4 07 2a 7d 	extsw   r10,r9
    4f5c:	00 00 3c 91 	stw     r9,0(r28)
    4f60:	40 fe 92 40 	bne     cr4,4da0 <Towers+0x190>
    4f64:	aa 9a 3e 7d 	lwax    r9,r30,r19
    4f68:	00 00 89 2f 	cmpwi   cr7,r9,0
    4f6c:	54 03 9d 40 	ble     cr7,52c0 <Towers+0x6b0>
    4f70:	02 00 bd e8 	lwa     r5,0(r29)
    4f74:	24 1f 28 79 	rldicr  r8,r9,3,60
    4f78:	00 00 3d 91 	stw     r9,0(r29)
    4f7c:	14 42 ff 7c 	add     r7,r31,r8
    4f80:	aa 42 9f 7c 	lwax    r4,r31,r8
    4f84:	06 00 67 e8 	lwa     r3,4(r7)
    4f88:	04 00 a7 90 	stw     r5,4(r7)
    4f8c:	2e 99 7e 7c 	stwx    r3,r30,r19
    4f90:	0a 00 fe e8 	lwa     r7,8(r30)
    4f94:	00 00 87 2f 	cmpwi   cr7,r7,0
    4f98:	ac 02 9d 40 	ble     cr7,5244 <Towers+0x634>
    4f9c:	24 1f e9 78 	rldicr  r9,r7,3,60
    4fa0:	2e 48 3f 7d 	lwzx    r9,r31,r9
    4fa4:	00 20 89 7f 	cmpw    cr7,r9,r4
    4fa8:	88 02 9d 41 	bgt     cr7,5230 <Towers+0x620>
    4fac:	78 d3 45 7f 	mr      r5,r26
    4fb0:	78 db 64 7f 	mr      r4,r27
    4fb4:	01 00 60 38 	li      r3,1
    4fb8:	e9 bc ff 4b 	bl      ca0 <00000048.plt_call.__printf_chk@@GLIBC_2.17>
    4fbc:	18 00 41 e8 	ld      r2,24(r1)
    4fc0:	02 00 5c e9 	lwa     r10,0(r28)
    4fc4:	00 00 00 60 	nop
    4fc8:	00 00 00 60 	nop
    4fcc:	00 00 42 60 	ori     r2,r2,0
    4fd0:	01 00 4a 39 	addi    r10,r10,1
    4fd4:	00 b8 8a 7f 	cmpw    cr7,r10,r23
    4fd8:	b4 07 45 7d 	extsw   r5,r10
    4fdc:	00 00 5c 91 	stw     r10,0(r28)
    4fe0:	18 00 9e 41 	beq     cr7,4ff8 <Towers+0x3e8>
    4fe4:	fe ff 82 3c 	addis   r4,r2,-2
    4fe8:	01 00 60 38 	li      r3,1
    4fec:	80 20 84 38 	addi    r4,r4,8320
    4ff0:	b1 bc ff 4b 	bl      ca0 <00000048.plt_call.__printf_chk@@GLIBC_2.17>
    4ff4:	18 00 41 e8 	ld      r2,24(r1)
    4ff8:	ff ff 18 3b 	addi    r24,r24,-1
    4ffc:	21 00 18 7b 	clrldi. r24,r24,32
    5000:	d0 fc 82 40 	bne     4cd0 <Towers+0xc0>
    5004:	00 01 21 38 	addi    r1,r1,256
    5008:	10 00 01 e8 	ld      r0,16(r1)
    500c:	08 00 81 81 	lwz     r12,8(r1)
    5010:	70 ff c1 e9 	ld      r14,-144(r1)
    5014:	78 ff e1 e9 	ld      r15,-136(r1)
    5018:	80 ff 01 ea 	ld      r16,-128(r1)
    501c:	88 ff 21 ea 	ld      r17,-120(r1)
    5020:	90 ff 41 ea 	ld      r18,-112(r1)
    5024:	98 ff 61 ea 	ld      r19,-104(r1)
    5028:	a0 ff 81 ea 	ld      r20,-96(r1)
    502c:	a8 ff a1 ea 	ld      r21,-88(r1)
    5030:	b0 ff c1 ea 	ld      r22,-80(r1)
    5034:	b8 ff e1 ea 	ld      r23,-72(r1)
    5038:	a6 03 08 7c 	mtlr    r0
    503c:	c0 ff 01 eb 	ld      r24,-64(r1)
    5040:	c8 ff 21 eb 	ld      r25,-56(r1)
    5044:	d0 ff 41 eb 	ld      r26,-48(r1)
    5048:	d8 ff 61 eb 	ld      r27,-40(r1)
    504c:	20 81 90 7d 	mtocrf  8,r12
    5050:	e0 ff 81 eb 	ld      r28,-32(r1)
    5054:	e8 ff a1 eb 	ld      r29,-24(r1)
    5058:	f0 ff c1 eb 	ld      r30,-16(r1)
    505c:	f8 ff e1 eb 	ld      r31,-8(r1)
    5060:	20 00 80 4e 	blr
    5064:	00 00 00 60 	nop
    5068:	00 00 00 60 	nop
    506c:	00 00 42 60 	ori     r2,r2,0
    5070:	78 cb 25 7f 	mr      r5,r25
    5074:	78 db 64 7f 	mr      r4,r27
    5078:	01 00 60 38 	li      r3,1
    507c:	25 bc ff 4b 	bl      ca0 <00000048.plt_call.__printf_chk@@GLIBC_2.17>
    5080:	18 00 41 e8 	ld      r2,24(r1)
    5084:	06 00 5e e9 	lwa     r10,4(r30)
    5088:	00 00 e0 38 	li      r7,0
    508c:	00 00 00 39 	li      r8,0
    5090:	9c fc ff 4b 	b       4d2c <Towers+0x11c>
    5094:	00 00 00 60 	nop
    5098:	00 00 00 60 	nop
    509c:	00 00 42 60 	ori     r2,r2,0
    50a0:	02 00 3d e9 	lwa     r9,0(r29)
    50a4:	aa 9a 1e 7d 	lwax    r8,r30,r19
    50a8:	24 1f 2a 79 	rldicr  r10,r9,3,60
    50ac:	14 52 bf 7c 	add     r5,r31,r10
    50b0:	06 00 a5 e8 	lwa     r5,4(r5)
    50b4:	00 00 bd 90 	stw     r5,0(r29)
    50b8:	14 52 bf 7c 	add     r5,r31,r10
    50bc:	2e 99 3e 7d 	stwx    r9,r30,r19
    50c0:	2e 51 9f 7c 	stwx    r4,r31,r10
    50c4:	04 00 05 91 	stw     r8,4(r5)
    50c8:	88 fd ff 4b 	b       4e50 <Towers+0x240>
    50cc:	00 00 42 60 	ori     r2,r2,0
    50d0:	02 00 3d e9 	lwa     r9,0(r29)
    50d4:	02 00 5c e9 	lwa     r10,0(r28)
    50d8:	24 1f 28 79 	rldicr  r8,r9,3,60
    50dc:	14 42 bf 7c 	add     r5,r31,r8
    50e0:	06 00 a5 e8 	lwa     r5,4(r5)
    50e4:	00 00 bd 90 	stw     r5,0(r29)
    50e8:	14 42 bf 7c 	add     r5,r31,r8
    50ec:	08 00 3e 91 	stw     r9,8(r30)
    50f0:	2e 41 9f 7c 	stwx    r4,r31,r8
    50f4:	04 00 e5 90 	stw     r7,4(r5)
    50f8:	58 fe ff 4b 	b       4f50 <Towers+0x340>
    50fc:	00 00 42 60 	ori     r2,r2,0
    5100:	02 00 3d e9 	lwa     r9,0(r29)
    5104:	aa 9a 1e 7d 	lwax    r8,r30,r19
    5108:	24 1f 2a 79 	rldicr  r10,r9,3,60
    510c:	14 52 ff 7c 	add     r7,r31,r10
    5110:	06 00 e7 e8 	lwa     r7,4(r7)
    5114:	00 00 fd 90 	stw     r7,0(r29)
    5118:	2e 99 3e 7d 	stwx    r9,r30,r19
    511c:	64 17 ef 79 	rldicr  r15,r15,2,61
    5120:	14 52 ff 7c 	add     r7,r31,r10
    5124:	2e 51 bf 7c 	stwx    r5,r31,r10
    5128:	04 00 07 91 	stw     r8,4(r7)
    512c:	00 00 1c 81 	lwz     r8,0(r28)
    5130:	aa 7a 3e 7d 	lwax    r9,r30,r15
    5134:	01 00 08 39 	addi    r8,r8,1
    5138:	b4 07 0a 7d 	extsw   r10,r8
    513c:	00 00 1c 91 	stw     r8,0(r28)
    5140:	00 00 89 2f 	cmpwi   cr7,r9,0
    5144:	ac fd 9d 41 	bgt     cr7,4ef0 <Towers+0x2e0>
    5148:	68 00 a1 e8 	ld      r5,104(r1)
    514c:	78 db 64 7f 	mr      r4,r27
    5150:	01 00 60 38 	li      r3,1
    5154:	4d bb ff 4b 	bl      ca0 <00000048.plt_call.__printf_chk@@GLIBC_2.17>
    5158:	18 00 41 e8 	ld      r2,24(r1)
    515c:	0a 00 fe e8 	lwa     r7,8(r30)
    5160:	00 00 87 2f 	cmpwi   cr7,r7,0
    5164:	14 00 9d 40 	ble     cr7,5178 <Towers+0x568>
    5168:	24 1f e9 78 	rldicr  r9,r7,3,60
    516c:	2e 48 3f 7d 	lwzx    r9,r31,r9
    5170:	00 00 89 2f 	cmpwi   cr7,r9,0
    5174:	b8 fd 9c 41 	blt     cr7,4f2c <Towers+0x31c>
    5178:	02 00 3d e9 	lwa     r9,0(r29)
    517c:	00 00 89 2f 	cmpwi   cr7,r9,0
    5180:	b8 01 9d 41 	bgt     cr7,5338 <Towers+0x728>
    5184:	78 db 64 7f 	mr      r4,r27
    5188:	78 cb 25 7f 	mr      r5,r25
    518c:	01 00 60 38 	li      r3,1
    5190:	11 bb ff 4b 	bl      ca0 <00000048.plt_call.__printf_chk@@GLIBC_2.17>
    5194:	18 00 41 e8 	ld      r2,24(r1)
    5198:	0a 00 fe e8 	lwa     r7,8(r30)
    519c:	ff ff 80 38 	li      r4,-1
    51a0:	00 00 20 39 	li      r9,0
    51a4:	02 00 5c e9 	lwa     r10,0(r28)
    51a8:	00 00 00 39 	li      r8,0
    51ac:	3c ff ff 4b 	b       50e8 <Towers+0x4d8>
    51b0:	78 7b f2 7d 	mr      r18,r15
    51b4:	64 17 13 7a 	rldicr  r19,r16,2,61
    51b8:	64 17 52 7a 	rldicr  r18,r18,2,61
    51bc:	aa 92 3e 7d 	lwax    r9,r30,r18
    51c0:	00 00 89 2f 	cmpwi   cr7,r9,0
    51c4:	b4 fc 9d 41 	bgt     cr7,4e78 <Towers+0x268>
    51c8:	68 00 a1 e8 	ld      r5,104(r1)
    51cc:	78 db 64 7f 	mr      r4,r27
    51d0:	01 00 60 38 	li      r3,1
    51d4:	cd ba ff 4b 	bl      ca0 <00000048.plt_call.__printf_chk@@GLIBC_2.17>
    51d8:	18 00 41 e8 	ld      r2,24(r1)
    51dc:	aa 9a 3e 7d 	lwax    r9,r30,r19
    51e0:	00 00 89 2f 	cmpwi   cr7,r9,0
    51e4:	14 00 9d 40 	ble     cr7,51f8 <Towers+0x5e8>
    51e8:	24 1f 29 79 	rldicr  r9,r9,3,60
    51ec:	2e 48 3f 7d 	lwzx    r9,r31,r9
    51f0:	00 00 89 2f 	cmpwi   cr7,r9,0
    51f4:	c0 fc 9c 41 	blt     cr7,4eb4 <Towers+0x2a4>
    51f8:	02 00 3d e9 	lwa     r9,0(r29)
    51fc:	00 00 89 2f 	cmpwi   cr7,r9,0
    5200:	30 01 9d 41 	bgt     cr7,5330 <Towers+0x720>
    5204:	78 cb 25 7f 	mr      r5,r25
    5208:	78 db 64 7f 	mr      r4,r27
    520c:	01 00 60 38 	li      r3,1
    5210:	91 ba ff 4b 	bl      ca0 <00000048.plt_call.__printf_chk@@GLIBC_2.17>
    5214:	18 00 41 e8 	ld      r2,24(r1)
    5218:	aa 9a 1e 7d 	lwax    r8,r30,r19
    521c:	ff ff a0 38 	li      r5,-1
    5220:	00 00 20 39 	li      r9,0
    5224:	00 00 40 39 	li      r10,0
    5228:	f0 fe ff 4b 	b       5118 <Towers+0x508>
    522c:	00 00 42 60 	ori     r2,r2,0
    5230:	02 00 3d e9 	lwa     r9,0(r29)
    5234:	02 00 5c e9 	lwa     r10,0(r28)
    5238:	24 1f 28 79 	rldicr  r8,r9,3,60
    523c:	14 42 df 7c 	add     r6,r31,r8
    5240:	06 00 a6 e8 	lwa     r5,4(r6)
    5244:	00 00 bd 90 	stw     r5,0(r29)
    5248:	14 42 df 7c 	add     r6,r31,r8
    524c:	08 00 3e 91 	stw     r9,8(r30)
    5250:	2e 41 9f 7c 	stwx    r4,r31,r8
    5254:	04 00 e6 90 	stw     r7,4(r6)
    5258:	78 fd ff 4b 	b       4fd0 <Towers+0x3c0>
    525c:	68 00 a1 e8 	ld      r5,104(r1)
    5260:	78 db 64 7f 	mr      r4,r27
    5264:	01 00 60 38 	li      r3,1
    5268:	39 ba ff 4b 	bl      ca0 <00000048.plt_call.__printf_chk@@GLIBC_2.17>
    526c:	18 00 41 e8 	ld      r2,24(r1)
    5270:	aa 9a 3e 7d 	lwax    r9,r30,r19
    5274:	00 00 89 2f 	cmpwi   cr7,r9,0
    5278:	14 00 9d 40 	ble     cr7,528c <Towers+0x67c>
    527c:	24 1f 29 79 	rldicr  r9,r9,3,60
    5280:	2e 48 3f 7d 	lwzx    r9,r31,r9
    5284:	00 00 89 2f 	cmpwi   cr7,r9,0
    5288:	ac fb 9c 41 	blt     cr7,4e34 <Towers+0x224>
    528c:	02 00 3d e9 	lwa     r9,0(r29)
    5290:	00 00 89 2f 	cmpwi   cr7,r9,0
    5294:	94 00 9d 41 	bgt     cr7,5328 <Towers+0x718>
    5298:	78 db 64 7f 	mr      r4,r27
    529c:	78 cb 25 7f 	mr      r5,r25
    52a0:	01 00 60 38 	li      r3,1
    52a4:	fd b9 ff 4b 	bl      ca0 <00000048.plt_call.__printf_chk@@GLIBC_2.17>
    52a8:	18 00 41 e8 	ld      r2,24(r1)
    52ac:	aa 9a 1e 7d 	lwax    r8,r30,r19
    52b0:	ff ff 80 38 	li      r4,-1
    52b4:	00 00 20 39 	li      r9,0
    52b8:	00 00 40 39 	li      r10,0
    52bc:	fc fd ff 4b 	b       50b8 <Towers+0x4a8>
    52c0:	68 00 a1 e8 	ld      r5,104(r1)
    52c4:	78 db 64 7f 	mr      r4,r27
    52c8:	01 00 60 38 	li      r3,1
    52cc:	d5 b9 ff 4b 	bl      ca0 <00000048.plt_call.__printf_chk@@GLIBC_2.17>
    52d0:	18 00 41 e8 	ld      r2,24(r1)
    52d4:	0a 00 fe e8 	lwa     r7,8(r30)
    52d8:	00 00 87 2f 	cmpwi   cr7,r7,0
    52dc:	14 00 9d 40 	ble     cr7,52f0 <Towers+0x6e0>
    52e0:	24 1f e9 78 	rldicr  r9,r7,3,60
    52e4:	2e 48 3f 7d 	lwzx    r9,r31,r9
    52e8:	00 00 89 2f 	cmpwi   cr7,r9,0
    52ec:	c0 fc 9c 41 	blt     cr7,4fac <Towers+0x39c>
    52f0:	02 00 3d e9 	lwa     r9,0(r29)
    52f4:	00 00 89 2f 	cmpwi   cr7,r9,0
    52f8:	48 00 9d 41 	bgt     cr7,5340 <Towers+0x730>
    52fc:	78 db 64 7f 	mr      r4,r27
    5300:	78 cb 25 7f 	mr      r5,r25
    5304:	01 00 60 38 	li      r3,1
    5308:	99 b9 ff 4b 	bl      ca0 <00000048.plt_call.__printf_chk@@GLIBC_2.17>
    530c:	18 00 41 e8 	ld      r2,24(r1)
    5310:	0a 00 fe e8 	lwa     r7,8(r30)
    5314:	ff ff 80 38 	li      r4,-1
    5318:	00 00 20 39 	li      r9,0
    531c:	02 00 5c e9 	lwa     r10,0(r28)
    5320:	00 00 00 39 	li      r8,0
    5324:	24 ff ff 4b 	b       5248 <Towers+0x638>
    5328:	ff ff 80 38 	li      r4,-1
    532c:	78 fd ff 4b 	b       50a4 <Towers+0x494>
    5330:	ff ff a0 38 	li      r5,-1
    5334:	d0 fd ff 4b 	b       5104 <Towers+0x4f4>
    5338:	ff ff 80 38 	li      r4,-1
    533c:	98 fd ff 4b 	b       50d4 <Towers+0x4c4>
    5340:	ff ff 80 38 	li      r4,-1
    5344:	f0 fe ff 4b 	b       5234 <Towers+0x624>
    5348:	00 00 00 00 	.long 0x0
    534c:	00 00 00 03 	.long 0x3000000
    5350:	80 12 00 00 	.long 0x1280
    5354:	00 00 00 60 	nop
    5358:	00 00 00 60 	nop
    535c:	00 00 42 60 	ori     r2,r2,0

0000000000005360 <Try>:
    5360:	02 00 4c 3c 	addis   r2,r12,2
    5364:	a0 2b 42 38 	addi    r2,r2,11168
    5368:	07 00 83 2f 	cmpwi   cr7,r3,7
    536c:	00 00 40 39 	li      r10,0
    5370:	c8 ff 21 fb 	std     r25,-56(r1)
    5374:	21 ff 21 f8 	stdu    r1,-224(r1)
    5378:	64 17 6b 78 	rldicr  r11,r3,2,61
    537c:	00 00 44 91 	stw     r10,0(r4)
    5380:	14 5a 28 7f 	add     r25,r8,r11
    5384:	9c 03 9d 40 	ble     cr7,5720 <Try+0x3c0>
    5388:	04 00 26 81 	lwz     r9,4(r6)
    538c:	00 00 89 2f 	cmpwi   cr7,r9,0
    5390:	80 00 9e 41 	beq     cr7,5410 <Try+0xb0>
    5394:	01 00 23 39 	addi    r9,r3,1
    5398:	b4 07 29 7d 	extsw   r9,r9
    539c:	64 17 29 79 	rldicr  r9,r9,2,61
    53a0:	2e 48 05 7c 	lwzx    r0,r5,r9
    53a4:	00 00 80 2f 	cmpwi   cr7,r0,0
    53a8:	68 00 9e 41 	beq     cr7,5410 <Try+0xb0>
    53ac:	ff ff 03 38 	addi    r0,r3,-1
    53b0:	d8 00 e1 fb 	std     r31,216(r1)
    53b4:	b4 07 1f 7c 	extsw   r31,r0
    53b8:	07 00 1f 38 	addi    r0,r31,7
    53bc:	64 17 00 78 	rldicr  r0,r0,2,61
    53c0:	2e 00 e7 7f 	lwzx    r31,r7,r0
    53c4:	00 00 9f 2f 	cmpwi   cr7,r31,0
    53c8:	38 00 9e 41 	beq     cr7,5400 <Try+0xa0>
    53cc:	01 00 60 38 	li      r3,1
    53d0:	d8 00 e1 eb 	ld      r31,216(r1)
    53d4:	2e 59 68 7c 	stwx    r3,r8,r11
    53d8:	04 00 46 91 	stw     r10,4(r6)
    53dc:	2e 49 45 7d 	stwx    r10,r5,r9
    53e0:	2e 01 47 7d 	stwx    r10,r7,r0
    53e4:	00 00 64 90 	stw     r3,0(r4)
    53e8:	e0 00 21 38 	addi    r1,r1,224
    53ec:	c8 ff 21 eb 	ld      r25,-56(r1)
    53f0:	20 00 80 4e 	blr
    53f4:	00 00 00 60 	nop
    53f8:	00 00 00 60 	nop
    53fc:	00 00 42 60 	ori     r2,r2,0
    5400:	d8 00 e1 eb 	ld      r31,216(r1)
    5404:	00 00 00 60 	nop
    5408:	00 00 00 60 	nop
    540c:	00 00 42 60 	ori     r2,r2,0
    5410:	08 00 26 81 	lwz     r9,8(r6)
    5414:	00 00 89 2f 	cmpwi   cr7,r9,0
    5418:	68 00 9e 41 	beq     cr7,5480 <Try+0x120>
    541c:	02 00 23 39 	addi    r9,r3,2
    5420:	b4 07 29 7d 	extsw   r9,r9
    5424:	64 17 29 79 	rldicr  r9,r9,2,61
    5428:	2e 48 45 7d 	lwzx    r10,r5,r9
    542c:	00 00 8a 2f 	cmpwi   cr7,r10,0
    5430:	50 00 9e 41 	beq     cr7,5480 <Try+0x120>
    5434:	fe ff 43 39 	addi    r10,r3,-2
    5438:	b4 07 4a 7d 	extsw   r10,r10
    543c:	07 00 4a 39 	addi    r10,r10,7
    5440:	64 17 4a 79 	rldicr  r10,r10,2,61
    5444:	2e 50 07 7c 	lwzx    r0,r7,r10
    5448:	00 00 80 2f 	cmpwi   cr7,r0,0
    544c:	34 00 9e 41 	beq     cr7,5480 <Try+0x120>
    5450:	d8 00 e1 fb 	std     r31,216(r1)
    5454:	00 00 60 38 	li      r3,0
    5458:	02 00 e0 3b 	li      r31,2
    545c:	01 00 00 38 	li      r0,1
    5460:	2e 59 e8 7f 	stwx    r31,r8,r11
    5464:	08 00 66 90 	stw     r3,8(r6)
    5468:	2e 49 65 7c 	stwx    r3,r5,r9
    546c:	2e 51 67 7c 	stwx    r3,r7,r10
    5470:	00 00 04 90 	stw     r0,0(r4)
    5474:	d8 00 e1 eb 	ld      r31,216(r1)
    5478:	70 ff ff 4b 	b       53e8 <Try+0x88>
    547c:	00 00 42 60 	ori     r2,r2,0
    5480:	0c 00 26 81 	lwz     r9,12(r6)
    5484:	00 00 89 2f 	cmpwi   cr7,r9,0
    5488:	68 00 9e 41 	beq     cr7,54f0 <Try+0x190>
    548c:	03 00 23 39 	addi    r9,r3,3
    5490:	b4 07 29 7d 	extsw   r9,r9
    5494:	64 17 29 79 	rldicr  r9,r9,2,61
    5498:	2e 48 45 7d 	lwzx    r10,r5,r9
    549c:	00 00 8a 2f 	cmpwi   cr7,r10,0
    54a0:	50 00 9e 41 	beq     cr7,54f0 <Try+0x190>
    54a4:	fd ff 43 39 	addi    r10,r3,-3
    54a8:	b4 07 4a 7d 	extsw   r10,r10
    54ac:	07 00 4a 39 	addi    r10,r10,7
    54b0:	64 17 4a 79 	rldicr  r10,r10,2,61
    54b4:	2e 50 07 7c 	lwzx    r0,r7,r10
    54b8:	00 00 80 2f 	cmpwi   cr7,r0,0
    54bc:	34 00 9e 41 	beq     cr7,54f0 <Try+0x190>
    54c0:	d8 00 e1 fb 	std     r31,216(r1)
    54c4:	00 00 60 38 	li      r3,0
    54c8:	03 00 e0 3b 	li      r31,3
    54cc:	01 00 00 38 	li      r0,1
    54d0:	2e 59 e8 7f 	stwx    r31,r8,r11
    54d4:	0c 00 66 90 	stw     r3,12(r6)
    54d8:	2e 49 65 7c 	stwx    r3,r5,r9
    54dc:	2e 51 67 7c 	stwx    r3,r7,r10
    54e0:	00 00 04 90 	stw     r0,0(r4)
    54e4:	d8 00 e1 eb 	ld      r31,216(r1)
    54e8:	00 ff ff 4b 	b       53e8 <Try+0x88>
    54ec:	00 00 42 60 	ori     r2,r2,0
    54f0:	10 00 26 81 	lwz     r9,16(r6)
    54f4:	00 00 89 2f 	cmpwi   cr7,r9,0
    54f8:	78 00 9e 40 	bne     cr7,5570 <Try+0x210>
    54fc:	14 00 26 81 	lwz     r9,20(r6)
    5500:	00 00 89 2f 	cmpwi   cr7,r9,0
    5504:	cc 00 9e 41 	beq     cr7,55d0 <Try+0x270>
    5508:	05 00 23 39 	addi    r9,r3,5
    550c:	b4 07 29 7d 	extsw   r9,r9
    5510:	64 17 29 79 	rldicr  r9,r9,2,61
    5514:	2e 48 45 7d 	lwzx    r10,r5,r9
    5518:	00 00 8a 2f 	cmpwi   cr7,r10,0
    551c:	b4 00 9e 41 	beq     cr7,55d0 <Try+0x270>
    5520:	fb ff 43 39 	addi    r10,r3,-5
    5524:	b4 07 4a 7d 	extsw   r10,r10
    5528:	07 00 4a 39 	addi    r10,r10,7
    552c:	64 17 4a 79 	rldicr  r10,r10,2,61
    5530:	2e 50 07 7c 	lwzx    r0,r7,r10
    5534:	00 00 80 2f 	cmpwi   cr7,r0,0
    5538:	98 00 9e 41 	beq     cr7,55d0 <Try+0x270>
    553c:	d8 00 e1 fb 	std     r31,216(r1)
    5540:	00 00 60 38 	li      r3,0
    5544:	05 00 e0 3b 	li      r31,5
    5548:	01 00 00 38 	li      r0,1
    554c:	2e 59 e8 7f 	stwx    r31,r8,r11
    5550:	14 00 66 90 	stw     r3,20(r6)
    5554:	2e 49 65 7c 	stwx    r3,r5,r9
    5558:	2e 51 67 7c 	stwx    r3,r7,r10
    555c:	00 00 04 90 	stw     r0,0(r4)
    5560:	d8 00 e1 eb 	ld      r31,216(r1)
    5564:	84 fe ff 4b 	b       53e8 <Try+0x88>
    5568:	00 00 00 60 	nop
    556c:	00 00 42 60 	ori     r2,r2,0
    5570:	04 00 23 39 	addi    r9,r3,4
    5574:	b4 07 29 7d 	extsw   r9,r9
    5578:	64 17 29 79 	rldicr  r9,r9,2,61
    557c:	2e 48 45 7d 	lwzx    r10,r5,r9
    5580:	00 00 8a 2f 	cmpwi   cr7,r10,0
    5584:	78 ff 9e 41 	beq     cr7,54fc <Try+0x19c>
    5588:	fc ff 43 39 	addi    r10,r3,-4
    558c:	b4 07 4a 7d 	extsw   r10,r10
    5590:	07 00 4a 39 	addi    r10,r10,7
    5594:	64 17 4a 79 	rldicr  r10,r10,2,61
    5598:	2e 50 07 7c 	lwzx    r0,r7,r10
    559c:	00 00 80 2f 	cmpwi   cr7,r0,0
    55a0:	5c ff 9e 41 	beq     cr7,54fc <Try+0x19c>
    55a4:	d8 00 e1 fb 	std     r31,216(r1)
    55a8:	00 00 60 38 	li      r3,0
    55ac:	04 00 e0 3b 	li      r31,4
    55b0:	01 00 00 38 	li      r0,1
    55b4:	2e 59 e8 7f 	stwx    r31,r8,r11
    55b8:	10 00 66 90 	stw     r3,16(r6)
    55bc:	2e 49 65 7c 	stwx    r3,r5,r9
    55c0:	2e 51 67 7c 	stwx    r3,r7,r10
    55c4:	00 00 04 90 	stw     r0,0(r4)
    55c8:	d8 00 e1 eb 	ld      r31,216(r1)
    55cc:	1c fe ff 4b 	b       53e8 <Try+0x88>
    55d0:	18 00 26 81 	lwz     r9,24(r6)
    55d4:	00 00 89 2f 	cmpwi   cr7,r9,0
    55d8:	68 00 9e 41 	beq     cr7,5640 <Try+0x2e0>
    55dc:	06 00 23 39 	addi    r9,r3,6
    55e0:	b4 07 29 7d 	extsw   r9,r9
    55e4:	64 17 29 79 	rldicr  r9,r9,2,61
    55e8:	2e 48 45 7d 	lwzx    r10,r5,r9
    55ec:	00 00 8a 2f 	cmpwi   cr7,r10,0
    55f0:	50 00 9e 41 	beq     cr7,5640 <Try+0x2e0>
    55f4:	fa ff 43 39 	addi    r10,r3,-6
    55f8:	b4 07 4a 7d 	extsw   r10,r10
    55fc:	07 00 4a 39 	addi    r10,r10,7
    5600:	64 17 4a 79 	rldicr  r10,r10,2,61
    5604:	2e 50 07 7c 	lwzx    r0,r7,r10
    5608:	00 00 80 2f 	cmpwi   cr7,r0,0
    560c:	34 00 9e 41 	beq     cr7,5640 <Try+0x2e0>
    5610:	d8 00 e1 fb 	std     r31,216(r1)
    5614:	00 00 60 38 	li      r3,0
    5618:	06 00 e0 3b 	li      r31,6
    561c:	01 00 00 38 	li      r0,1
    5620:	2e 59 e8 7f 	stwx    r31,r8,r11
    5624:	18 00 66 90 	stw     r3,24(r6)
    5628:	2e 49 65 7c 	stwx    r3,r5,r9
    562c:	2e 51 67 7c 	stwx    r3,r7,r10
    5630:	00 00 04 90 	stw     r0,0(r4)
    5634:	d8 00 e1 eb 	ld      r31,216(r1)
    5638:	b0 fd ff 4b 	b       53e8 <Try+0x88>
    563c:	00 00 42 60 	ori     r2,r2,0
    5640:	1c 00 26 81 	lwz     r9,28(r6)
    5644:	00 00 89 2f 	cmpwi   cr7,r9,0
    5648:	68 00 9e 41 	beq     cr7,56b0 <Try+0x350>
    564c:	07 00 23 39 	addi    r9,r3,7
    5650:	b4 07 29 7d 	extsw   r9,r9
    5654:	64 17 29 79 	rldicr  r9,r9,2,61
    5658:	2e 48 45 7d 	lwzx    r10,r5,r9
    565c:	00 00 8a 2f 	cmpwi   cr7,r10,0
    5660:	50 00 9e 41 	beq     cr7,56b0 <Try+0x350>
    5664:	f9 ff 43 39 	addi    r10,r3,-7
    5668:	b4 07 4a 7d 	extsw   r10,r10
    566c:	07 00 4a 39 	addi    r10,r10,7
    5670:	64 17 4a 79 	rldicr  r10,r10,2,61
    5674:	2e 50 07 7c 	lwzx    r0,r7,r10
    5678:	00 00 80 2f 	cmpwi   cr7,r0,0
    567c:	34 00 9e 41 	beq     cr7,56b0 <Try+0x350>
    5680:	d8 00 e1 fb 	std     r31,216(r1)
    5684:	00 00 60 38 	li      r3,0
    5688:	07 00 e0 3b 	li      r31,7
    568c:	01 00 00 38 	li      r0,1
    5690:	2e 59 e8 7f 	stwx    r31,r8,r11
    5694:	1c 00 66 90 	stw     r3,28(r6)
    5698:	2e 49 65 7c 	stwx    r3,r5,r9
    569c:	2e 51 67 7c 	stwx    r3,r7,r10
    56a0:	00 00 04 90 	stw     r0,0(r4)
    56a4:	d8 00 e1 eb 	ld      r31,216(r1)
    56a8:	40 fd ff 4b 	b       53e8 <Try+0x88>
    56ac:	00 00 42 60 	ori     r2,r2,0
    56b0:	20 00 26 81 	lwz     r9,32(r6)
    56b4:	00 00 89 2f 	cmpwi   cr7,r9,0
    56b8:	30 fd 9e 41 	beq     cr7,53e8 <Try+0x88>
    56bc:	08 00 23 39 	addi    r9,r3,8
    56c0:	b4 07 29 7d 	extsw   r9,r9
    56c4:	64 17 29 79 	rldicr  r9,r9,2,61
    56c8:	2e 48 45 7d 	lwzx    r10,r5,r9
    56cc:	00 00 8a 2f 	cmpwi   cr7,r10,0
    56d0:	18 fd 9e 41 	beq     cr7,53e8 <Try+0x88>
    56d4:	f8 ff 43 39 	addi    r10,r3,-8
    56d8:	b4 07 4a 7d 	extsw   r10,r10
    56dc:	07 00 4a 39 	addi    r10,r10,7
    56e0:	64 17 4a 79 	rldicr  r10,r10,2,61
    56e4:	2e 50 67 7c 	lwzx    r3,r7,r10
    56e8:	00 00 83 2f 	cmpwi   cr7,r3,0
    56ec:	fc fc 9e 41 	beq     cr7,53e8 <Try+0x88>
    56f0:	d8 00 e1 fb 	std     r31,216(r1)
    56f4:	00 00 60 38 	li      r3,0
    56f8:	08 00 e0 3b 	li      r31,8
    56fc:	01 00 00 38 	li      r0,1
    5700:	2e 59 e8 7f 	stwx    r31,r8,r11
    5704:	20 00 66 90 	stw     r3,32(r6)
    5708:	2e 49 65 7c 	stwx    r3,r5,r9
    570c:	2e 51 67 7c 	stwx    r3,r7,r10
    5710:	00 00 04 90 	stw     r0,0(r4)
    5714:	d8 00 e1 eb 	ld      r31,216(r1)
    5718:	d0 fc ff 4b 	b       53e8 <Try+0x88>
    571c:	00 00 42 60 	ori     r2,r2,0
    5720:	68 00 21 fa 	std     r17,104(r1)
    5724:	b0 00 41 fb 	std     r26,176(r1)
    5728:	90 00 c1 fa 	std     r22,144(r1)
    572c:	01 00 c3 3a 	addi    r22,r3,1
    5730:	70 00 41 fa 	std     r18,112(r1)
    5734:	01 00 40 3a 	li      r18,1
    5738:	78 00 61 fa 	std     r19,120(r1)
    573c:	80 00 81 fa 	std     r20,128(r1)
    5740:	b4 07 d6 7e 	extsw   r22,r22
    5744:	78 23 94 7c 	mr      r20,r4
    5748:	88 00 a1 fa 	std     r21,136(r1)
    574c:	98 00 e1 fa 	std     r23,152(r1)
    5750:	20 00 a6 3a 	addi    r21,r6,32
    5754:	00 00 e0 3a 	li      r23,0
    5758:	a0 00 01 fb 	std     r24,160(r1)
    575c:	b8 00 61 fb 	std     r27,184(r1)
    5760:	78 33 d8 7c 	mr      r24,r6
    5764:	78 43 1b 7d 	mr      r27,r8
    5768:	c0 00 81 fb 	std     r28,192(r1)
    576c:	c8 00 a1 fb 	std     r29,200(r1)
    5770:	78 3b fc 7c 	mr      r28,r7
    5774:	78 2b bd 7c 	mr      r29,r5
    5778:	d0 00 c1 fb 	std     r30,208(r1)
    577c:	d8 00 e1 fb 	std     r31,216(r1)
    5780:	78 33 de 7c 	mr      r30,r6
    5784:	20 00 7f 78 	clrldi  r31,r3,32
    5788:	00 00 60 3a 	li      r19,0
    578c:	04 00 38 85 	lwzu    r9,4(r24)
    5790:	01 00 77 39 	addi    r11,r23,1
    5794:	14 5a 5f 7d 	add     r10,r31,r11
    5798:	b4 07 77 7d 	extsw   r23,r11
    579c:	b4 07 4a 7d 	extsw   r10,r10
    57a0:	00 00 89 2f 	cmpwi   cr7,r9,0
    57a4:	64 17 51 79 	rldicr  r17,r10,2,61
    57a8:	98 00 9e 41 	beq     cr7,5840 <Try+0x4e0>
    57ac:	2e 88 5d 7d 	lwzx    r10,r29,r17
    57b0:	50 f8 2b 7d 	subf    r9,r11,r31
    57b4:	b4 07 29 7d 	extsw   r9,r9
    57b8:	07 00 29 39 	addi    r9,r9,7
    57bc:	00 00 8a 2f 	cmpwi   cr7,r10,0
    57c0:	64 17 3a 79 	rldicr  r26,r9,2,61
    57c4:	7c 00 9e 41 	beq     cr7,5840 <Try+0x4e0>
    57c8:	2e d0 3c 7d 	lwzx    r9,r28,r26
    57cc:	78 db 68 7f 	mr      r8,r27
    57d0:	78 e3 87 7f 	mr      r7,r28
    57d4:	78 f3 c6 7f 	mr      r6,r30
    57d8:	78 eb a5 7f 	mr      r5,r29
    57dc:	78 a3 84 7e 	mr      r4,r20
    57e0:	78 b3 c3 7e 	mr      r3,r22
    57e4:	00 00 89 2f 	cmpwi   cr7,r9,0
    57e8:	58 00 9e 41 	beq     cr7,5840 <Try+0x4e0>
    57ec:	a6 02 08 7c 	mflr    r0
    57f0:	f0 00 01 f8 	std     r0,240(r1)
    57f4:	00 00 79 91 	stw     r11,0(r25)
    57f8:	00 00 78 92 	stw     r19,0(r24)
    57fc:	2e 89 7d 7e 	stwx    r19,r29,r17
    5800:	2e d1 7c 7e 	stwx    r19,r28,r26
    5804:	65 fb ff 4b 	bl      5368 <Try+0x8>
    5808:	00 00 34 81 	lwz     r9,0(r20)
    580c:	00 00 89 2f 	cmpwi   cr7,r9,0
    5810:	80 00 9e 40 	bne     cr7,5890 <Try+0x530>
    5814:	00 00 58 92 	stw     r18,0(r24)
    5818:	2e 89 5d 7e 	stwx    r18,r29,r17
    581c:	2e d1 5c 7e 	stwx    r18,r28,r26
    5820:	00 00 34 81 	lwz     r9,0(r20)
    5824:	00 00 89 2f 	cmpwi   cr7,r9,0
    5828:	68 00 9e 40 	bne     cr7,5890 <Try+0x530>
    582c:	f0 00 01 e8 	ld      r0,240(r1)
    5830:	a6 03 08 7c 	mtlr    r0
    5834:	00 00 00 60 	nop
    5838:	00 00 00 60 	nop
    583c:	00 00 42 60 	ori     r2,r2,0
    5840:	40 a8 b8 7f 	cmpld   cr7,r24,r21
    5844:	48 ff 9e 40 	bne     cr7,578c <Try+0x42c>
    5848:	68 00 21 ea 	ld      r17,104(r1)
    584c:	70 00 41 ea 	ld      r18,112(r1)
    5850:	78 00 61 ea 	ld      r19,120(r1)
    5854:	80 00 81 ea 	ld      r20,128(r1)
    5858:	88 00 a1 ea 	ld      r21,136(r1)
    585c:	90 00 c1 ea 	ld      r22,144(r1)
    5860:	98 00 e1 ea 	ld      r23,152(r1)
    5864:	a0 00 01 eb 	ld      r24,160(r1)
    5868:	b0 00 41 eb 	ld      r26,176(r1)
    586c:	b8 00 61 eb 	ld      r27,184(r1)
    5870:	c0 00 81 eb 	ld      r28,192(r1)
    5874:	c8 00 a1 eb 	ld      r29,200(r1)
    5878:	d0 00 c1 eb 	ld      r30,208(r1)
    587c:	d8 00 e1 eb 	ld      r31,216(r1)
    5880:	68 fb ff 4b 	b       53e8 <Try+0x88>
    5884:	00 00 00 60 	nop
    5888:	00 00 00 60 	nop
    588c:	00 00 42 60 	ori     r2,r2,0
    5890:	f0 00 01 e8 	ld      r0,240(r1)
    5894:	68 00 21 ea 	ld      r17,104(r1)
    5898:	70 00 41 ea 	ld      r18,112(r1)
    589c:	78 00 61 ea 	ld      r19,120(r1)
    58a0:	80 00 81 ea 	ld      r20,128(r1)
    58a4:	88 00 a1 ea 	ld      r21,136(r1)
    58a8:	90 00 c1 ea 	ld      r22,144(r1)
    58ac:	98 00 e1 ea 	ld      r23,152(r1)
    58b0:	a0 00 01 eb 	ld      r24,160(r1)
    58b4:	b0 00 41 eb 	ld      r26,176(r1)
    58b8:	b8 00 61 eb 	ld      r27,184(r1)
    58bc:	c0 00 81 eb 	ld      r28,192(r1)
    58c0:	a6 03 08 7c 	mtlr    r0
    58c4:	c8 00 a1 eb 	ld      r29,200(r1)
    58c8:	d0 00 c1 eb 	ld      r30,208(r1)
    58cc:	d8 00 e1 eb 	ld      r31,216(r1)
    58d0:	18 fb ff 4b 	b       53e8 <Try+0x88>
    58d4:	00 00 00 00 	.long 0x0
    58d8:	00 00 00 01 	.long 0x1000000
    58dc:	80 0f 00 00 	.long 0xf80

00000000000058e0 <Doit>:
    58e0:	02 00 4c 3c 	addis   r2,r12,2
    58e4:	20 26 42 38 	addi    r2,r2,9760
    58e8:	a6 02 08 7c 	mflr    r0
    58ec:	d0 ff 41 fb 	std     r26,-48(r1)
    58f0:	d8 ff 61 fb 	std     r27,-40(r1)
    58f4:	18 00 40 39 	li      r10,24
    58f8:	a6 03 49 7d 	mtctr   r10
    58fc:	98 ff 61 fa 	std     r19,-104(r1)
    5900:	a0 ff 81 fa 	std     r20,-96(r1)
    5904:	01 00 e0 38 	li      r7,1
    5908:	a8 ff a1 fa 	std     r21,-88(r1)
    590c:	b0 ff c1 fa 	std     r22,-80(r1)
    5910:	b8 ff e1 fa 	std     r23,-72(r1)
    5914:	c0 ff 01 fb 	std     r24,-64(r1)
    5918:	e8 ff a1 fb 	std     r29,-24(r1)
    591c:	f0 ff c1 fb 	std     r30,-16(r1)
    5920:	10 00 01 f8 	std     r0,16(r1)
    5924:	f8 ff e1 fb 	std     r31,-8(r1)
    5928:	11 fe 21 f8 	stdu    r1,-496(r1)
    592c:	f0 8f 2d e9 	ld      r9,-28688(r13)
    5930:	58 01 21 f9 	std     r9,344(r1)
    5934:	00 00 20 39 	li      r9,0
    5938:	f9 ff 20 39 	li      r9,-7
    593c:	b4 07 2a 7d 	extsw   r10,r9
    5940:	01 00 8a 2f 	cmpwi   cr7,r10,1
    5944:	d8 00 61 3b 	addi    r27,r1,216
    5948:	90 00 41 3b 	addi    r26,r1,144
    594c:	78 db 68 7f 	mr      r8,r27
    5950:	14 01 c1 38 	addi    r6,r1,276
    5954:	3c 00 9d 40 	ble     cr7,5990 <Doit+0xb0>
    5958:	00 00 00 60 	nop
    595c:	00 00 42 60 	ori     r2,r2,0
    5960:	07 00 8a 2f 	cmpwi   cr7,r10,7
    5964:	64 17 2a 79 	rldicr  r10,r9,2,61
    5968:	2e 31 ea 7c 	stwx    r7,r10,r6
    596c:	24 00 9d 40 	ble     cr7,5990 <Doit+0xb0>
    5970:	28 00 40 42 	bdz     5998 <Doit+0xb8>
    5974:	07 00 89 2b 	cmplwi  cr7,r9,7
    5978:	dc 02 9d 40 	ble     cr7,5c54 <Doit+0x374>
    597c:	01 00 29 39 	addi    r9,r9,1
    5980:	04 00 08 39 	addi    r8,r8,4
    5984:	b4 07 2a 7d 	extsw   r10,r9
    5988:	01 00 8a 2f 	cmpwi   cr7,r10,1
    598c:	d4 ff 9d 41 	bgt     cr7,5960 <Doit+0x80>
    5990:	00 00 e8 90 	stw     r7,0(r8)
    5994:	e0 ff 00 42 	bdnz    5974 <Doit+0x94>
    5998:	00 00 20 39 	li      r9,0
    599c:	1c 01 c1 3b 	addi    r30,r1,284
    59a0:	78 d3 5d 7f 	mr      r29,r26
    59a4:	01 00 e0 3b 	li      r31,1
    59a8:	8c 00 21 91 	stw     r9,140(r1)
    59ac:	00 00 a0 3a 	li      r21,0
    59b0:	00 00 00 3b 	li      r24,0
    59b4:	14 01 c1 3a 	addi    r22,r1,276
    59b8:	b4 00 61 3a 	addi    r19,r1,180
    59bc:	8c 00 81 3a 	addi    r20,r1,140
    59c0:	01 00 e0 3a 	li      r23,1
    59c4:	04 00 3d 85 	lwzu    r9,4(r29)
    59c8:	b4 07 ea 7f 	extsw   r10,r31
    59cc:	00 00 89 2f 	cmpwi   cr7,r9,0
    59d0:	30 01 9e 41 	beq     cr7,5b00 <Doit+0x220>
    59d4:	00 00 3e 81 	lwz     r9,0(r30)
    59d8:	00 00 89 2f 	cmpwi   cr7,r9,0
    59dc:	24 01 9e 41 	beq     cr7,5b00 <Doit+0x220>
    59e0:	b8 01 21 fb 	std     r25,440(r1)
    59e4:	64 17 f9 7b 	rldicr  r25,r31,2,61
    59e8:	50 d8 39 7f 	subf    r25,r25,r27
    59ec:	20 00 39 81 	lwz     r9,32(r25)
    59f0:	00 00 89 2f 	cmpwi   cr7,r9,0
    59f4:	7c 01 9e 41 	beq     cr7,5b70 <Doit+0x290>
    59f8:	80 01 41 fa 	std     r18,384(r1)
    59fc:	d0 01 81 fb 	std     r28,464(r1)
    5a00:	78 d3 52 7f 	mr      r18,r26
    5a04:	01 00 80 3b 	li      r28,1
    5a08:	78 01 21 fa 	std     r17,376(r1)
    5a0c:	b8 00 41 91 	stw     r10,184(r1)
    5a10:	00 00 bd 92 	stw     r21,0(r29)
    5a14:	00 00 1e 93 	stw     r24,0(r30)
    5a18:	20 00 19 93 	stw     r24,32(r25)
    5a1c:	04 00 32 85 	lwzu    r9,4(r18)
    5a20:	b4 07 8a 7f 	extsw   r10,r28
    5a24:	00 00 89 2f 	cmpwi   cr7,r9,0
    5a28:	a8 00 9e 41 	beq     cr7,5ad0 <Doit+0x1f0>
    5a2c:	64 17 91 7b 	rldicr  r17,r28,2,61
    5a30:	14 8a 36 7e 	add     r17,r22,r17
    5a34:	08 00 31 81 	lwz     r9,8(r17)
    5a38:	00 00 89 2f 	cmpwi   cr7,r9,0
    5a3c:	94 00 9e 41 	beq     cr7,5ad0 <Doit+0x1f0>
    5a40:	70 01 01 fa 	std     r16,368(r1)
    5a44:	64 17 90 7b 	rldicr  r16,r28,2,61
    5a48:	50 d8 10 7e 	subf    r16,r16,r27
    5a4c:	24 00 30 81 	lwz     r9,36(r16)
    5a50:	00 00 89 2f 	cmpwi   cr7,r9,0
    5a54:	34 01 9e 41 	beq     cr7,5b88 <Doit+0x2a8>
    5a58:	60 01 c1 f9 	std     r14,352(r1)
    5a5c:	68 01 e1 f9 	std     r15,360(r1)
    5a60:	24 01 61 39 	addi    r11,r1,292
    5a64:	78 d3 4f 7f 	mr      r15,r26
    5a68:	00 00 b2 92 	stw     r21,0(r18)
    5a6c:	08 00 11 93 	stw     r24,8(r17)
    5a70:	00 00 c0 39 	li      r14,0
    5a74:	24 00 10 93 	stw     r24,36(r16)
    5a78:	bc 00 41 91 	stw     r10,188(r1)
    5a7c:	fc 00 41 39 	addi    r10,r1,252
    5a80:	04 00 2f 85 	lwzu    r9,4(r15)
    5a84:	01 00 0e 38 	addi    r0,r14,1
    5a88:	b4 07 0e 7c 	extsw   r14,r0
    5a8c:	00 00 89 2f 	cmpwi   cr7,r9,0
    5a90:	10 00 9e 41 	beq     cr7,5aa0 <Doit+0x1c0>
    5a94:	00 00 2b 81 	lwz     r9,0(r11)
    5a98:	00 00 89 2f 	cmpwi   cr7,r9,0
    5a9c:	00 01 9e 40 	bne     cr7,5b9c <Doit+0x2bc>
    5aa0:	08 00 80 2f 	cmpwi   cr7,r0,8
    5aa4:	04 00 6b 39 	addi    r11,r11,4
    5aa8:	fc ff 4a 39 	addi    r10,r10,-4
    5aac:	d4 ff 9e 40 	bne     cr7,5a80 <Doit+0x1a0>
    5ab0:	00 00 f2 92 	stw     r23,0(r18)
    5ab4:	08 00 f1 92 	stw     r23,8(r17)
    5ab8:	24 00 f0 92 	stw     r23,36(r16)
    5abc:	60 01 c1 e9 	ld      r14,352(r1)
    5ac0:	68 01 e1 e9 	ld      r15,360(r1)
    5ac4:	70 01 01 ea 	ld      r16,368(r1)
    5ac8:	00 00 00 60 	nop
    5acc:	00 00 42 60 	ori     r2,r2,0
    5ad0:	01 00 9c 3b 	addi    r28,r28,1
    5ad4:	09 00 bc 2b 	cmpldi  cr7,r28,9
    5ad8:	44 ff 9e 40 	bne     cr7,5a1c <Doit+0x13c>
    5adc:	00 00 fd 92 	stw     r23,0(r29)
    5ae0:	00 00 fe 92 	stw     r23,0(r30)
    5ae4:	20 00 f9 92 	stw     r23,32(r25)
    5ae8:	78 01 21 ea 	ld      r17,376(r1)
    5aec:	80 01 41 ea 	ld      r18,384(r1)
    5af0:	b8 01 21 eb 	ld      r25,440(r1)
    5af4:	d0 01 81 eb 	ld      r28,464(r1)
    5af8:	00 00 00 60 	nop
    5afc:	00 00 42 60 	ori     r2,r2,0
    5b00:	01 00 ff 3b 	addi    r31,r31,1
    5b04:	04 00 de 3b 	addi    r30,r30,4
    5b08:	09 00 bf 2b 	cmpldi  cr7,r31,9
    5b0c:	b8 fe 9e 40 	bne     cr7,59c4 <Doit+0xe4>
    5b10:	fe ff 62 3c 	addis   r3,r2,-2
    5b14:	98 20 63 38 	addi    r3,r3,8344
    5b18:	09 b0 ff 4b 	bl      b20 <00000048.plt_call.puts@@GLIBC_2.17>
    5b1c:	18 00 41 e8 	ld      r2,24(r1)
    5b20:	58 01 21 e9 	ld      r9,344(r1)
    5b24:	f0 8f 4d e9 	ld      r10,-28688(r13)
    5b28:	79 52 29 7d 	xor.    r9,r9,r10
    5b2c:	00 00 40 39 	li      r10,0
    5b30:	00 01 82 40 	bne     5c30 <Doit+0x350>
    5b34:	f0 01 21 38 	addi    r1,r1,496
    5b38:	10 00 01 e8 	ld      r0,16(r1)
    5b3c:	98 ff 61 ea 	ld      r19,-104(r1)
    5b40:	a0 ff 81 ea 	ld      r20,-96(r1)
    5b44:	a8 ff a1 ea 	ld      r21,-88(r1)
    5b48:	b0 ff c1 ea 	ld      r22,-80(r1)
    5b4c:	b8 ff e1 ea 	ld      r23,-72(r1)
    5b50:	c0 ff 01 eb 	ld      r24,-64(r1)
    5b54:	d0 ff 41 eb 	ld      r26,-48(r1)
    5b58:	d8 ff 61 eb 	ld      r27,-40(r1)
    5b5c:	e8 ff a1 eb 	ld      r29,-24(r1)
    5b60:	f0 ff c1 eb 	ld      r30,-16(r1)
    5b64:	f8 ff e1 eb 	ld      r31,-8(r1)
    5b68:	a6 03 08 7c 	mtlr    r0
    5b6c:	20 00 80 4e 	blr
    5b70:	01 00 ff 3b 	addi    r31,r31,1
    5b74:	b8 01 21 eb 	ld      r25,440(r1)
    5b78:	04 00 de 3b 	addi    r30,r30,4
    5b7c:	09 00 bf 2b 	cmpldi  cr7,r31,9
    5b80:	44 fe 9e 40 	bne     cr7,59c4 <Doit+0xe4>
    5b84:	8c ff ff 4b 	b       5b10 <Doit+0x230>
    5b88:	01 00 9c 3b 	addi    r28,r28,1
    5b8c:	70 01 01 ea 	ld      r16,368(r1)
    5b90:	09 00 bc 2b 	cmpldi  cr7,r28,9
    5b94:	88 fe 9e 40 	bne     cr7,5a1c <Doit+0x13c>
    5b98:	44 ff ff 4b 	b       5adc <Doit+0x1fc>
    5b9c:	00 00 2a 81 	lwz     r9,0(r10)
    5ba0:	00 00 89 2f 	cmpwi   cr7,r9,0
    5ba4:	fc fe 9e 41 	beq     cr7,5aa0 <Doit+0x1c0>
    5ba8:	00 00 0f 93 	stw     r24,0(r15)
    5bac:	00 00 0b 93 	stw     r24,0(r11)
    5bb0:	78 9b 68 7e 	mr      r8,r19
    5bb4:	78 db 67 7f 	mr      r7,r27
    5bb8:	00 00 0a 93 	stw     r24,0(r10)
    5bbc:	78 d3 46 7f 	mr      r6,r26
    5bc0:	78 b3 c5 7e 	mr      r5,r22
    5bc4:	c0 00 01 90 	stw     r0,192(r1)
    5bc8:	78 a3 84 7e 	mr      r4,r20
    5bcc:	04 00 60 38 	li      r3,4
    5bd0:	7c 00 01 90 	stw     r0,124(r1)
    5bd4:	70 00 61 f9 	std     r11,112(r1)
    5bd8:	68 00 41 f9 	std     r10,104(r1)
    5bdc:	8d f7 ff 4b 	bl      5368 <Try+0x8>
    5be0:	8c 00 21 81 	lwz     r9,140(r1)
    5be4:	00 00 89 2f 	cmpwi   cr7,r9,0
    5be8:	28 00 9e 40 	bne     cr7,5c10 <Doit+0x330>
    5bec:	70 00 61 e9 	ld      r11,112(r1)
    5bf0:	68 00 41 e9 	ld      r10,104(r1)
    5bf4:	00 00 ef 92 	stw     r23,0(r15)
    5bf8:	7c 00 01 80 	lwz     r0,124(r1)
    5bfc:	00 00 eb 92 	stw     r23,0(r11)
    5c00:	00 00 ea 92 	stw     r23,0(r10)
    5c04:	9c fe ff 4b 	b       5aa0 <Doit+0x1c0>
    5c08:	00 00 00 60 	nop
    5c0c:	00 00 42 60 	ori     r2,r2,0
    5c10:	60 01 c1 e9 	ld      r14,352(r1)
    5c14:	68 01 e1 e9 	ld      r15,360(r1)
    5c18:	70 01 01 ea 	ld      r16,368(r1)
    5c1c:	78 01 21 ea 	ld      r17,376(r1)
    5c20:	80 01 41 ea 	ld      r18,384(r1)
    5c24:	b8 01 21 eb 	ld      r25,440(r1)
    5c28:	d0 01 81 eb 	ld      r28,464(r1)
    5c2c:	f4 fe ff 4b 	b       5b20 <Doit+0x240>
    5c30:	60 01 c1 f9 	std     r14,352(r1)
    5c34:	68 01 e1 f9 	std     r15,360(r1)
    5c38:	70 01 01 fa 	std     r16,368(r1)
    5c3c:	78 01 21 fa 	std     r17,376(r1)
    5c40:	80 01 41 fa 	std     r18,384(r1)
    5c44:	b8 01 21 fb 	std     r25,440(r1)
    5c48:	d0 01 81 fb 	std     r28,464(r1)
    5c4c:	75 b0 ff 4b 	bl      cc0 <00000048.plt_call.__stack_chk_fail@@GLIBC_2.17>
    5c50:	18 00 41 e8 	ld      r2,24(r1)
    5c54:	64 17 2a 79 	rldicr  r10,r9,2,61
    5c58:	14 52 5a 7d 	add     r10,r26,r10
    5c5c:	04 00 ea 90 	stw     r7,4(r10)
    5c60:	1c fd ff 4b 	b       597c <Doit+0x9c>
    5c64:	00 00 00 00 	.long 0x0
    5c68:	00 00 00 01 	.long 0x1000000
    5c6c:	80 12 00 00 	.long 0x1280

0000000000005c70 <Queens>:
    5c70:	02 00 4c 3c 	addis   r2,r12,2
    5c74:	90 22 42 38 	addi    r2,r2,8848
    5c78:	a6 02 08 7c 	mflr    r0
    5c7c:	70 ff c1 f9 	std     r14,-144(r1)
    5c80:	78 ff e1 f9 	std     r15,-136(r1)
    5c84:	00 00 c0 39 	li      r14,0
    5c88:	80 ff 01 fa 	std     r16,-128(r1)
    5c8c:	88 ff 21 fa 	std     r17,-120(r1)
    5c90:	fe ff 02 3e 	addis   r16,r2,-2
    5c94:	00 00 e0 39 	li      r15,0
    5c98:	90 ff 41 fa 	std     r18,-112(r1)
    5c9c:	98 ff 61 fa 	std     r19,-104(r1)
    5ca0:	98 20 10 3a 	addi    r16,r16,8344
    5ca4:	00 00 40 3a 	li      r18,0
    5ca8:	a0 ff 81 fa 	std     r20,-96(r1)
    5cac:	a8 ff a1 fa 	std     r21,-88(r1)
    5cb0:	d0 ff 41 fb 	std     r26,-48(r1)
    5cb4:	f0 ff c1 fb 	std     r30,-16(r1)
    5cb8:	01 00 40 3f 	lis     r26,1
    5cbc:	f8 ff e1 fb 	std     r31,-8(r1)
    5cc0:	10 00 01 f8 	std     r0,16(r1)
    5cc4:	a0 86 5a 63 	ori     r26,r26,34464
    5cc8:	01 00 e0 3b 	li      r31,1
    5ccc:	b0 ff c1 fa 	std     r22,-80(r1)
    5cd0:	b8 ff e1 fa 	std     r23,-72(r1)
    5cd4:	78 d3 53 7f 	mr      r19,r26
    5cd8:	c0 ff 01 fb 	std     r24,-64(r1)
    5cdc:	c8 ff 21 fb 	std     r25,-56(r1)
    5ce0:	d8 ff 61 fb 	std     r27,-40(r1)
    5ce4:	e0 ff 81 fb 	std     r28,-32(r1)
    5ce8:	e8 ff a1 fb 	std     r29,-24(r1)
    5cec:	d1 fd 21 f8 	stdu    r1,-560(r1)
    5cf0:	f0 8f 2d e9 	ld      r9,-28688(r13)
    5cf4:	98 01 21 f9 	std     r9,408(r1)
    5cf8:	00 00 20 39 	li      r9,0
    5cfc:	f4 00 21 39 	addi    r9,r1,244
    5d00:	d0 00 81 3a 	addi    r20,r1,208
    5d04:	80 00 21 f9 	std     r9,128(r1)
    5d08:	cc 00 21 39 	addi    r9,r1,204
    5d0c:	5c 01 21 3a 	addi    r17,r1,348
    5d10:	18 01 a1 3a 	addi    r21,r1,280
    5d14:	88 00 21 f9 	std     r9,136(r1)
    5d18:	78 83 09 7e 	mr      r9,r16
    5d1c:	54 01 c1 3b 	addi    r30,r1,340
    5d20:	78 8b 30 7e 	mr      r16,r17
    5d24:	78 a3 91 7e 	mr      r17,r20
    5d28:	78 4b 34 7d 	mr      r20,r9
    5d2c:	00 00 42 60 	ori     r2,r2,0
    5d30:	18 00 40 39 	li      r10,24
    5d34:	f9 ff 20 39 	li      r9,-7
    5d38:	a6 03 49 7d 	mtctr   r10
    5d3c:	b4 07 2a 7d 	extsw   r10,r9
    5d40:	01 00 8a 2f 	cmpwi   cr7,r10,1
    5d44:	78 ab a8 7e 	mr      r8,r21
    5d48:	38 00 9d 40 	ble     cr7,5d80 <Queens+0x110>
    5d4c:	00 00 42 60 	ori     r2,r2,0
    5d50:	07 00 8a 2f 	cmpwi   cr7,r10,7
    5d54:	64 17 2a 79 	rldicr  r10,r9,2,61
    5d58:	2e f1 ea 7f 	stwx    r31,r10,r30
    5d5c:	24 00 9d 40 	ble     cr7,5d80 <Queens+0x110>
    5d60:	28 00 40 42 	bdz     5d88 <Queens+0x118>
    5d64:	07 00 89 2b 	cmplwi  cr7,r9,7
    5d68:	04 03 9d 40 	ble     cr7,606c <Queens+0x3fc>
    5d6c:	01 00 29 39 	addi    r9,r9,1
    5d70:	04 00 08 39 	addi    r8,r8,4
    5d74:	b4 07 2a 7d 	extsw   r10,r9
    5d78:	01 00 8a 2f 	cmpwi   cr7,r10,1
    5d7c:	d4 ff 9d 41 	bgt     cr7,5d50 <Queens+0xe0>
    5d80:	00 00 e8 93 	stw     r31,0(r8)
    5d84:	e0 ff 00 42 	bdnz    5d64 <Queens+0xf4>
    5d88:	cc 00 c1 91 	stw     r14,204(r1)
    5d8c:	78 83 1c 7e 	mr      r28,r16
    5d90:	78 8b 3b 7e 	mr      r27,r17
    5d94:	01 00 a0 3b 	li      r29,1
    5d98:	78 9b 60 7e 	mr      r0,r19
    5d9c:	78 83 0b 7e 	mr      r11,r16
    5da0:	78 a3 8c 7e 	mr      r12,r20
    5da4:	04 00 3b 85 	lwzu    r9,4(r27)
    5da8:	b4 07 aa 7f 	extsw   r10,r29
    5dac:	00 00 89 2f 	cmpwi   cr7,r9,0
    5db0:	00 01 9e 41 	beq     cr7,5eb0 <Queens+0x240>
    5db4:	00 00 3c 81 	lwz     r9,0(r28)
    5db8:	00 00 89 2f 	cmpwi   cr7,r9,0
    5dbc:	f4 00 9e 41 	beq     cr7,5eb0 <Queens+0x240>
    5dc0:	64 17 a9 7b 	rldicr  r9,r29,2,61
    5dc4:	50 a8 89 7e 	subf    r20,r9,r21
    5dc8:	20 00 34 81 	lwz     r9,32(r20)
    5dcc:	00 00 89 2f 	cmpwi   cr7,r9,0
    5dd0:	e0 00 9e 41 	beq     cr7,5eb0 <Queens+0x240>
    5dd4:	f8 00 41 91 	stw     r10,248(r1)
    5dd8:	00 00 fb 91 	stw     r15,0(r27)
    5ddc:	78 8b 39 7e 	mr      r25,r17
    5de0:	01 00 40 3b 	li      r26,1
    5de4:	00 00 5c 92 	stw     r18,0(r28)
    5de8:	20 00 54 92 	stw     r18,32(r20)
    5dec:	04 00 39 85 	lwzu    r9,4(r25)
    5df0:	b4 07 4a 7f 	extsw   r10,r26
    5df4:	00 00 89 2f 	cmpwi   cr7,r9,0
    5df8:	98 00 9e 41 	beq     cr7,5e90 <Queens+0x220>
    5dfc:	64 17 58 7b 	rldicr  r24,r26,2,61
    5e00:	14 c2 1e 7f 	add     r24,r30,r24
    5e04:	08 00 38 81 	lwz     r9,8(r24)
    5e08:	00 00 89 2f 	cmpwi   cr7,r9,0
    5e0c:	84 00 9e 41 	beq     cr7,5e90 <Queens+0x220>
    5e10:	64 17 57 7b 	rldicr  r23,r26,2,61
    5e14:	50 a8 f7 7e 	subf    r23,r23,r21
    5e18:	24 00 37 81 	lwz     r9,36(r23)
    5e1c:	00 00 89 2f 	cmpwi   cr7,r9,0
    5e20:	70 00 9e 41 	beq     cr7,5e90 <Queens+0x220>
    5e24:	00 00 f9 91 	stw     r15,0(r25)
    5e28:	08 00 58 92 	stw     r18,8(r24)
    5e2c:	64 01 c1 3a 	addi    r22,r1,356
    5e30:	3c 01 01 3a 	addi    r16,r1,316
    5e34:	24 00 57 92 	stw     r18,36(r23)
    5e38:	70 00 61 f9 	std     r11,112(r1)
    5e3c:	78 8b 33 7e 	mr      r19,r17
    5e40:	fc 00 41 91 	stw     r10,252(r1)
    5e44:	68 00 01 f8 	std     r0,104(r1)
    5e48:	00 00 40 39 	li      r10,0
    5e4c:	78 f3 c0 7f 	mr      r0,r30
    5e50:	04 00 33 85 	lwzu    r9,4(r19)
    5e54:	01 00 6a 39 	addi    r11,r10,1
    5e58:	b4 07 6a 7d 	extsw   r10,r11
    5e5c:	00 00 89 2f 	cmpwi   cr7,r9,0
    5e60:	f0 00 9e 40 	bne     cr7,5f50 <Queens+0x2e0>
    5e64:	08 00 8b 2f 	cmpwi   cr7,r11,8
    5e68:	04 00 d6 3a 	addi    r22,r22,4
    5e6c:	fc ff 10 3a 	addi    r16,r16,-4
    5e70:	e0 ff 9e 40 	bne     cr7,5e50 <Queens+0x1e0>
    5e74:	00 00 f9 93 	stw     r31,0(r25)
    5e78:	08 00 f8 93 	stw     r31,8(r24)
    5e7c:	78 03 1e 7c 	mr      r30,r0
    5e80:	24 00 f7 93 	stw     r31,36(r23)
    5e84:	70 00 61 e9 	ld      r11,112(r1)
    5e88:	68 00 01 e8 	ld      r0,104(r1)
    5e8c:	00 00 42 60 	ori     r2,r2,0
    5e90:	01 00 5a 3b 	addi    r26,r26,1
    5e94:	09 00 ba 2b 	cmpldi  cr7,r26,9
    5e98:	54 ff 9e 40 	bne     cr7,5dec <Queens+0x17c>
    5e9c:	00 00 fb 93 	stw     r31,0(r27)
    5ea0:	00 00 fc 93 	stw     r31,0(r28)
    5ea4:	20 00 f4 93 	stw     r31,32(r20)
    5ea8:	00 00 00 60 	nop
    5eac:	00 00 42 60 	ori     r2,r2,0
    5eb0:	01 00 bd 3b 	addi    r29,r29,1
    5eb4:	04 00 9c 3b 	addi    r28,r28,4
    5eb8:	09 00 bd 2b 	cmpldi  cr7,r29,9
    5ebc:	e8 fe 9e 40 	bne     cr7,5da4 <Queens+0x134>
    5ec0:	78 63 83 7d 	mr      r3,r12
    5ec4:	78 03 13 7c 	mr      r19,r0
    5ec8:	78 5b 70 7d 	mr      r16,r11
    5ecc:	78 63 94 7d 	mr      r20,r12
    5ed0:	51 ac ff 4b 	bl      b20 <00000048.plt_call.puts@@GLIBC_2.17>
    5ed4:	18 00 41 e8 	ld      r2,24(r1)
    5ed8:	ff ff 33 39 	addi    r9,r19,-1
    5edc:	21 00 33 79 	clrldi. r19,r9,32
    5ee0:	50 fe 82 40 	bne     5d30 <Queens+0xc0>
    5ee4:	98 01 21 e9 	ld      r9,408(r1)
    5ee8:	f0 8f 4d e9 	ld      r10,-28688(r13)
    5eec:	79 52 29 7d 	xor.    r9,r9,r10
    5ef0:	00 00 40 39 	li      r10,0
    5ef4:	68 01 82 40 	bne     605c <Queens+0x3ec>
    5ef8:	30 02 21 38 	addi    r1,r1,560
    5efc:	10 00 01 e8 	ld      r0,16(r1)
    5f00:	70 ff c1 e9 	ld      r14,-144(r1)
    5f04:	78 ff e1 e9 	ld      r15,-136(r1)
    5f08:	80 ff 01 ea 	ld      r16,-128(r1)
    5f0c:	88 ff 21 ea 	ld      r17,-120(r1)
    5f10:	90 ff 41 ea 	ld      r18,-112(r1)
    5f14:	98 ff 61 ea 	ld      r19,-104(r1)
    5f18:	a0 ff 81 ea 	ld      r20,-96(r1)
    5f1c:	a8 ff a1 ea 	ld      r21,-88(r1)
    5f20:	b0 ff c1 ea 	ld      r22,-80(r1)
    5f24:	b8 ff e1 ea 	ld      r23,-72(r1)
    5f28:	c0 ff 01 eb 	ld      r24,-64(r1)
    5f2c:	a6 03 08 7c 	mtlr    r0
    5f30:	c8 ff 21 eb 	ld      r25,-56(r1)
    5f34:	d0 ff 41 eb 	ld      r26,-48(r1)
    5f38:	d8 ff 61 eb 	ld      r27,-40(r1)
    5f3c:	e0 ff 81 eb 	ld      r28,-32(r1)
    5f40:	e8 ff a1 eb 	ld      r29,-24(r1)
    5f44:	f0 ff c1 eb 	ld      r30,-16(r1)
    5f48:	f8 ff e1 eb 	ld      r31,-8(r1)
    5f4c:	20 00 80 4e 	blr
    5f50:	00 00 36 81 	lwz     r9,0(r22)
    5f54:	00 00 89 2f 	cmpwi   cr7,r9,0
    5f58:	0c ff 9e 41 	beq     cr7,5e64 <Queens+0x1f4>
    5f5c:	00 00 30 81 	lwz     r9,0(r16)
    5f60:	00 00 89 2f 	cmpwi   cr7,r9,0
    5f64:	00 ff 9e 41 	beq     cr7,5e64 <Queens+0x1f4>
    5f68:	00 01 61 91 	stw     r11,256(r1)
    5f6c:	00 00 53 92 	stw     r18,0(r19)
    5f70:	01 00 20 39 	li      r9,1
    5f74:	78 8b 25 7e 	mr      r5,r17
    5f78:	78 00 21 fa 	std     r17,120(r1)
    5f7c:	00 00 56 92 	stw     r18,0(r22)
    5f80:	00 00 50 92 	stw     r18,0(r16)
    5f84:	90 00 e1 fa 	std     r23,144(r1)
    5f88:	78 eb b7 7f 	mr      r23,r29
    5f8c:	04 00 05 85 	lwzu    r8,4(r5)
    5f90:	b4 07 26 7d 	extsw   r6,r9
    5f94:	00 00 88 2f 	cmpwi   cr7,r8,0
    5f98:	78 00 a1 f8 	std     r5,120(r1)
    5f9c:	9c 00 9e 41 	beq     cr7,6038 <Queens+0x3c8>
    5fa0:	64 17 3d 79 	rldicr  r29,r9,2,61
    5fa4:	14 ea a0 7f 	add     r29,r0,r29
    5fa8:	10 00 1d 81 	lwz     r8,16(r29)
    5fac:	00 00 88 2f 	cmpwi   cr7,r8,0
    5fb0:	88 00 9e 41 	beq     cr7,6038 <Queens+0x3c8>
    5fb4:	64 17 3e 79 	rldicr  r30,r9,2,61
    5fb8:	50 a8 de 7f 	subf    r30,r30,r21
    5fbc:	2c 00 1e 81 	lwz     r8,44(r30)
    5fc0:	00 00 88 2f 	cmpwi   cr7,r8,0
    5fc4:	74 00 9e 41 	beq     cr7,6038 <Queens+0x3c8>
    5fc8:	00 00 e5 91 	stw     r15,0(r5)
    5fcc:	10 00 5d 92 	stw     r18,16(r29)
    5fd0:	78 03 05 7c 	mr      r5,r0
    5fd4:	78 ab a7 7e 	mr      r7,r21
    5fd8:	2c 00 5e 92 	stw     r18,44(r30)
    5fdc:	80 00 01 e9 	ld      r8,128(r1)
    5fe0:	88 00 81 e8 	ld      r4,136(r1)
    5fe4:	05 00 60 38 	li      r3,5
    5fe8:	04 01 c1 90 	stw     r6,260(r1)
    5fec:	78 8b 26 7e 	mr      r6,r17
    5ff0:	b8 00 81 f9 	std     r12,184(r1)
    5ff4:	98 00 01 f8 	std     r0,152(r1)
    5ff8:	b4 00 61 91 	stw     r11,180(r1)
    5ffc:	a8 00 41 f9 	std     r10,168(r1)
    6000:	a0 00 21 f9 	std     r9,160(r1)
    6004:	65 f3 ff 4b 	bl      5368 <Try+0x8>
    6008:	cc 00 01 81 	lwz     r8,204(r1)
    600c:	98 00 01 e8 	ld      r0,152(r1)
    6010:	b8 00 81 e9 	ld      r12,184(r1)
    6014:	00 00 88 2f 	cmpwi   cr7,r8,0
    6018:	64 00 9e 40 	bne     cr7,607c <Queens+0x40c>
    601c:	78 00 a1 e8 	ld      r5,120(r1)
    6020:	10 00 fd 93 	stw     r31,16(r29)
    6024:	b4 00 61 81 	lwz     r11,180(r1)
    6028:	2c 00 fe 93 	stw     r31,44(r30)
    602c:	a8 00 41 e9 	ld      r10,168(r1)
    6030:	a0 00 21 e9 	ld      r9,160(r1)
    6034:	00 00 e5 93 	stw     r31,0(r5)
    6038:	01 00 29 39 	addi    r9,r9,1
    603c:	09 00 a9 2b 	cmpldi  cr7,r9,9
    6040:	24 00 9e 40 	bne     cr7,6064 <Queens+0x3f4>
    6044:	78 bb fd 7e 	mr      r29,r23
    6048:	00 00 f3 93 	stw     r31,0(r19)
    604c:	90 00 e1 ea 	ld      r23,144(r1)
    6050:	00 00 f6 93 	stw     r31,0(r22)
    6054:	00 00 f0 93 	stw     r31,0(r16)
    6058:	0c fe ff 4b 	b       5e64 <Queens+0x1f4>
    605c:	65 ac ff 4b 	bl      cc0 <00000048.plt_call.__stack_chk_fail@@GLIBC_2.17>
    6060:	18 00 41 e8 	ld      r2,24(r1)
    6064:	78 00 a1 e8 	ld      r5,120(r1)
    6068:	24 ff ff 4b 	b       5f8c <Queens+0x31c>
    606c:	64 17 2a 79 	rldicr  r10,r9,2,61
    6070:	14 52 51 7d 	add     r10,r17,r10
    6074:	04 00 ea 93 	stw     r31,4(r10)
    6078:	f4 fc ff 4b 	b       5d6c <Queens+0xfc>
    607c:	68 00 61 ea 	ld      r19,104(r1)
    6080:	70 00 01 ea 	ld      r16,112(r1)
    6084:	78 03 1e 7c 	mr      r30,r0
    6088:	78 63 94 7d 	mr      r20,r12
    608c:	4c fe ff 4b 	b       5ed8 <Queens+0x268>
    6090:	00 00 00 00 	.long 0x0
    6094:	00 00 00 01 	.long 0x1000000
    6098:	80 12 00 00 	.long 0x1280
    609c:	00 00 42 60 	ori     r2,r2,0

00000000000060a0 <Initmatrix>:
    60a0:	02 00 4c 3c 	addis   r2,r12,2
    60a4:	60 1e 42 38 	addi    r2,r2,7776
    60a8:	27 00 62 3d 	addis   r11,r2,39
    60ac:	ec 3b 6b 39 	addi    r11,r11,15340
    60b0:	0a 00 83 3c 	addis   r4,r3,10
    60b4:	88 88 c0 3c 	lis     r6,-30584
    60b8:	44 06 63 38 	addi    r3,r3,1604
    60bc:	84 d0 84 38 	addi    r4,r4,-12156
    60c0:	89 88 c6 60 	ori     r6,r6,34953
    60c4:	02 00 4b e9 	lwa     r10,0(r11)
    60c8:	00 00 00 60 	nop
    60cc:	00 00 42 60 	ori     r2,r2,0
    60d0:	90 01 20 39 	li      r9,400
    60d4:	a6 03 29 7d 	mtctr   r9
    60d8:	78 1b 67 7c 	mr      r7,r3
    60dc:	00 00 42 60 	ori     r2,r2,0
    60e0:	1d 05 2a 1d 	mulli   r9,r10,1309
    60e4:	19 36 29 39 	addi    r9,r9,13849
    60e8:	3e 04 28 55 	clrlwi  r8,r9,16
    60ec:	16 30 28 7d 	mulhwu  r9,r8,r6
    60f0:	b4 07 0a 7d 	extsw   r10,r8
    60f4:	be d1 29 55 	rlwinm  r9,r9,26,6,31
    60f8:	78 00 29 1d 	mulli   r9,r9,120
    60fc:	50 40 29 7d 	subf    r9,r9,r8
    6100:	c4 ff 29 39 	addi    r9,r9,-60
    6104:	04 00 27 95 	stwu    r9,4(r7)
    6108:	d8 ff 00 42 	bdnz    60e0 <Initmatrix+0x40>
    610c:	44 06 63 38 	addi    r3,r3,1604
    6110:	40 20 a3 7f 	cmpld   cr7,r3,r4
    6114:	bc ff 9e 40 	bne     cr7,60d0 <Initmatrix+0x30>
    6118:	00 00 4b 91 	stw     r10,0(r11)
    611c:	20 00 80 4e 	blr
	...
    612c:	00 00 42 60 	ori     r2,r2,0

0000000000006130 <Innerproduct>:
    6130:	91 01 27 39 	addi    r9,r7,401
    6134:	44 06 c6 1c 	mulli   r6,r6,1604
    6138:	64 17 29 79 	rldicr  r9,r9,2,61
    613c:	00 00 40 39 	li      r10,0
    6140:	14 4a a5 7c 	add     r5,r5,r9
    6144:	90 01 20 39 	li      r9,400
    6148:	a6 03 29 7d 	mtctr   r9
    614c:	00 00 43 91 	stw     r10,0(r3)
    6150:	00 00 40 39 	li      r10,0
    6154:	14 32 84 7c 	add     r4,r4,r6
    6158:	00 00 00 60 	nop
    615c:	00 00 42 60 	ori     r2,r2,0
    6160:	04 00 24 85 	lwzu    r9,4(r4)
    6164:	00 00 05 81 	lwz     r8,0(r5)
    6168:	44 06 a5 38 	addi    r5,r5,1604
    616c:	d6 41 29 7d 	mullw   r9,r9,r8
    6170:	14 52 29 7d 	add     r9,r9,r10
    6174:	b4 07 2a 7d 	extsw   r10,r9
    6178:	00 00 23 91 	stw     r9,0(r3)
    617c:	e4 ff 00 42 	bdnz    6160 <Innerproduct+0x30>
    6180:	20 00 80 4e 	blr
	...

0000000000006190 <Intmm>:
    6190:	02 00 4c 3c 	addis   r2,r12,2
    6194:	70 1d 42 38 	addi    r2,r2,7536
    6198:	3a 00 a2 3c 	addis   r5,r2,58
    619c:	00 92 a5 38 	addi    r5,r5,-28160
    61a0:	27 00 62 3d 	addis   r11,r2,39
    61a4:	ec 3b 6b 39 	addi    r11,r11,15340
    61a8:	88 88 c0 3c 	lis     r6,-30584
    61ac:	01 00 00 3d 	lis     r8,1
    61b0:	03 24 08 61 	ori     r8,r8,9219
    61b4:	89 88 c6 60 	ori     r6,r6,34953
    61b8:	0a 00 65 3c 	addis   r3,r5,10
    61bc:	78 2b a4 7c 	mr      r4,r5
    61c0:	40 ca 63 38 	addi    r3,r3,-13760
    61c4:	90 01 20 39 	li      r9,400
    61c8:	78 23 87 7c 	mr      r7,r4
    61cc:	a6 03 29 7d 	mtctr   r9
    61d0:	1d 05 28 1d 	mulli   r9,r8,1309
    61d4:	19 36 29 39 	addi    r9,r9,13849
    61d8:	3e 04 2a 55 	clrlwi  r10,r9,16
    61dc:	16 30 2a 7d 	mulhwu  r9,r10,r6
    61e0:	b4 07 48 7d 	extsw   r8,r10
    61e4:	be d1 29 55 	rlwinm  r9,r9,26,6,31
    61e8:	78 00 29 1d 	mulli   r9,r9,120
    61ec:	50 50 29 7d 	subf    r9,r9,r10
    61f0:	c4 ff 29 39 	addi    r9,r9,-60
    61f4:	04 00 27 95 	stwu    r9,4(r7)
    61f8:	d8 ff 00 42 	bdnz    61d0 <Intmm+0x40>
    61fc:	44 06 84 38 	addi    r4,r4,1604
    6200:	40 20 a3 7f 	cmpld   cr7,r3,r4
    6204:	c0 ff 9e 40 	bne     cr7,61c4 <Intmm+0x34>
    6208:	00 00 00 60 	nop
    620c:	70 87 82 39 	addi    r12,r2,-30864
    6210:	88 88 c0 3c 	lis     r6,-30584
    6214:	89 88 c6 60 	ori     r6,r6,34953
    6218:	bc f9 6c 38 	addi    r3,r12,-1604
    621c:	0a 00 23 3d 	addis   r9,r3,10
    6220:	84 d0 09 38 	addi    r0,r9,-12156
    6224:	90 01 20 39 	li      r9,400
    6228:	78 63 87 7d 	mr      r7,r12
    622c:	a6 03 29 7d 	mtctr   r9
    6230:	1d 05 28 1d 	mulli   r9,r8,1309
    6234:	19 36 29 39 	addi    r9,r9,13849
    6238:	3e 04 2a 55 	clrlwi  r10,r9,16
    623c:	16 30 2a 7d 	mulhwu  r9,r10,r6
    6240:	b4 07 48 7d 	extsw   r8,r10
    6244:	be d1 29 55 	rlwinm  r9,r9,26,6,31
    6248:	78 00 29 1d 	mulli   r9,r9,120
    624c:	50 50 29 7d 	subf    r9,r9,r10
    6250:	c4 ff 29 39 	addi    r9,r9,-60
    6254:	04 00 27 95 	stwu    r9,4(r7)
    6258:	d8 ff 00 42 	bdnz    6230 <Intmm+0xa0>
    625c:	44 06 8c 39 	addi    r12,r12,1604
    6260:	40 60 a0 7f 	cmpld   cr7,r0,r12
    6264:	c0 ff 9e 40 	bne     cr7,6224 <Intmm+0x94>
    6268:	00 00 0b 91 	stw     r8,0(r11)
    626c:	0a 00 c2 3c 	addis   r6,r2,10
    6270:	04 c0 c6 38 	addi    r6,r6,-16380
    6274:	09 00 62 3d 	addis   r11,r2,9
    6278:	b4 51 6b 39 	addi    r11,r11,20916
    627c:	8c 03 80 11 	vspltisw v12,0
    6280:	48 06 63 38 	addi    r3,r3,1608
    6284:	00 00 e0 38 	li      r7,0
    6288:	00 00 00 60 	nop
    628c:	00 00 42 60 	ori     r2,r2,0
    6290:	56 62 0c f0 	xxswapd vs0,vs44
    6294:	8c 03 a0 11 	vspltisw v13,0
    6298:	14 3a 23 7d 	add     r9,r3,r7
    629c:	14 3a 0b 7d 	add     r8,r11,r7
    62a0:	78 2b aa 7c 	mr      r10,r5
    62a4:	98 3f 06 7c 	stxvd2x vs0,r6,r7
    62a8:	00 00 00 60 	nop
    62ac:	00 00 42 60 	ori     r2,r2,0
    62b0:	04 00 4a 39 	addi    r10,r10,4
    62b4:	99 4e 20 7c 	lxvd2x  vs33,0,r9
    62b8:	44 06 29 39 	addi    r9,r9,1604
    62bc:	40 40 a9 7f 	cmpld   cr7,r9,r8
    62c0:	19 50 00 7c 	lxsiwzx vs32,0,r10
    62c4:	93 02 01 f0 	xxspltw vs32,vs32,1
    62c8:	89 00 01 10 	vmuluwm v0,v1,v0
    62cc:	80 00 ad 11 	vadduwm v13,v13,v0
    62d0:	e0 ff 9e 40 	bne     cr7,62b0 <Intmm+0x120>
    62d4:	99 3f a6 7d 	stxvd2x vs45,r6,r7
    62d8:	10 00 e7 38 	addi    r7,r7,16
    62dc:	40 06 a7 2b 	cmpldi  cr7,r7,1600
    62e0:	b0 ff 9e 40 	bne     cr7,6290 <Intmm+0x100>
    62e4:	44 06 a5 38 	addi    r5,r5,1604
    62e8:	44 06 c6 38 	addi    r6,r6,1604
    62ec:	40 28 a4 7f 	cmpld   cr7,r4,r5
    62f0:	94 ff 9e 40 	bne     cr7,6284 <Intmm+0xf4>
    62f4:	20 00 80 4e 	blr
	...
    6304:	00 00 00 60 	nop
    6308:	00 00 00 60 	nop
    630c:	00 00 42 60 	ori     r2,r2,0

0000000000006310 <rInitmatrix>:
    6310:	02 00 4c 3c 	addis   r2,r12,2
    6314:	f0 1b 42 38 	addi    r2,r2,7152
    6318:	27 00 82 3d 	addis   r12,r2,39
    631c:	ec 3b 8c 39 	addi    r12,r12,15340
    6320:	0a 00 63 3d 	addis   r11,r3,10
    6324:	88 88 a0 3c 	lis     r5,-30584
    6328:	55 55 c0 3c 	lis     r6,21845
    632c:	88 d0 6b 39 	addi    r11,r11,-12152
    6330:	48 06 63 38 	addi    r3,r3,1608
    6334:	89 88 a5 60 	ori     r5,r5,34953
    6338:	02 00 4c e9 	lwa     r10,0(r12)
    633c:	56 55 c6 60 	ori     r6,r6,21846
    6340:	90 01 20 39 	li      r9,400
    6344:	a6 03 29 7d 	mtctr   r9
    6348:	78 1b 67 7c 	mr      r7,r3
    634c:	00 00 42 60 	ori     r2,r2,0
    6350:	1d 05 2a 1d 	mulli   r9,r10,1309
    6354:	04 00 e7 38 	addi    r7,r7,4
    6358:	19 36 29 39 	addi    r9,r9,13849
    635c:	3e 04 28 55 	clrlwi  r8,r9,16
    6360:	16 28 28 7d 	mulhwu  r9,r8,r5
    6364:	b4 07 0a 7d 	extsw   r10,r8
    6368:	be d1 29 55 	rlwinm  r9,r9,26,6,31
    636c:	78 00 29 1d 	mulli   r9,r9,120
    6370:	50 40 29 7d 	subf    r9,r9,r8
    6374:	c4 ff 29 39 	addi    r9,r9,-60
    6378:	96 30 09 7d 	mulhw   r8,r9,r6
    637c:	70 fe 29 7d 	srawi   r9,r9,31
    6380:	50 40 29 7d 	subf    r9,r9,r8
    6384:	a6 01 09 7c 	mtfprwa f0,r9
    6388:	9c 06 00 ec 	fcfids  f0,f0
    638c:	fc ff 07 d0 	stfs    f0,-4(r7)
    6390:	c0 ff 00 42 	bdnz    6350 <rInitmatrix+0x40>
    6394:	44 06 63 38 	addi    r3,r3,1604
    6398:	40 18 ab 7f 	cmpld   cr7,r11,r3
    639c:	a4 ff 9e 40 	bne     cr7,6340 <rInitmatrix+0x30>
    63a0:	00 00 4c 91 	stw     r10,0(r12)
    63a4:	20 00 80 4e 	blr
	...
    63b4:	00 00 00 60 	nop
    63b8:	00 00 00 60 	nop
    63bc:	00 00 42 60 	ori     r2,r2,0

00000000000063c0 <rInnerproduct>:
    63c0:	d0 64 8c f1 	xxlxor  vs12,vs12,vs12
    63c4:	44 06 c6 1c 	mulli   r6,r6,1604
    63c8:	90 01 40 39 	li      r10,400
    63cc:	a6 03 49 7d 	mtctr   r10
    63d0:	91 01 27 39 	addi    r9,r7,401
    63d4:	90 60 00 fc 	fmr     f0,f12
    63d8:	00 00 83 d1 	stfs    f12,0(r3)
    63dc:	64 17 29 79 	rldicr  r9,r9,2,61
    63e0:	14 4a a5 7c 	add     r5,r5,r9
    63e4:	04 00 c6 38 	addi    r6,r6,4
    63e8:	14 32 84 7c 	add     r4,r4,r6
    63ec:	14 00 00 48 	b       6400 <rInnerproduct+0x40>
    63f0:	00 00 00 60 	nop
    63f4:	00 00 00 60 	nop
    63f8:	00 00 00 60 	nop
    63fc:	00 00 42 60 	ori     r2,r2,0
    6400:	00 00 64 c1 	lfs     f11,0(r4)
    6404:	00 00 85 c1 	lfs     f12,0(r5)
    6408:	04 00 84 38 	addi    r4,r4,4
    640c:	44 06 a5 38 	addi    r5,r5,1604
    6410:	3a 03 0b ec 	fmadds  f0,f11,f12,f0
    6414:	00 00 03 d0 	stfs    f0,0(r3)
    6418:	e8 ff 00 42 	bdnz    6400 <rInnerproduct+0x40>
    641c:	20 00 80 4e 	blr
	...
    642c:	00 00 42 60 	ori     r2,r2,0

0000000000006430 <Mm>:
    6430:	02 00 4c 3c 	addis   r2,r12,2
    6434:	d0 1a 42 38 	addi    r2,r2,6864
    6438:	43 00 c2 3c 	addis   r6,r2,67
    643c:	40 6f c6 38 	addi    r6,r6,28480
    6440:	f0 ff c1 fb 	std     r30,-16(r1)
    6444:	27 00 82 3c 	addis   r4,r2,39
    6448:	ec 3b 84 38 	addi    r4,r4,15340
    644c:	88 88 60 3d 	lis     r11,-30584
    6450:	55 55 60 3c 	lis     r3,21845
    6454:	f8 ff e1 fb 	std     r31,-8(r1)
    6458:	01 00 00 3d 	lis     r8,1
    645c:	89 88 6b 61 	ori     r11,r11,34953
    6460:	56 55 63 60 	ori     r3,r3,21846
    6464:	03 24 08 61 	ori     r8,r8,9219
    6468:	0a 00 e6 3f 	addis   r31,r6,10
    646c:	78 33 c5 7c 	mr      r5,r6
    6470:	40 ca ff 3b 	addi    r31,r31,-13760
    6474:	90 01 20 39 	li      r9,400
    6478:	78 2b a7 7c 	mr      r7,r5
    647c:	a6 03 29 7d 	mtctr   r9
    6480:	1d 05 28 1d 	mulli   r9,r8,1309
    6484:	04 00 e7 38 	addi    r7,r7,4
    6488:	19 36 29 39 	addi    r9,r9,13849
    648c:	3e 04 2a 55 	clrlwi  r10,r9,16
    6490:	16 58 2a 7d 	mulhwu  r9,r10,r11
    6494:	b4 07 48 7d 	extsw   r8,r10
    6498:	be d1 29 55 	rlwinm  r9,r9,26,6,31
    649c:	78 00 29 1d 	mulli   r9,r9,120
    64a0:	50 50 29 7d 	subf    r9,r9,r10
    64a4:	c4 ff 29 39 	addi    r9,r9,-60
    64a8:	96 18 49 7d 	mulhw   r10,r9,r3
    64ac:	70 fe 29 7d 	srawi   r9,r9,31
    64b0:	50 50 29 7d 	subf    r9,r9,r10
    64b4:	a6 01 09 7c 	mtfprwa f0,r9
    64b8:	9c 06 00 ec 	fcfids  f0,f0
    64bc:	fc ff 07 d0 	stfs    f0,-4(r7)
    64c0:	c0 ff 00 42 	bdnz    6480 <Mm+0x50>
    64c4:	44 06 a5 38 	addi    r5,r5,1604
    64c8:	40 28 bf 7f 	cmpld   cr7,r31,r5
    64cc:	a8 ff 9e 40 	bne     cr7,6474 <Mm+0x44>
    64d0:	1d 00 82 3d 	addis   r12,r2,29
    64d4:	14 71 8c 39 	addi    r12,r12,28948
    64d8:	88 88 60 3d 	lis     r11,-30584
    64dc:	55 55 60 3c 	lis     r3,21845
    64e0:	89 88 6b 61 	ori     r11,r11,34953
    64e4:	56 55 63 60 	ori     r3,r3,21846
    64e8:	b8 f9 cc 3b 	addi    r30,r12,-1608
    64ec:	0a 00 fe 3f 	addis   r31,r30,10
    64f0:	88 d0 ff 3b 	addi    r31,r31,-12152
    64f4:	90 01 20 39 	li      r9,400
    64f8:	78 63 87 7d 	mr      r7,r12
    64fc:	a6 03 29 7d 	mtctr   r9
    6500:	1d 05 28 1d 	mulli   r9,r8,1309
    6504:	04 00 e7 38 	addi    r7,r7,4
    6508:	19 36 29 39 	addi    r9,r9,13849
    650c:	3e 04 2a 55 	clrlwi  r10,r9,16
    6510:	16 58 2a 7d 	mulhwu  r9,r10,r11
    6514:	b4 07 48 7d 	extsw   r8,r10
    6518:	be d1 29 55 	rlwinm  r9,r9,26,6,31
    651c:	78 00 29 1d 	mulli   r9,r9,120
    6520:	50 50 29 7d 	subf    r9,r9,r10
    6524:	c4 ff 29 39 	addi    r9,r9,-60
    6528:	96 18 49 7d 	mulhw   r10,r9,r3
    652c:	70 fe 29 7d 	srawi   r9,r9,31
    6530:	50 50 29 7d 	subf    r9,r9,r10
    6534:	a6 01 09 7c 	mtfprwa f0,r9
    6538:	9c 06 00 ec 	fcfids  f0,f0
    653c:	fc ff 07 d0 	stfs    f0,-4(r7)
    6540:	c0 ff 00 42 	bdnz    6500 <Mm+0xd0>
    6544:	44 06 8c 39 	addi    r12,r12,1604
    6548:	40 60 bf 7f 	cmpld   cr7,r31,r12
    654c:	a8 ff 9e 40 	bne     cr7,64f4 <Mm+0xc4>
    6550:	00 00 04 91 	stw     r8,0(r4)
    6554:	14 00 82 3c 	addis   r4,r2,20
    6558:	88 90 84 38 	addi    r4,r4,-28536
    655c:	8c 03 20 10 	vspltisw v1,0
    6560:	48 06 1e 38 	addi    r0,r30,1608
    6564:	00 00 e0 38 	li      r7,0
    6568:	00 00 00 60 	nop
    656c:	00 00 42 60 	ori     r2,r2,0
    6570:	56 0a 01 f0 	xxswapd vs0,vs33
    6574:	8c 03 00 10 	vspltisw v0,0
    6578:	14 3a 20 7d 	add     r9,r0,r7
    657c:	14 62 07 7d 	add     r8,r7,r12
    6580:	78 33 ca 7c 	mr      r10,r6
    6584:	98 3f 04 7c 	stxvd2x vs0,r4,r7
    6588:	00 00 00 60 	nop
    658c:	00 00 42 60 	ori     r2,r2,0
    6590:	00 00 0a c0 	lfs     f0,0(r10)
    6594:	98 4e 80 7d 	lxvd2x  vs12,0,r9
    6598:	44 06 29 39 	addi    r9,r9,1604
    659c:	04 00 4a 39 	addi    r10,r10,4
    65a0:	40 48 a8 7f 	cmpld   cr7,r8,r9
    65a4:	2c 04 00 f0 	xscvdpspn vs0,vs0
    65a8:	90 02 00 f0 	xxspltw vs0,vs0,0
    65ac:	09 02 0c f0 	xvmaddasp vs32,vs12,vs0
    65b0:	e0 ff 9e 40 	bne     cr7,6590 <Mm+0x160>
    65b4:	99 3f 04 7c 	stxvd2x vs32,r4,r7
    65b8:	10 00 e7 38 	addi    r7,r7,16
    65bc:	40 06 a7 2b 	cmpldi  cr7,r7,1600
    65c0:	b0 ff 9e 40 	bne     cr7,6570 <Mm+0x140>
    65c4:	44 06 c6 38 	addi    r6,r6,1604
    65c8:	44 06 84 38 	addi    r4,r4,1604
    65cc:	40 28 a6 7f 	cmpld   cr7,r6,r5
    65d0:	94 ff 9e 40 	bne     cr7,6564 <Mm+0x134>
    65d4:	f0 ff c1 eb 	ld      r30,-16(r1)
    65d8:	f8 ff e1 eb 	ld      r31,-8(r1)
    65dc:	20 00 80 4e 	blr
	...
    65e8:	00 02 00 00 	attn
    65ec:	00 00 42 60 	ori     r2,r2,0

00000000000065f0 <Fit>:
    65f0:	02 00 4c 3c 	addis   r2,r12,2
    65f4:	10 19 42 38 	addi    r2,r2,6416
    65f8:	27 00 42 3d 	addis   r10,r2,39
    65fc:	f4 3b 4a 39 	addi    r10,r10,15348
    6600:	64 17 69 78 	rldicr  r9,r3,2,61
    6604:	aa 4a ca 7c 	lwax    r6,r10,r9
    6608:	00 00 86 2f 	cmpwi   cr7,r6,0
    660c:	60 00 9c 41 	blt     cr7,666c <Fit+0x7c>
    6610:	09 00 42 3d 	addis   r10,r2,9
    6614:	bc 51 4a 39 	addi    r10,r10,20924
    6618:	24 5d 67 78 	rldicr  r7,r3,11,52
    661c:	00 00 20 39 	li      r9,0
    6620:	fc ff e7 38 	addi    r7,r7,-4
    6624:	14 52 e7 7c 	add     r7,r7,r10
    6628:	00 00 00 60 	nop
    662c:	00 00 42 60 	ori     r2,r2,0
    6630:	04 00 07 85 	lwzu    r8,4(r7)
    6634:	14 4a 44 7d 	add     r10,r4,r9
    6638:	b4 07 4a 7d 	extsw   r10,r10
    663c:	01 00 29 39 	addi    r9,r9,1
    6640:	00 30 89 7e 	cmpw    cr5,r9,r6
    6644:	64 17 4a 79 	rldicr  r10,r10,2,61
    6648:	00 00 88 2f 	cmpwi   cr7,r8,0
    664c:	b4 07 29 7d 	extsw   r9,r9
    6650:	18 00 9e 41 	beq     cr7,6668 <Fit+0x78>
    6654:	1d 00 02 3d 	addis   r8,r2,29
    6658:	cc 62 08 39 	addi    r8,r8,25292
    665c:	2e 50 48 7d 	lwzx    r10,r8,r10
    6660:	00 00 8a 2f 	cmpwi   cr7,r10,0
    6664:	1c 00 9e 40 	bne     cr7,6680 <Fit+0x90>
    6668:	c8 ff 95 40 	ble     cr5,6630 <Fit+0x40>
    666c:	01 00 60 38 	li      r3,1
    6670:	20 00 80 4e 	blr
    6674:	00 00 00 60 	nop
    6678:	00 00 00 60 	nop
    667c:	00 00 42 60 	ori     r2,r2,0
    6680:	00 00 60 38 	li      r3,0
    6684:	20 00 80 4e 	blr
	...
    6694:	00 00 00 60 	nop
    6698:	00 00 00 60 	nop
    669c:	00 00 42 60 	ori     r2,r2,0

00000000000066a0 <Place>:
    66a0:	02 00 4c 3c 	addis   r2,r12,2
    66a4:	60 18 42 38 	addi    r2,r2,6240
    66a8:	27 00 22 3d 	addis   r9,r2,39
    66ac:	f4 3b 29 39 	addi    r9,r9,15348
    66b0:	64 17 6b 78 	rldicr  r11,r3,2,61
    66b4:	aa 5a c9 7c 	lwax    r6,r9,r11
    66b8:	00 00 86 2f 	cmpwi   cr7,r6,0
    66bc:	64 00 9c 41 	blt     cr7,6720 <Place+0x80>
    66c0:	09 00 42 3d 	addis   r10,r2,9
    66c4:	bc 51 4a 39 	addi    r10,r10,20924
    66c8:	20 00 89 78 	clrldi  r9,r4,32
    66cc:	24 5d 67 78 	rldicr  r7,r3,11,52
    66d0:	01 00 09 39 	addi    r8,r9,1
    66d4:	fc ff e7 38 	addi    r7,r7,-4
    66d8:	14 32 c8 7c 	add     r6,r8,r6
    66dc:	01 00 60 38 	li      r3,1
    66e0:	14 52 e7 7c 	add     r7,r7,r10
    66e4:	20 00 c6 78 	clrldi  r6,r6,32
    66e8:	00 00 00 60 	nop
    66ec:	00 00 42 60 	ori     r2,r2,0
    66f0:	04 00 47 85 	lwzu    r10,4(r7)
    66f4:	b4 07 29 7d 	extsw   r9,r9
    66f8:	64 17 25 79 	rldicr  r5,r9,2,61
    66fc:	20 00 09 79 	clrldi  r9,r8,32
    6700:	40 30 88 7e 	cmplw   cr5,r8,r6
    6704:	01 00 09 39 	addi    r8,r9,1
    6708:	00 00 8a 2f 	cmpwi   cr7,r10,0
    670c:	10 00 9e 41 	beq     cr7,671c <Place+0x7c>
    6710:	1d 00 42 3d 	addis   r10,r2,29
    6714:	cc 62 4a 39 	addi    r10,r10,25292
    6718:	2e 29 6a 7c 	stwx    r3,r10,r5
    671c:	d4 ff 96 40 	bne     cr5,66f0 <Place+0x50>
    6720:	4d 00 22 3d 	addis   r9,r2,77
    6724:	a8 39 29 39 	addi    r9,r9,14760
    6728:	4d 00 02 3d 	addis   r8,r2,77
    672c:	98 39 08 39 	addi    r8,r8,14744
    6730:	ff 01 84 2f 	cmpwi   cr7,r4,511
    6734:	aa 5a 29 7d 	lwax    r9,r9,r11
    6738:	64 17 29 79 	rldicr  r9,r9,2,61
    673c:	2e 48 48 7d 	lwzx    r10,r8,r9
    6740:	ff ff 4a 39 	addi    r10,r10,-1
    6744:	2e 49 48 7d 	stwx    r10,r8,r9
    6748:	54 00 9d 41 	bgt     cr7,679c <Place+0xfc>
    674c:	1d 00 e2 3c 	addis   r7,r2,29
    6750:	cc 62 e7 38 	addi    r7,r7,25292
    6754:	64 17 89 78 	rldicr  r9,r4,2,61
    6758:	2e 48 27 7d 	lwzx    r9,r7,r9
    675c:	00 00 89 2f 	cmpwi   cr7,r9,0
    6760:	50 00 9e 41 	beq     cr7,67b0 <Place+0x110>
    6764:	01 00 44 39 	addi    r10,r4,1
    6768:	b4 07 48 7d 	extsw   r8,r10
    676c:	64 17 08 79 	rldicr  r8,r8,2,61
    6770:	fc ff 08 39 	addi    r8,r8,-4
    6774:	14 3a 08 7d 	add     r8,r8,r7
    6778:	14 00 00 48 	b       678c <Place+0xec>
    677c:	00 00 42 60 	ori     r2,r2,0
    6780:	04 00 28 85 	lwzu    r9,4(r8)
    6784:	00 00 89 2f 	cmpwi   cr7,r9,0
    6788:	28 00 9e 41 	beq     cr7,67b0 <Place+0x110>
    678c:	00 02 8a 2f 	cmpwi   cr7,r10,512
    6790:	b4 07 44 7d 	extsw   r4,r10
    6794:	01 00 44 39 	addi    r10,r4,1
    6798:	e8 ff 9e 40 	bne     cr7,6780 <Place+0xe0>
    679c:	00 00 60 38 	li      r3,0
    67a0:	20 00 80 4e 	blr
    67a4:	00 00 00 60 	nop
    67a8:	00 00 00 60 	nop
    67ac:	00 00 42 60 	ori     r2,r2,0
    67b0:	78 23 83 7c 	mr      r3,r4
    67b4:	20 00 80 4e 	blr
	...
    67c4:	00 00 00 60 	nop
    67c8:	00 00 00 60 	nop
    67cc:	00 00 42 60 	ori     r2,r2,0

00000000000067d0 <Remove>:
    67d0:	02 00 4c 3c 	addis   r2,r12,2
    67d4:	30 17 42 38 	addi    r2,r2,5936
    67d8:	27 00 22 3d 	addis   r9,r2,39
    67dc:	f4 3b 29 39 	addi    r9,r9,15348
    67e0:	64 17 6b 78 	rldicr  r11,r3,2,61
    67e4:	aa 5a e9 7c 	lwax    r7,r9,r11
    67e8:	00 00 87 2f 	cmpwi   cr7,r7,0
    67ec:	64 00 9c 41 	blt     cr7,6850 <Remove+0x80>
    67f0:	20 00 84 78 	clrldi  r4,r4,32
    67f4:	09 00 22 3d 	addis   r9,r2,9
    67f8:	bc 51 29 39 	addi    r9,r9,20924
    67fc:	24 5d 68 78 	rldicr  r8,r3,11,52
    6800:	01 00 44 39 	addi    r10,r4,1
    6804:	fc ff 08 39 	addi    r8,r8,-4
    6808:	14 3a ea 7c 	add     r7,r10,r7
    680c:	00 00 a0 38 	li      r5,0
    6810:	14 4a 08 7d 	add     r8,r8,r9
    6814:	20 00 e7 78 	clrldi  r7,r7,32
    6818:	00 00 00 60 	nop
    681c:	00 00 42 60 	ori     r2,r2,0
    6820:	04 00 28 85 	lwzu    r9,4(r8)
    6824:	b4 07 84 7c 	extsw   r4,r4
    6828:	64 17 86 78 	rldicr  r6,r4,2,61
    682c:	20 00 44 79 	clrldi  r4,r10,32
    6830:	40 38 8a 7e 	cmplw   cr5,r10,r7
    6834:	01 00 44 39 	addi    r10,r4,1
    6838:	00 00 89 2f 	cmpwi   cr7,r9,0
    683c:	10 00 9e 41 	beq     cr7,684c <Remove+0x7c>
    6840:	1d 00 22 3d 	addis   r9,r2,29
    6844:	cc 62 29 39 	addi    r9,r9,25292
    6848:	2e 31 a9 7c 	stwx    r5,r9,r6
    684c:	d4 ff 96 40 	bne     cr5,6820 <Remove+0x50>
    6850:	4d 00 22 3d 	addis   r9,r2,77
    6854:	a8 39 29 39 	addi    r9,r9,14760
    6858:	4d 00 02 3d 	addis   r8,r2,77
    685c:	98 39 08 39 	addi    r8,r8,14744
    6860:	aa 5a 29 7d 	lwax    r9,r9,r11
    6864:	64 17 29 79 	rldicr  r9,r9,2,61
    6868:	2e 48 48 7d 	lwzx    r10,r8,r9
    686c:	01 00 4a 39 	addi    r10,r10,1
    6870:	2e 49 48 7d 	stwx    r10,r8,r9
    6874:	20 00 80 4e 	blr
	...
    6884:	00 00 00 60 	nop
    6888:	00 00 00 60 	nop
    688c:	00 00 42 60 	ori     r2,r2,0

0000000000006890 <Trial>:
    6890:	02 00 4c 3c 	addis   r2,r12,2
    6894:	70 16 42 38 	addi    r2,r2,5744
    6898:	26 80 90 7d 	mfocrf  r12,8
    689c:	4d 00 42 3d 	addis   r10,r2,77
    68a0:	7c 39 4a 39 	addi    r10,r10,14716
    68a4:	f0 ff c1 fb 	std     r30,-16(r1)
    68a8:	20 00 7e 78 	clrldi  r30,r3,32
    68ac:	c0 ff 01 fb 	std     r24,-64(r1)
    68b0:	01 00 1e 3b 	addi    r24,r30,1
    68b4:	c8 ff 21 fb 	std     r25,-56(r1)
    68b8:	e8 ff a1 fb 	std     r29,-24(r1)
    68bc:	b4 07 19 7f 	extsw   r25,r24
    68c0:	1d 00 a2 3f 	addis   r29,r2,29
    68c4:	cc 62 bd 3b 	addi    r29,r29,25292
    68c8:	20 00 18 7b 	clrldi  r24,r24,32
    68cc:	00 00 2a 81 	lwz     r9,0(r10)
    68d0:	64 17 39 7b 	rldicr  r25,r25,2,61
    68d4:	a0 ff 81 fa 	std     r20,-96(r1)
    68d8:	64 17 74 78 	rldicr  r20,r3,2,61
    68dc:	fc ff 39 3b 	addi    r25,r25,-4
    68e0:	a8 ff a1 fa 	std     r21,-88(r1)
    68e4:	b0 ff c1 fa 	std     r22,-80(r1)
    68e8:	00 00 a0 3a 	li      r21,0
    68ec:	b8 ff e1 fa 	std     r23,-72(r1)
    68f0:	d8 ff 61 fb 	std     r27,-40(r1)
    68f4:	78 1b 77 7c 	mr      r23,r3
    68f8:	14 ca 3d 7f 	add     r25,r29,r25
    68fc:	01 00 29 39 	addi    r9,r9,1
    6900:	e0 ff 81 fb 	std     r28,-32(r1)
    6904:	f8 ff e1 fb 	std     r31,-8(r1)
    6908:	01 00 c0 3a 	li      r22,1
    690c:	08 00 81 91 	stw     r12,8(r1)
    6910:	d0 ff 41 fb 	std     r26,-48(r1)
    6914:	00 00 e0 3b 	li      r31,0
    6918:	ff 01 03 2e 	cmpwi   cr4,r3,511
    691c:	31 ff 21 f8 	stdu    r1,-208(r1)
    6920:	4d 00 62 3f 	addis   r27,r2,77
    6924:	a8 39 7b 3b 	addi    r27,r27,14760
    6928:	4d 00 82 3f 	addis   r28,r2,77
    692c:	98 39 9c 3b 	addi    r28,r28,14744
    6930:	00 00 2a 91 	stw     r9,0(r10)
    6934:	18 00 00 48 	b       694c <Trial+0xbc>
    6938:	00 00 00 60 	nop
    693c:	00 00 42 60 	ori     r2,r2,0
    6940:	04 00 ff 3b 	addi    r31,r31,4
    6944:	34 00 bf 2b 	cmpldi  cr7,r31,52
    6948:	48 01 9e 41 	beq     cr7,6a90 <Trial+0x200>
    694c:	aa fa bb 7c 	lwax    r5,r27,r31
    6950:	64 17 a5 78 	rldicr  r5,r5,2,61
    6954:	aa 2a 7c 7c 	lwax    r3,r28,r5
    6958:	00 00 a3 2f 	cmpdi   cr7,r3,0
    695c:	e4 ff 9e 41 	beq     cr7,6940 <Trial+0xb0>
    6960:	27 00 42 3f 	addis   r26,r2,39
    6964:	f4 3b 5a 3b 	addi    r26,r26,15348
    6968:	aa fa da 7c 	lwax    r6,r26,r31
    696c:	00 00 86 2f 	cmpwi   cr7,r6,0
    6970:	64 01 9c 41 	blt     cr7,6ad4 <Trial+0x244>
    6974:	09 00 42 3d 	addis   r10,r2,9
    6978:	bc 51 4a 39 	addi    r10,r10,20924
    697c:	a4 4d e4 7b 	rldicr  r4,r31,9,54
    6980:	00 00 20 39 	li      r9,0
    6984:	fc ff 4a 39 	addi    r10,r10,-4
    6988:	14 52 84 7c 	add     r4,r4,r10
    698c:	78 23 87 7c 	mr      r7,r4
    6990:	04 00 07 85 	lwzu    r8,4(r7)
    6994:	14 f2 49 7d 	add     r10,r9,r30
    6998:	b4 07 4a 7d 	extsw   r10,r10
    699c:	01 00 29 39 	addi    r9,r9,1
    69a0:	00 30 89 7e 	cmpw    cr5,r9,r6
    69a4:	64 17 4a 79 	rldicr  r10,r10,2,61
    69a8:	00 00 88 2f 	cmpwi   cr7,r8,0
    69ac:	b4 07 29 7d 	extsw   r9,r9
    69b0:	10 00 9e 41 	beq     cr7,69c0 <Trial+0x130>
    69b4:	2e 50 5d 7d 	lwzx    r10,r29,r10
    69b8:	00 00 8a 2f 	cmpwi   cr7,r10,0
    69bc:	84 ff 9e 40 	bne     cr7,6940 <Trial+0xb0>
    69c0:	d0 ff 95 40 	ble     cr5,6990 <Trial+0x100>
    69c4:	a6 02 08 7c 	mflr    r0
    69c8:	f8 f0 c9 7f 	not     r9,r30
    69cc:	14 c2 c6 7c 	add     r6,r6,r24
    69d0:	14 4a c6 7c 	add     r6,r6,r9
    69d4:	78 f3 c9 7f 	mr      r9,r30
    69d8:	20 00 c6 78 	clrldi  r6,r6,32
    69dc:	01 00 46 39 	addi    r10,r6,1
    69e0:	a6 03 49 7d 	mtctr   r10
    69e4:	e0 00 01 f8 	std     r0,224(r1)
    69e8:	04 00 44 85 	lwzu    r10,4(r4)
    69ec:	b4 07 28 7d 	extsw   r8,r9
    69f0:	01 00 29 39 	addi    r9,r9,1
    69f4:	64 17 08 79 	rldicr  r8,r8,2,61
    69f8:	20 00 29 79 	clrldi  r9,r9,32
    69fc:	00 00 8a 2f 	cmpwi   cr7,r10,0
    6a00:	08 00 9e 41 	beq     cr7,6a08 <Trial+0x178>
    6a04:	2e 41 dd 7e 	stwx    r22,r29,r8
    6a08:	e0 ff 00 42 	bdnz    69e8 <Trial+0x158>
    6a0c:	ff ff 63 38 	addi    r3,r3,-1
    6a10:	2e 29 7c 7c 	stwx    r3,r28,r5
    6a14:	58 00 91 41 	bgt     cr4,6a6c <Trial+0x1dc>
    6a18:	2e a0 3d 7d 	lwzx    r9,r29,r20
    6a1c:	68 00 61 fa 	std     r19,104(r1)
    6a20:	00 00 89 2f 	cmpwi   cr7,r9,0
    6a24:	bc 00 9e 41 	beq     cr7,6ae0 <Trial+0x250>
    6a28:	ff 01 37 21 	subfic  r9,r23,511
    6a2c:	78 cb 2a 7f 	mr      r10,r25
    6a30:	20 00 29 79 	clrldi  r9,r9,32
    6a34:	78 bb f3 7e 	mr      r19,r23
    6a38:	01 00 29 39 	addi    r9,r9,1
    6a3c:	a6 03 29 7d 	mtctr   r9
    6a40:	1c 00 00 48 	b       6a5c <Trial+0x1cc>
    6a44:	00 00 00 60 	nop
    6a48:	00 00 00 60 	nop
    6a4c:	00 00 42 60 	ori     r2,r2,0
    6a50:	04 00 2a 85 	lwzu    r9,4(r10)
    6a54:	00 00 89 2f 	cmpwi   cr7,r9,0
    6a58:	8c 00 9e 41 	beq     cr7,6ae4 <Trial+0x254>
    6a5c:	01 00 73 3a 	addi    r19,r19,1
    6a60:	b4 07 73 7e 	extsw   r19,r19
    6a64:	ec ff 00 42 	bdnz    6a50 <Trial+0x1c0>
    6a68:	68 00 61 ea 	ld      r19,104(r1)
    6a6c:	00 00 60 38 	li      r3,0
    6a70:	29 fe ff 4b 	bl      6898 <Trial+0x8>
    6a74:	e0 00 01 e8 	ld      r0,224(r1)
    6a78:	01 00 60 38 	li      r3,1
    6a7c:	a6 03 08 7c 	mtlr    r0
    6a80:	14 00 00 48 	b       6a94 <Trial+0x204>
    6a84:	00 00 00 60 	nop
    6a88:	00 00 00 60 	nop
    6a8c:	00 00 42 60 	ori     r2,r2,0
    6a90:	00 00 60 38 	li      r3,0
    6a94:	d0 00 21 38 	addi    r1,r1,208
    6a98:	08 00 81 81 	lwz     r12,8(r1)
    6a9c:	a0 ff 81 ea 	ld      r20,-96(r1)
    6aa0:	a8 ff a1 ea 	ld      r21,-88(r1)
    6aa4:	b0 ff c1 ea 	ld      r22,-80(r1)
    6aa8:	b8 ff e1 ea 	ld      r23,-72(r1)
    6aac:	c0 ff 01 eb 	ld      r24,-64(r1)
    6ab0:	c8 ff 21 eb 	ld      r25,-56(r1)
    6ab4:	d0 ff 41 eb 	ld      r26,-48(r1)
    6ab8:	d8 ff 61 eb 	ld      r27,-40(r1)
    6abc:	e0 ff 81 eb 	ld      r28,-32(r1)
    6ac0:	e8 ff a1 eb 	ld      r29,-24(r1)
    6ac4:	f0 ff c1 eb 	ld      r30,-16(r1)
    6ac8:	20 81 90 7d 	mtocrf  8,r12
    6acc:	f8 ff e1 eb 	ld      r31,-8(r1)
    6ad0:	20 00 80 4e 	blr
    6ad4:	a6 02 08 7c 	mflr    r0
    6ad8:	e0 00 01 f8 	std     r0,224(r1)
    6adc:	30 ff ff 4b 	b       6a0c <Trial+0x17c>
    6ae0:	78 bb f3 7e 	mr      r19,r23
    6ae4:	78 9b 63 7e 	mr      r3,r19
    6ae8:	b1 fd ff 4b 	bl      6898 <Trial+0x8>
    6aec:	00 00 a3 2f 	cmpdi   cr7,r3,0
    6af0:	98 00 9e 40 	bne     cr7,6b88 <Trial+0x2f8>
    6af4:	00 00 b3 2f 	cmpdi   cr7,r19,0
    6af8:	90 00 9e 41 	beq     cr7,6b88 <Trial+0x2f8>
    6afc:	aa fa 3a 7d 	lwax    r9,r26,r31
    6b00:	00 00 89 2f 	cmpwi   cr7,r9,0
    6b04:	60 00 9c 41 	blt     cr7,6b64 <Trial+0x2d4>
    6b08:	14 c2 49 7d 	add     r10,r9,r24
    6b0c:	09 00 02 3d 	addis   r8,r2,9
    6b10:	bc 51 08 39 	addi    r8,r8,20924
    6b14:	a4 4d e7 7b 	rldicr  r7,r31,9,54
    6b18:	20 00 4a 79 	clrldi  r10,r10,32
    6b1c:	78 f3 c9 7f 	mr      r9,r30
    6b20:	50 f0 4a 7d 	subf    r10,r10,r30
    6b24:	f8 50 4a 7d 	not     r10,r10
    6b28:	fc ff 08 39 	addi    r8,r8,-4
    6b2c:	20 00 4a 79 	clrldi  r10,r10,32
    6b30:	14 42 e7 7c 	add     r7,r7,r8
    6b34:	01 00 4a 39 	addi    r10,r10,1
    6b38:	a6 03 49 7d 	mtctr   r10
    6b3c:	00 00 42 60 	ori     r2,r2,0
    6b40:	04 00 47 85 	lwzu    r10,4(r7)
    6b44:	b4 07 28 7d 	extsw   r8,r9
    6b48:	01 00 29 39 	addi    r9,r9,1
    6b4c:	64 17 08 79 	rldicr  r8,r8,2,61
    6b50:	20 00 29 79 	clrldi  r9,r9,32
    6b54:	00 00 8a 2f 	cmpwi   cr7,r10,0
    6b58:	08 00 9e 41 	beq     cr7,6b60 <Trial+0x2d0>
    6b5c:	2e 41 bd 7e 	stwx    r21,r29,r8
    6b60:	e0 ff 00 42 	bdnz    6b40 <Trial+0x2b0>
    6b64:	aa fa 3b 7d 	lwax    r9,r27,r31
    6b68:	e0 00 01 e8 	ld      r0,224(r1)
    6b6c:	68 00 61 ea 	ld      r19,104(r1)
    6b70:	a6 03 08 7c 	mtlr    r0
    6b74:	64 17 29 79 	rldicr  r9,r9,2,61
    6b78:	2e 48 5c 7d 	lwzx    r10,r28,r9
    6b7c:	01 00 4a 39 	addi    r10,r10,1
    6b80:	2e 49 5c 7d 	stwx    r10,r28,r9
    6b84:	bc fd ff 4b 	b       6940 <Trial+0xb0>
    6b88:	e0 00 01 e8 	ld      r0,224(r1)
    6b8c:	01 00 60 38 	li      r3,1
    6b90:	68 00 61 ea 	ld      r19,104(r1)
    6b94:	a6 03 08 7c 	mtlr    r0
    6b98:	fc fe ff 4b 	b       6a94 <Trial+0x204>
    6b9c:	00 00 00 00 	.long 0x0
    6ba0:	00 00 00 03 	.long 0x3000000
    6ba4:	80 0d 00 00 	.long 0xd80
    6ba8:	00 00 00 60 	nop
    6bac:	00 00 42 60 	ori     r2,r2,0

0000000000006bb0 <Puzzle>:
    6bb0:	02 00 4c 3c 	addis   r2,r12,2
    6bb4:	50 13 42 38 	addi    r2,r2,4944
    6bb8:	a6 02 08 7c 	mflr    r0
    6bbc:	70 ff c1 f9 	std     r14,-144(r1)
    6bc0:	78 ff e1 f9 	std     r15,-136(r1)
    6bc4:	fe ff 22 3d 	addis   r9,r2,-2
    6bc8:	26 80 90 7d 	mfocrf  r12,8
    6bcc:	80 ff 01 fa 	std     r16,-128(r1)
    6bd0:	88 ff 21 fa 	std     r17,-120(r1)
    6bd4:	10 1f 29 39 	addi    r9,r9,7952
    6bd8:	01 00 e0 39 	li      r15,1
    6bdc:	90 ff 41 fa 	std     r18,-112(r1)
    6be0:	a0 ff 81 fa 	std     r20,-96(r1)
    6be4:	00 00 20 3a 	li      r17,0
    6be8:	a8 ff a1 fa 	std     r21,-88(r1)
    6bec:	b8 ff e1 fa 	std     r23,-72(r1)
    6bf0:	20 00 e0 3a 	li      r23,32
    6bf4:	c0 ff 01 fb 	std     r24,-64(r1)
    6bf8:	c8 ff 21 fb 	std     r25,-56(r1)
    6bfc:	10 00 01 f8 	std     r0,16(r1)
    6c00:	d0 ff 41 fb 	std     r26,-48(r1)
    6c04:	a0 00 00 38 	li      r0,160
    6c08:	2c 01 40 3b 	li      r26,300
    6c0c:	d8 ff 61 fb 	std     r27,-40(r1)
    6c10:	e0 ff 81 fb 	std     r28,-32(r1)
    6c14:	e8 ff a1 fb 	std     r29,-24(r1)
    6c18:	f0 ff c1 fb 	std     r30,-16(r1)
    6c1c:	01 00 a0 3f 	lis     r29,1
    6c20:	f8 ff e1 fb 	std     r31,-8(r1)
    6c24:	08 00 81 91 	stw     r12,8(r1)
    6c28:	e4 83 bd 7b 	rldicr  r29,r29,16,47
    6c2c:	98 ff 61 fa 	std     r19,-104(r1)
    6c30:	b0 ff c1 fa 	std     r22,-80(r1)
    6c34:	01 00 bd 63 	ori     r29,r29,1
    6c38:	a1 fe 21 f8 	stdu    r1,-352(r1)
    6c3c:	1d 00 02 3e 	addis   r16,r2,29
    6c40:	cc 62 10 3a 	addi    r16,r16,25292
    6c44:	09 00 c2 3d 	addis   r14,r2,9
    6c48:	bc 51 ce 39 	addi    r14,r14,20924
    6c4c:	4d 00 02 3f 	addis   r24,r2,77
    6c50:	a8 39 18 3b 	addi    r24,r24,14760
    6c54:	27 00 22 3f 	addis   r25,r2,39
    6c58:	f4 3b 39 3b 	addi    r25,r25,15348
    6c5c:	4d 00 42 3e 	addis   r18,r2,77
    6c60:	98 39 52 3a 	addi    r18,r18,14744
    6c64:	82 f0 1f 7a 	rldicl  r31,r16,62,2
    6c68:	00 68 8e 3b 	addi    r28,r14,26624
    6c6c:	d0 00 ff 7f 	neg     r31,r31
    6c70:	ce 01 a1 7f 	stvx    v29,r1,r0
    6c74:	b0 00 00 38 	li      r0,176
    6c78:	be 07 ff 57 	clrlwi  r31,r31,30
    6c7c:	20 00 fb 7b 	clrldi  r27,r31,32
    6c80:	00 02 ff 23 	subfic  r31,r31,512
    6c84:	ce 01 c1 7f 	stvx    v30,r1,r0
    6c88:	c0 00 00 38 	li      r0,192
    6c8c:	3a 00 ea 57 	rlwinm  r10,r31,0,0,29
    6c90:	64 17 7e 7b 	rldicr  r30,r27,2,61
    6c94:	00 00 3b 2e 	cmpdi   cr4,r27,0
    6c98:	ce 01 e1 7f 	stvx    v31,r1,r0
    6c9c:	70 00 21 f9 	std     r9,112(r1)
    6ca0:	fe ff 22 3d 	addis   r9,r2,-2
    6ca4:	8c 03 e0 13 	vspltisw v31,0
    6ca8:	8c 03 c1 13 	vspltisw v30,1
    6cac:	20 1f 29 39 	addi    r9,r9,7968
    6cb0:	14 f2 d0 7f 	add     r30,r16,r30
    6cb4:	20 00 55 79 	clrldi  r21,r10,32
    6cb8:	78 00 21 f9 	std     r9,120(r1)
    6cbc:	fe ff 22 3d 	addis   r9,r2,-2
    6cc0:	30 1f 29 39 	addi    r9,r9,7984
    6cc4:	80 00 21 f9 	std     r9,128(r1)
    6cc8:	fe ff 22 3d 	addis   r9,r2,-2
    6ccc:	4d 00 62 3e 	addis   r19,r2,77
    6cd0:	7c 39 73 3a 	addi    r19,r19,14716
    6cd4:	09 00 82 3e 	addis   r20,r2,9
    6cd8:	b8 51 94 3a 	addi    r20,r20,20920
    6cdc:	40 1f 29 39 	addi    r9,r9,8000
    6ce0:	88 00 21 f9 	std     r9,136(r1)
    6ce4:	fe ff 22 3d 	addis   r9,r2,-2
    6ce8:	50 1f 29 39 	addi    r9,r9,8016
    6cec:	90 00 21 f9 	std     r9,144(r1)
    6cf0:	b4 07 49 7d 	extsw   r9,r10
    6cf4:	68 00 21 f9 	std     r9,104(r1)
    6cf8:	20 00 e9 7b 	clrldi  r9,r31,32
    6cfc:	a2 f0 ff 7b 	rldicl  r31,r31,62,34
    6d00:	60 00 21 f9 	std     r9,96(r1)
    6d04:	fe ff 22 3d 	addis   r9,r2,-2
    6d08:	60 1f 29 39 	addi    r9,r9,8032
    6d0c:	99 4e a0 7f 	lxvd2x  vs61,0,r9
    6d10:	fe ff 22 3d 	addis   r9,r2,-2
    6d14:	b0 20 29 39 	addi    r9,r9,8368
    6d18:	98 00 21 f9 	std     r9,152(r1)
    6d1c:	57 ea bd f3 	xxswapd vs61,vs61
    6d20:	30 05 92 41 	beq     cr4,7250 <Puzzle+0x6a0>
    6d24:	01 00 9b 2b 	cmplwi  cr7,r27,1
    6d28:	00 00 f0 91 	stw     r15,0(r16)
    6d2c:	74 05 9e 41 	beq     cr7,72a0 <Puzzle+0x6f0>
    6d30:	03 00 9b 2b 	cmplwi  cr7,r27,3
    6d34:	04 00 f0 91 	stw     r15,4(r16)
    6d38:	74 05 9e 40 	bne     cr7,72ac <Puzzle+0x6fc>
    6d3c:	08 00 f0 91 	stw     r15,8(r16)
    6d40:	fd 01 e0 38 	li      r7,509
    6d44:	03 00 00 39 	li      r8,3
    6d48:	00 00 9f 2f 	cmpwi   cr7,r31,0
    6d4c:	ff ff 3f 39 	addi    r9,r31,-1
    6d50:	20 00 29 79 	clrldi  r9,r9,32
    6d54:	00 00 40 39 	li      r10,0
    6d58:	01 00 29 39 	addi    r9,r9,1
    6d5c:	a6 03 29 7d 	mtctr   r9
    6d60:	58 05 9e 41 	beq     cr7,72b8 <Puzzle+0x708>
    6d64:	1c 00 00 48 	b       6d80 <Puzzle+0x1d0>
    6d68:	00 00 00 60 	nop
    6d6c:	00 00 00 60 	nop
    6d70:	00 00 00 60 	nop
    6d74:	00 00 00 60 	nop
    6d78:	00 00 00 60 	nop
    6d7c:	00 00 42 60 	ori     r2,r2,0
    6d80:	e4 26 49 79 	rldicr  r9,r10,4,59
    6d84:	56 f2 1e f0 	xxswapd vs0,vs62
    6d88:	01 00 4a 39 	addi    r10,r10,1
    6d8c:	98 4f 1e 7c 	stxvd2x vs0,r30,r9
    6d90:	f0 ff 00 42 	bdnz    6d80 <Puzzle+0x1d0>
    6d94:	60 00 21 81 	lwz     r9,96(r1)
    6d98:	50 38 f5 7c 	subf    r7,r21,r7
    6d9c:	40 a8 89 7f 	cmplw   cr7,r9,r21
    6da0:	68 00 21 81 	lwz     r9,104(r1)
    6da4:	14 4a 08 7d 	add     r8,r8,r9
    6da8:	b4 07 09 7d 	extsw   r9,r8
    6dac:	3c 00 9e 41 	beq     cr7,6de8 <Puzzle+0x238>
    6db0:	01 00 87 2f 	cmpwi   cr7,r7,1
    6db4:	64 17 29 79 	rldicr  r9,r9,2,61
    6db8:	01 00 48 39 	addi    r10,r8,1
    6dbc:	2e 49 f0 7d 	stwx    r15,r16,r9
    6dc0:	b4 07 4a 7d 	extsw   r10,r10
    6dc4:	24 00 9e 41 	beq     cr7,6de8 <Puzzle+0x238>
    6dc8:	02 00 87 2b 	cmplwi  cr7,r7,2
    6dcc:	64 17 4a 79 	rldicr  r10,r10,2,61
    6dd0:	02 00 28 39 	addi    r9,r8,2
    6dd4:	2e 51 f0 7d 	stwx    r15,r16,r10
    6dd8:	b4 07 29 7d 	extsw   r9,r9
    6ddc:	0c 00 9e 41 	beq     cr7,6de8 <Puzzle+0x238>
    6de0:	64 17 29 79 	rldicr  r9,r9,2,61
    6de4:	2e 49 f0 7d 	stwx    r15,r16,r9
    6de8:	57 fa bf f0 	xxswapd vs37,vs63
    6dec:	24 01 20 39 	li      r9,292
    6df0:	34 01 30 92 	stw     r17,308(r16)
    6df4:	54 01 30 92 	stw     r17,340(r16)
    6df8:	78 73 d6 7d 	mr      r22,r14
    6dfc:	34 02 30 92 	stw     r17,564(r16)
    6e00:	54 02 30 92 	stw     r17,596(r16)
    6e04:	99 4f b0 7c 	stxvd2x vs37,r16,r9
    6e08:	24 02 20 39 	li      r9,548
    6e0c:	34 03 30 92 	stw     r17,820(r16)
    6e10:	34 04 30 92 	stw     r17,1076(r16)
    6e14:	34 05 30 92 	stw     r17,1332(r16)
    6e18:	99 4f b0 7c 	stxvd2x vs37,r16,r9
    6e1c:	24 03 20 39 	li      r9,804
    6e20:	99 4f b0 7c 	stxvd2x vs37,r16,r9
    6e24:	24 04 20 39 	li      r9,1060
    6e28:	99 4f b0 7c 	stxvd2x vs37,r16,r9
    6e2c:	24 05 20 39 	li      r9,1316
    6e30:	99 4f b0 7c 	stxvd2x vs37,r16,r9
    6e34:	44 01 20 39 	li      r9,324
    6e38:	99 4f b0 7c 	stxvd2x vs37,r16,r9
    6e3c:	44 02 20 39 	li      r9,580
    6e40:	99 4f b0 7c 	stxvd2x vs37,r16,r9
    6e44:	44 03 20 39 	li      r9,836
    6e48:	99 4f b0 7c 	stxvd2x vs37,r16,r9
    6e4c:	44 04 20 39 	li      r9,1092
    6e50:	99 4f b0 7c 	stxvd2x vs37,r16,r9
    6e54:	44 05 20 39 	li      r9,1348
    6e58:	99 4f b0 7c 	stxvd2x vs37,r16,r9
    6e5c:	64 01 20 39 	li      r9,356
    6e60:	99 4f b0 7c 	stxvd2x vs37,r16,r9
    6e64:	64 02 20 39 	li      r9,612
    6e68:	99 4f b0 7c 	stxvd2x vs37,r16,r9
    6e6c:	64 03 20 39 	li      r9,868
    6e70:	99 4f b0 7c 	stxvd2x vs37,r16,r9
    6e74:	64 04 20 39 	li      r9,1124
    6e78:	99 4f b0 7c 	stxvd2x vs37,r16,r9
    6e7c:	64 05 20 39 	li      r9,1380
    6e80:	99 4f b0 7c 	stxvd2x vs37,r16,r9
    6e84:	84 01 20 39 	li      r9,388
    6e88:	99 4f b0 7c 	stxvd2x vs37,r16,r9
    6e8c:	84 02 20 39 	li      r9,644
    6e90:	99 4f b0 7c 	stxvd2x vs37,r16,r9
    6e94:	84 03 20 39 	li      r9,900
    6e98:	99 4f b0 7c 	stxvd2x vs37,r16,r9
    6e9c:	84 04 20 39 	li      r9,1156
    6ea0:	99 4f b0 7c 	stxvd2x vs37,r16,r9
    6ea4:	84 05 20 39 	li      r9,1412
    6ea8:	99 4f b0 7c 	stxvd2x vs37,r16,r9
    6eac:	a4 01 20 39 	li      r9,420
    6eb0:	99 4f b0 7c 	stxvd2x vs37,r16,r9
    6eb4:	a4 02 20 39 	li      r9,676
    6eb8:	99 4f b0 7c 	stxvd2x vs37,r16,r9
    6ebc:	a4 03 20 39 	li      r9,932
    6ec0:	99 4f b0 7c 	stxvd2x vs37,r16,r9
    6ec4:	a4 04 20 39 	li      r9,1188
    6ec8:	99 4f b0 7c 	stxvd2x vs37,r16,r9
    6ecc:	a4 05 20 39 	li      r9,1444
    6ed0:	99 4f b0 7c 	stxvd2x vs37,r16,r9
    6ed4:	54 03 30 92 	stw     r17,852(r16)
    6ed8:	54 04 30 92 	stw     r17,1108(r16)
    6edc:	54 05 30 92 	stw     r17,1364(r16)
    6ee0:	74 01 30 92 	stw     r17,372(r16)
    6ee4:	74 02 30 92 	stw     r17,628(r16)
    6ee8:	74 03 30 92 	stw     r17,884(r16)
    6eec:	74 04 30 92 	stw     r17,1140(r16)
    6ef0:	74 05 30 92 	stw     r17,1396(r16)
    6ef4:	94 01 30 92 	stw     r17,404(r16)
    6ef8:	94 02 30 92 	stw     r17,660(r16)
    6efc:	94 03 30 92 	stw     r17,916(r16)
    6f00:	94 04 30 92 	stw     r17,1172(r16)
    6f04:	94 05 30 92 	stw     r17,1428(r16)
    6f08:	b4 01 30 92 	stw     r17,436(r16)
    6f0c:	b4 02 30 92 	stw     r17,692(r16)
    6f10:	b4 03 30 92 	stw     r17,948(r16)
    6f14:	b4 04 30 92 	stw     r17,1204(r16)
    6f18:	b4 05 30 92 	stw     r17,1460(r16)
    6f1c:	00 00 42 60 	ori     r2,r2,0
    6f20:	78 b3 c3 7e 	mr      r3,r22
    6f24:	00 08 a0 38 	li      r5,2048
    6f28:	00 00 80 38 	li      r4,0
    6f2c:	00 08 d6 3a 	addi    r22,r22,2048
    6f30:	51 9c ff 4b 	bl      b80 <00000048.plt_call.memset@@GLIBC_2.17>
    6f34:	18 00 41 e8 	ld      r2,24(r1)
    6f38:	40 e0 b6 7f 	cmpld   cr7,r22,r28
    6f3c:	e4 ff 9e 40 	bne     cr7,6f20 <Puzzle+0x370>
    6f40:	56 f2 3e f1 	xxswapd vs9,vs62
    6f44:	00 20 20 39 	li      r9,8192
    6f48:	00 10 ee 91 	stw     r15,4096(r14)
    6f4c:	00 11 ee 91 	stw     r15,4352(r14)
    6f50:	56 fa 1f f0 	xxswapd vs0,vs63
    6f54:	20 10 ee 91 	stw     r15,4128(r14)
    6f58:	20 11 ee 91 	stw     r15,4384(r14)
    6f5c:	98 77 20 7d 	stxvd2x vs9,0,r14
    6f60:	40 10 ee 91 	stw     r15,4160(r14)
    6f64:	98 bf 2e 7d 	stxvd2x vs9,r14,r23
    6f68:	40 11 ee 91 	stw     r15,4416(r14)
    6f6c:	60 10 ee 91 	stw     r15,4192(r14)
    6f70:	60 11 ee 91 	stw     r15,4448(r14)
    6f74:	98 4f 2e 7d 	stxvd2x vs9,r14,r9
    6f78:	00 21 20 39 	li      r9,8448
    6f7c:	00 08 ae fb 	std     r29,2048(r14)
    6f80:	00 09 ae fb 	std     r29,2304(r14)
    6f84:	00 0a ae fb 	std     r29,2560(r14)
    6f88:	98 4f 2e 7d 	stxvd2x vs9,r14,r9
    6f8c:	00 0b ae fb 	std     r29,2816(r14)
    6f90:	00 18 ae fb 	std     r29,6144(r14)
    6f94:	20 18 ae fb 	std     r29,6176(r14)
    6f98:	40 18 ae fb 	std     r29,6208(r14)
    6f9c:	60 18 ae fb 	std     r29,6240(r14)
    6fa0:	00 28 ee 91 	stw     r15,10240(r14)
    6fa4:	00 29 ee 91 	stw     r15,10496(r14)
    6fa8:	00 2a ee 91 	stw     r15,10752(r14)
    6fac:	00 2b ee 91 	stw     r15,11008(r14)
    6fb0:	20 28 ee 91 	stw     r15,10272(r14)
    6fb4:	20 29 ee 91 	stw     r15,10528(r14)
    6fb8:	20 2a ee 91 	stw     r15,10784(r14)
    6fbc:	20 2b ee 91 	stw     r15,11040(r14)
    6fc0:	00 30 ae fb 	std     r29,12288(r14)
    6fc4:	08 30 ee 91 	stw     r15,12296(r14)
    6fc8:	00 38 ee 91 	stw     r15,14336(r14)
    6fcc:	20 38 ee 91 	stw     r15,14368(r14)
    6fd0:	40 38 ee 91 	stw     r15,14400(r14)
    6fd4:	78 00 41 e9 	ld      r10,120(r1)
    6fd8:	70 00 21 e9 	ld      r9,112(r1)
    6fdc:	00 40 ee 91 	stw     r15,16384(r14)
    6fe0:	00 41 ee 91 	stw     r15,16640(r14)
    6fe4:	00 42 ee 91 	stw     r15,16896(r14)
    6fe8:	00 48 ae fb 	std     r29,18432(r14)
    6fec:	98 56 20 7d 	lxvd2x  vs9,0,r10
    6ff0:	80 00 41 e9 	ld      r10,128(r1)
    6ff4:	98 4e 00 7d 	lxvd2x  vs8,0,r9
    6ff8:	16 00 2e e9 	lwa     r9,20(r14)
    6ffc:	20 48 ae fb 	std     r29,18464(r14)
    7000:	00 50 ae fb 	std     r29,20480(r14)
    7004:	00 51 ae fb 	std     r29,20736(r14)
    7008:	98 56 40 7d 	lxvd2x  vs10,0,r10
    700c:	88 00 41 e9 	ld      r10,136(r1)
    7010:	00 58 ee 91 	stw     r15,22528(r14)
    7014:	00 00 29 2f 	cmpdi   cr6,r9,0
    7018:	10 00 20 39 	li      r9,16
    701c:	00 59 ee 91 	stw     r15,22784(r14)
    7020:	20 58 ee 91 	stw     r15,22560(r14)
    7024:	98 bf 18 7d 	stxvd2x vs8,r24,r23
    7028:	20 59 ee 91 	stw     r15,22816(r14)
    702c:	99 4f b8 7f 	stxvd2x vs61,r24,r9
    7030:	98 56 60 7d 	lxvd2x  vs11,0,r10
    7034:	90 00 41 e9 	ld      r10,144(r1)
    7038:	20 61 ee 91 	stw     r15,24864(r14)
    703c:	00 60 ae fb 	std     r29,24576(r14)
    7040:	00 61 ae fb 	std     r29,24832(r14)
    7044:	20 60 ae fb 	std     r29,24608(r14)
    7048:	98 56 80 7d 	lxvd2x  vs12,0,r10
    704c:	03 00 40 39 	li      r10,3
    7050:	24 61 ee 91 	stw     r15,24868(r14)
    7054:	00 00 33 92 	stw     r17,0(r19)
    7058:	30 00 58 91 	stw     r10,48(r24)
    705c:	49 00 40 39 	li      r10,73
    7060:	30 00 59 91 	stw     r10,48(r25)
    7064:	98 cf 20 7d 	stxvd2x vs9,0,r25
    7068:	98 4f 59 7d 	stxvd2x vs10,r25,r9
    706c:	98 bf 79 7d 	stxvd2x vs11,r25,r23
    7070:	98 97 80 7d 	stxvd2x vs12,0,r18
    7074:	98 c7 00 7c 	stxvd2x vs0,0,r24
    7078:	10 00 9a 41 	beq     cr6,7088 <Puzzle+0x4d8>
    707c:	38 01 30 81 	lwz     r9,312(r16)
    7080:	00 00 89 2f 	cmpwi   cr7,r9,0
    7084:	d8 01 9e 40 	bne     cr7,725c <Puzzle+0x6ac>
    7088:	1a 00 2e e9 	lwa     r9,24(r14)
    708c:	00 00 a9 2e 	cmpdi   cr5,r9,0
    7090:	10 00 96 41 	beq     cr5,70a0 <Puzzle+0x4f0>
    7094:	3c 01 30 81 	lwz     r9,316(r16)
    7098:	00 00 89 2f 	cmpwi   cr7,r9,0
    709c:	c0 01 9e 40 	bne     cr7,725c <Puzzle+0x6ac>
    70a0:	1e 00 2e e9 	lwa     r9,28(r14)
    70a4:	00 00 a9 2f 	cmpdi   cr7,r9,0
    70a8:	10 00 9e 41 	beq     cr7,70b8 <Puzzle+0x508>
    70ac:	40 01 30 81 	lwz     r9,320(r16)
    70b0:	00 00 89 2c 	cmpwi   cr1,r9,0
    70b4:	a8 01 86 40 	bne     cr1,725c <Puzzle+0x6ac>
    70b8:	00 00 2e 81 	lwz     r9,0(r14)
    70bc:	00 00 89 2c 	cmpwi   cr1,r9,0
    70c0:	08 00 86 41 	beq     cr1,70c8 <Puzzle+0x518>
    70c4:	24 01 f0 91 	stw     r15,292(r16)
    70c8:	04 00 2e 81 	lwz     r9,4(r14)
    70cc:	00 00 89 2c 	cmpwi   cr1,r9,0
    70d0:	08 00 86 41 	beq     cr1,70d8 <Puzzle+0x528>
    70d4:	28 01 f0 91 	stw     r15,296(r16)
    70d8:	08 00 2e 81 	lwz     r9,8(r14)
    70dc:	00 00 89 2c 	cmpwi   cr1,r9,0
    70e0:	08 00 86 41 	beq     cr1,70e8 <Puzzle+0x538>
    70e4:	2c 01 f0 91 	stw     r15,300(r16)
    70e8:	0c 00 2e 81 	lwz     r9,12(r14)
    70ec:	00 00 89 2c 	cmpwi   cr1,r9,0
    70f0:	08 00 86 41 	beq     cr1,70f8 <Puzzle+0x548>
    70f4:	30 01 f0 91 	stw     r15,304(r16)
    70f8:	10 00 2e 81 	lwz     r9,16(r14)
    70fc:	00 00 89 2c 	cmpwi   cr1,r9,0
    7100:	08 00 86 41 	beq     cr1,7108 <Puzzle+0x558>
    7104:	34 01 f0 91 	stw     r15,308(r16)
    7108:	08 00 9a 41 	beq     cr6,7110 <Puzzle+0x560>
    710c:	38 01 f0 91 	stw     r15,312(r16)
    7110:	08 00 96 41 	beq     cr5,7118 <Puzzle+0x568>
    7114:	3c 01 f0 91 	stw     r15,316(r16)
    7118:	08 00 9e 41 	beq     cr7,7120 <Puzzle+0x570>
    711c:	40 01 f0 91 	stw     r15,320(r16)
    7120:	20 00 2e 81 	lwz     r9,32(r14)
    7124:	00 00 89 2f 	cmpwi   cr7,r9,0
    7128:	08 00 9e 41 	beq     cr7,7130 <Puzzle+0x580>
    712c:	44 01 f0 91 	stw     r15,324(r16)
    7130:	24 00 2e 81 	lwz     r9,36(r14)
    7134:	00 00 89 2f 	cmpwi   cr7,r9,0
    7138:	08 00 9e 41 	beq     cr7,7140 <Puzzle+0x590>
    713c:	48 01 f0 91 	stw     r15,328(r16)
    7140:	28 00 2e 81 	lwz     r9,40(r14)
    7144:	00 00 89 2f 	cmpwi   cr7,r9,0
    7148:	08 00 9e 41 	beq     cr7,7150 <Puzzle+0x5a0>
    714c:	4c 01 f0 91 	stw     r15,332(r16)
    7150:	2c 00 2e 81 	lwz     r9,44(r14)
    7154:	00 00 89 2f 	cmpwi   cr7,r9,0
    7158:	08 00 9e 41 	beq     cr7,7160 <Puzzle+0x5b0>
    715c:	50 01 f0 91 	stw     r15,336(r16)
    7160:	0c 00 20 39 	li      r9,12
    7164:	1d 00 42 3d 	addis   r10,r2,29
    7168:	ec 63 4a 39 	addi    r10,r10,25580
    716c:	49 00 60 38 	li      r3,73
    7170:	00 00 32 91 	stw     r9,0(r18)
    7174:	b7 01 20 39 	li      r9,439
    7178:	a6 03 29 7d 	mtctr   r9
    717c:	0c 00 00 48 	b       7188 <Puzzle+0x5d8>
    7180:	b4 07 03 7d 	extsw   r3,r8
    7184:	0c 01 40 42 	bdz     7290 <Puzzle+0x6e0>
    7188:	04 00 2a 85 	lwzu    r9,4(r10)
    718c:	01 00 03 39 	addi    r8,r3,1
    7190:	00 00 89 2f 	cmpwi   cr7,r9,0
    7194:	ec ff 9e 40 	bne     cr7,7180 <Puzzle+0x5d0>
    7198:	00 00 74 90 	stw     r3,0(r20)
    719c:	fd f6 ff 4b 	bl      6898 <Trial+0x8>
    71a0:	00 00 a3 2f 	cmpdi   cr7,r3,0
    71a4:	d4 00 9e 41 	beq     cr7,7278 <Puzzle+0x6c8>
    71a8:	00 00 33 81 	lwz     r9,0(r19)
    71ac:	d5 07 89 2f 	cmpwi   cr7,r9,2005
    71b0:	14 00 9e 41 	beq     cr7,71c4 <Puzzle+0x614>
    71b4:	fe ff 62 3c 	addis   r3,r2,-2
    71b8:	e0 20 63 38 	addi    r3,r3,8416
    71bc:	65 99 ff 4b 	bl      b20 <00000048.plt_call.puts@@GLIBC_2.17>
    71c0:	18 00 41 e8 	ld      r2,24(r1)
    71c4:	ff ff 5a 3b 	addi    r26,r26,-1
    71c8:	21 00 5a 7b 	clrldi. r26,r26,32
    71cc:	54 fb 82 40 	bne     6d20 <Puzzle+0x170>
    71d0:	40 ff 00 38 	li      r0,-192
    71d4:	60 01 21 38 	addi    r1,r1,352
    71d8:	ce 00 a1 7f 	lvx     v29,r1,r0
    71dc:	50 ff 00 38 	li      r0,-176
    71e0:	08 00 81 81 	lwz     r12,8(r1)
    71e4:	70 ff c1 e9 	ld      r14,-144(r1)
    71e8:	78 ff e1 e9 	ld      r15,-136(r1)
    71ec:	80 ff 01 ea 	ld      r16,-128(r1)
    71f0:	88 ff 21 ea 	ld      r17,-120(r1)
    71f4:	90 ff 41 ea 	ld      r18,-112(r1)
    71f8:	98 ff 61 ea 	ld      r19,-104(r1)
    71fc:	ce 00 c1 7f 	lvx     v30,r1,r0
    7200:	60 ff 00 38 	li      r0,-160
    7204:	a0 ff 81 ea 	ld      r20,-96(r1)
    7208:	a8 ff a1 ea 	ld      r21,-88(r1)
    720c:	b0 ff c1 ea 	ld      r22,-80(r1)
    7210:	20 81 90 7d 	mtocrf  8,r12
    7214:	ce 00 e1 7f 	lvx     v31,r1,r0
    7218:	10 00 01 e8 	ld      r0,16(r1)
    721c:	b8 ff e1 ea 	ld      r23,-72(r1)
    7220:	c0 ff 01 eb 	ld      r24,-64(r1)
    7224:	c8 ff 21 eb 	ld      r25,-56(r1)
    7228:	d0 ff 41 eb 	ld      r26,-48(r1)
    722c:	d8 ff 61 eb 	ld      r27,-40(r1)
    7230:	e0 ff 81 eb 	ld      r28,-32(r1)
    7234:	e8 ff a1 eb 	ld      r29,-24(r1)
    7238:	f0 ff c1 eb 	ld      r30,-16(r1)
    723c:	f8 ff e1 eb 	ld      r31,-8(r1)
    7240:	a6 03 08 7c 	mtlr    r0
    7244:	20 00 80 4e 	blr
    7248:	00 00 00 60 	nop
    724c:	00 00 42 60 	ori     r2,r2,0
    7250:	00 02 e0 38 	li      r7,512
    7254:	00 00 00 39 	li      r8,0
    7258:	f0 fa ff 4b 	b       6d48 <Puzzle+0x198>
    725c:	98 00 61 e8 	ld      r3,152(r1)
    7260:	c1 98 ff 4b 	bl      b20 <00000048.plt_call.puts@@GLIBC_2.17>
    7264:	18 00 41 e8 	ld      r2,24(r1)
    7268:	02 00 74 e8 	lwa     r3,0(r20)
    726c:	2d f6 ff 4b 	bl      6898 <Trial+0x8>
    7270:	00 00 a3 2f 	cmpdi   cr7,r3,0
    7274:	34 ff 9e 40 	bne     cr7,71a8 <Puzzle+0x5f8>
    7278:	fe ff 62 3c 	addis   r3,r2,-2
    727c:	c8 20 63 38 	addi    r3,r3,8392
    7280:	a1 98 ff 4b 	bl      b20 <00000048.plt_call.puts@@GLIBC_2.17>
    7284:	18 00 41 e8 	ld      r2,24(r1)
    7288:	3c ff ff 4b 	b       71c4 <Puzzle+0x614>
    728c:	00 00 42 60 	ori     r2,r2,0
    7290:	00 00 60 38 	li      r3,0
    7294:	04 ff ff 4b 	b       7198 <Puzzle+0x5e8>
    7298:	00 00 00 60 	nop
    729c:	00 00 42 60 	ori     r2,r2,0
    72a0:	ff 01 e0 38 	li      r7,511
    72a4:	01 00 00 39 	li      r8,1
    72a8:	a0 fa ff 4b 	b       6d48 <Puzzle+0x198>
    72ac:	fe 01 e0 38 	li      r7,510
    72b0:	02 00 00 39 	li      r8,2
    72b4:	94 fa ff 4b 	b       6d48 <Puzzle+0x198>
    72b8:	01 00 20 39 	li      r9,1
    72bc:	a6 03 29 7d 	mtctr   r9
    72c0:	c0 fa ff 4b 	b       6d80 <Puzzle+0x1d0>
    72c4:	00 00 00 00 	.long 0x0
    72c8:	00 00 00 03 	.long 0x3000000
    72cc:	80 12 00 00 	.long 0x1280

00000000000072d0 <Initarr>:
    72d0:	02 00 4c 3c 	addis   r2,r12,2
    72d4:	30 0c 42 38 	addi    r2,r2,3120
    72d8:	43 00 62 3d 	addis   r11,r2,67
    72dc:	f4 68 6b 39 	addi    r11,r11,26868
    72e0:	43 00 62 3c 	addis   r3,r2,67
    72e4:	40 5c 63 38 	addi    r3,r3,23616
    72e8:	00 00 40 39 	li      r10,0
    72ec:	27 00 82 3d 	addis   r12,r2,39
    72f0:	ec 3b 8c 39 	addi    r12,r12,15340
    72f4:	27 00 02 3d 	addis   r8,r2,39
    72f8:	28 3c 08 39 	addi    r8,r8,15400
    72fc:	01 00 20 3d 	lis     r9,1
    7300:	00 00 80 38 	li      r4,0
    7304:	00 00 c0 38 	li      r6,0
    7308:	00 00 a0 38 	li      r5,0
    730c:	00 00 e0 38 	li      r7,0
    7310:	00 00 4b 91 	stw     r10,0(r11)
    7314:	00 00 43 91 	stw     r10,0(r3)
    7318:	04 00 40 3d 	lis     r10,4
    731c:	03 24 29 61 	ori     r9,r9,9219
    7320:	e0 93 4a 61 	ori     r10,r10,37856
    7324:	a6 03 49 7d 	mtctr   r10
    7328:	00 00 00 60 	nop
    732c:	00 00 42 60 	ori     r2,r2,0
    7330:	1d 05 29 1d 	mulli   r9,r9,1309
    7334:	19 36 29 39 	addi    r9,r9,13849
    7338:	3e 04 29 55 	clrlwi  r9,r9,16
    733c:	ff ff 49 3d 	addis   r10,r9,-1
    7340:	b4 07 29 7d 	extsw   r9,r9
    7344:	b0 3c 4a 39 	addi    r10,r10,15536
    7348:	00 50 87 7f 	cmpw    cr7,r7,r10
    734c:	00 50 86 7e 	cmpw    cr5,r6,r10
    7350:	04 00 48 95 	stwu    r10,4(r8)
    7354:	b4 07 4a 7d 	extsw   r10,r10
    7358:	38 00 9c 41 	blt     cr7,7390 <Initarr+0xc0>
    735c:	0c 00 95 40 	ble     cr5,7368 <Initarr+0x98>
    7360:	78 53 46 7d 	mr      r6,r10
    7364:	01 00 80 38 	li      r4,1
    7368:	c8 ff 00 42 	bdnz    7330 <Initarr+0x60>
    736c:	00 00 a5 2f 	cmpdi   cr7,r5,0
    7370:	00 00 2c 91 	stw     r9,0(r12)
    7374:	08 00 9e 41 	beq     cr7,737c <Initarr+0xac>
    7378:	00 00 eb 90 	stw     r7,0(r11)
    737c:	00 00 a4 2f 	cmpdi   cr7,r4,0
    7380:	20 00 9e 4d 	beqlr   cr7
    7384:	00 00 c3 90 	stw     r6,0(r3)
    7388:	20 00 80 4e 	blr
    738c:	00 00 42 60 	ori     r2,r2,0
    7390:	78 53 47 7d 	mr      r7,r10
    7394:	01 00 a0 38 	li      r5,1
    7398:	98 ff 00 42 	bdnz    7330 <Initarr+0x60>
    739c:	d0 ff ff 4b 	b       736c <Initarr+0x9c>
	...
    73ac:	00 00 42 60 	ori     r2,r2,0

00000000000073b0 <Quicksort>:
    73b0:	02 00 4c 3c 	addis   r2,r12,2
    73b4:	50 0b 42 38 	addi    r2,r2,2896
    73b8:	c0 ff 01 fb 	std     r24,-64(r1)
    73bc:	c8 ff 21 fb 	std     r25,-56(r1)
    73c0:	64 17 b9 78 	rldicr  r25,r5,2,61
    73c4:	d0 ff 41 fb 	std     r26,-48(r1)
    73c8:	d8 ff 61 fb 	std     r27,-40(r1)
    73cc:	78 2b ba 7c 	mr      r26,r5
    73d0:	78 1b 7b 7c 	mr      r27,r3
    73d4:	e0 ff 81 fb 	std     r28,-32(r1)
    73d8:	f8 ff e1 fb 	std     r31,-8(r1)
    73dc:	14 ca 03 7f 	add     r24,r3,r25
    73e0:	11 ff 21 f8 	stdu    r1,-240(r1)
    73e4:	02 00 58 e9 	lwa     r10,0(r24)
    73e8:	14 22 fa 7c 	add     r7,r26,r4
    73ec:	64 17 8b 78 	rldicr  r11,r4,2,61
    73f0:	70 0e e7 7c 	srawi   r7,r7,1
    73f4:	94 01 e7 7c 	addze   r7,r7
    73f8:	fc ff cb 38 	addi    r6,r11,-4
    73fc:	14 32 db 7c 	add     r6,r27,r6
    7400:	b4 07 e7 7c 	extsw   r7,r7
    7404:	64 17 e7 78 	rldicr  r7,r7,2,61
    7408:	04 00 c6 38 	addi    r6,r6,4
    740c:	02 00 06 e8 	lwa     r0,0(r6)
    7410:	20 00 83 78 	clrldi  r3,r4,32
    7414:	78 d3 5f 7f 	mr      r31,r26
    7418:	aa 3a fb 7c 	lwax    r7,r27,r7
    741c:	78 1b 68 7c 	mr      r8,r3
    7420:	78 cb 29 7f 	mr      r9,r25
    7424:	b4 07 1c 7d 	extsw   r28,r8
    7428:	00 38 80 7f 	cmpw    cr7,r0,r7
    742c:	20 00 9c 40 	bge     cr7,744c <Quicksort+0x9c>
    7430:	01 00 08 39 	addi    r8,r8,1
    7434:	20 00 08 79 	clrldi  r8,r8,32
    7438:	06 00 06 e8 	lwa     r0,4(r6)
    743c:	04 00 c6 38 	addi    r6,r6,4
    7440:	b4 07 1c 7d 	extsw   r28,r8
    7444:	00 38 80 7f 	cmpw    cr7,r0,r7
    7448:	e8 ff 9c 41 	blt     cr7,7430 <Quicksort+0x80>
    744c:	00 50 87 7f 	cmpw    cr7,r7,r10
    7450:	a0 00 9c 40 	bge     cr7,74f0 <Quicksort+0x140>
    7454:	14 4a 3b 7d 	add     r9,r27,r9
    7458:	00 00 00 60 	nop
    745c:	00 00 42 60 	ori     r2,r2,0
    7460:	fe ff 49 e9 	lwa     r10,-4(r9)
    7464:	fc ff 29 39 	addi    r9,r9,-4
    7468:	ff ff ff 3b 	addi    r31,r31,-1
    746c:	b4 07 ff 7f 	extsw   r31,r31
    7470:	78 4b 25 7d 	mr      r5,r9
    7474:	00 38 8a 7f 	cmpw    cr7,r10,r7
    7478:	e8 ff 9d 41 	bgt     cr7,7460 <Quicksort+0xb0>
    747c:	00 f8 9c 7f 	cmpw    cr7,r28,r31
    7480:	40 00 9d 40 	ble     cr7,74c0 <Quicksort+0x110>
    7484:	00 f8 84 7f 	cmpw    cr7,r4,r31
    7488:	70 00 9c 41 	blt     cr7,74f8 <Quicksort+0x148>
    748c:	00 e0 9a 7f 	cmpw    cr7,r26,r28
    7490:	78 e3 84 7f 	mr      r4,r28
    7494:	50 ff 9d 41 	bgt     cr7,73e4 <Quicksort+0x34>
    7498:	f0 00 21 38 	addi    r1,r1,240
    749c:	c0 ff 01 eb 	ld      r24,-64(r1)
    74a0:	c8 ff 21 eb 	ld      r25,-56(r1)
    74a4:	d0 ff 41 eb 	ld      r26,-48(r1)
    74a8:	d8 ff 61 eb 	ld      r27,-40(r1)
    74ac:	e0 ff 81 eb 	ld      r28,-32(r1)
    74b0:	f8 ff e1 eb 	ld      r31,-8(r1)
    74b4:	20 00 80 4e 	blr
    74b8:	00 00 00 60 	nop
    74bc:	00 00 42 60 	ori     r2,r2,0
    74c0:	01 00 08 39 	addi    r8,r8,1
    74c4:	ff ff ff 3b 	addi    r31,r31,-1
    74c8:	00 00 46 91 	stw     r10,0(r6)
    74cc:	00 00 05 90 	stw     r0,0(r5)
    74d0:	00 40 9f 7f 	cmpw    cr7,r31,r8
    74d4:	b4 07 1c 7d 	extsw   r28,r8
    74d8:	b4 07 ff 7f 	extsw   r31,r31
    74dc:	a8 ff 9c 41 	blt     cr7,7484 <Quicksort+0xd4>
    74e0:	64 17 e9 7b 	rldicr  r9,r31,2,61
    74e4:	20 00 08 79 	clrldi  r8,r8,32
    74e8:	aa 4a 5b 7d 	lwax    r10,r27,r9
    74ec:	4c ff ff 4b 	b       7438 <Quicksort+0x88>
    74f0:	14 4a bb 7c 	add     r5,r27,r9
    74f4:	88 ff ff 4b 	b       747c <Quicksort+0xcc>
    74f8:	a8 00 e1 fa 	std     r23,168(r1)
    74fc:	e0 00 c1 fb 	std     r30,224(r1)
    7500:	a0 00 c1 fa 	std     r22,160(r1)
    7504:	64 17 f6 7b 	rldicr  r22,r31,2,61
    7508:	98 00 a1 fa 	std     r21,152(r1)
    750c:	14 b2 bb 7e 	add     r21,r27,r22
    7510:	02 00 55 e9 	lwa     r10,0(r21)
    7514:	14 22 ff 7c 	add     r7,r31,r4
    7518:	fc ff cb 38 	addi    r6,r11,-4
    751c:	70 0e e7 7c 	srawi   r7,r7,1
    7520:	94 01 e7 7c 	addze   r7,r7
    7524:	14 32 db 7c 	add     r6,r27,r6
    7528:	b4 07 e7 7c 	extsw   r7,r7
    752c:	04 00 c6 38 	addi    r6,r6,4
    7530:	02 00 06 e8 	lwa     r0,0(r6)
    7534:	64 17 e7 78 	rldicr  r7,r7,2,61
    7538:	78 1b 68 7c 	mr      r8,r3
    753c:	78 fb fe 7f 	mr      r30,r31
    7540:	aa 3a fb 7c 	lwax    r7,r27,r7
    7544:	78 b3 c9 7e 	mr      r9,r22
    7548:	b4 07 17 7d 	extsw   r23,r8
    754c:	00 00 87 7f 	cmpw    cr7,r7,r0
    7550:	2c 00 9d 40 	ble     cr7,757c <Quicksort+0x1cc>
    7554:	00 00 00 60 	nop
    7558:	00 00 00 60 	nop
    755c:	00 00 42 60 	ori     r2,r2,0
    7560:	01 00 08 39 	addi    r8,r8,1
    7564:	20 00 08 79 	clrldi  r8,r8,32
    7568:	06 00 06 e8 	lwa     r0,4(r6)
    756c:	04 00 c6 38 	addi    r6,r6,4
    7570:	b4 07 17 7d 	extsw   r23,r8
    7574:	00 00 87 7f 	cmpw    cr7,r7,r0
    7578:	e8 ff 9d 41 	bgt     cr7,7560 <Quicksort+0x1b0>
    757c:	00 50 87 7f 	cmpw    cr7,r7,r10
    7580:	a0 00 9c 40 	bge     cr7,7620 <Quicksort+0x270>
    7584:	14 4a 3b 7d 	add     r9,r27,r9
    7588:	18 00 00 48 	b       75a0 <Quicksort+0x1f0>
    758c:	00 00 00 60 	nop
    7590:	00 00 00 60 	nop
    7594:	00 00 00 60 	nop
    7598:	00 00 00 60 	nop
    759c:	00 00 42 60 	ori     r2,r2,0
    75a0:	fe ff 49 e9 	lwa     r10,-4(r9)
    75a4:	fc ff 29 39 	addi    r9,r9,-4
    75a8:	ff ff de 3b 	addi    r30,r30,-1
    75ac:	b4 07 de 7f 	extsw   r30,r30
    75b0:	78 4b 25 7d 	mr      r5,r9
    75b4:	00 50 87 7f 	cmpw    cr7,r7,r10
    75b8:	e8 ff 9c 41 	blt     cr7,75a0 <Quicksort+0x1f0>
    75bc:	00 f0 97 7f 	cmpw    cr7,r23,r30
    75c0:	30 00 9d 40 	ble     cr7,75f0 <Quicksort+0x240>
    75c4:	00 20 9e 7f 	cmpw    cr7,r30,r4
    75c8:	74 00 9d 41 	bgt     cr7,763c <Quicksort+0x28c>
    75cc:	00 f8 97 7f 	cmpw    cr7,r23,r31
    75d0:	78 bb e4 7e 	mr      r4,r23
    75d4:	54 00 9c 40 	bge     cr7,7628 <Quicksort+0x278>
    75d8:	64 17 eb 7a 	rldicr  r11,r23,2,61
    75dc:	20 00 e3 7a 	clrldi  r3,r23,32
    75e0:	30 ff ff 4b 	b       7510 <Quicksort+0x160>
    75e4:	00 00 00 60 	nop
    75e8:	00 00 00 60 	nop
    75ec:	00 00 42 60 	ori     r2,r2,0
    75f0:	01 00 08 39 	addi    r8,r8,1
    75f4:	ff ff de 3b 	addi    r30,r30,-1
    75f8:	00 00 46 91 	stw     r10,0(r6)
    75fc:	00 00 05 90 	stw     r0,0(r5)
    7600:	00 40 9e 7f 	cmpw    cr7,r30,r8
    7604:	b4 07 17 7d 	extsw   r23,r8
    7608:	b4 07 de 7f 	extsw   r30,r30
    760c:	b8 ff 9c 41 	blt     cr7,75c4 <Quicksort+0x214>
    7610:	64 17 c9 7b 	rldicr  r9,r30,2,61
    7614:	20 00 08 79 	clrldi  r8,r8,32
    7618:	aa 4a 5b 7d 	lwax    r10,r27,r9
    761c:	4c ff ff 4b 	b       7568 <Quicksort+0x1b8>
    7620:	14 4a bb 7c 	add     r5,r27,r9
    7624:	98 ff ff 4b 	b       75bc <Quicksort+0x20c>
    7628:	98 00 a1 ea 	ld      r21,152(r1)
    762c:	a0 00 c1 ea 	ld      r22,160(r1)
    7630:	a8 00 e1 ea 	ld      r23,168(r1)
    7634:	e0 00 c1 eb 	ld      r30,224(r1)
    7638:	54 fe ff 4b 	b       748c <Quicksort+0xdc>
    763c:	90 00 81 fa 	std     r20,144(r1)
    7640:	d8 00 a1 fb 	std     r29,216(r1)
    7644:	88 00 61 fa 	std     r19,136(r1)
    7648:	64 17 d3 7b 	rldicr  r19,r30,2,61
    764c:	80 00 41 fa 	std     r18,128(r1)
    7650:	14 9a 5b 7e 	add     r18,r27,r19
    7654:	02 00 52 e9 	lwa     r10,0(r18)
    7658:	14 22 1e 7d 	add     r8,r30,r4
    765c:	fc ff ab 38 	addi    r5,r11,-4
    7660:	70 0e 08 7d 	srawi   r8,r8,1
    7664:	94 01 08 7d 	addze   r8,r8
    7668:	14 2a bb 7c 	add     r5,r27,r5
    766c:	b4 07 08 7d 	extsw   r8,r8
    7670:	04 00 a5 38 	addi    r5,r5,4
    7674:	02 00 05 e8 	lwa     r0,0(r5)
    7678:	64 17 08 79 	rldicr  r8,r8,2,61
    767c:	78 1b 67 7c 	mr      r7,r3
    7680:	78 f3 dd 7f 	mr      r29,r30
    7684:	aa 42 db 7c 	lwax    r6,r27,r8
    7688:	78 9b 69 7e 	mr      r9,r19
    768c:	b4 07 f4 7c 	extsw   r20,r7
    7690:	00 00 86 7f 	cmpw    cr7,r6,r0
    7694:	28 00 9d 40 	ble     cr7,76bc <Quicksort+0x30c>
    7698:	00 00 00 60 	nop
    769c:	00 00 42 60 	ori     r2,r2,0
    76a0:	01 00 e7 38 	addi    r7,r7,1
    76a4:	20 00 e7 78 	clrldi  r7,r7,32
    76a8:	06 00 05 e8 	lwa     r0,4(r5)
    76ac:	04 00 a5 38 	addi    r5,r5,4
    76b0:	b4 07 f4 7c 	extsw   r20,r7
    76b4:	00 00 86 7f 	cmpw    cr7,r6,r0
    76b8:	e8 ff 9d 41 	bgt     cr7,76a0 <Quicksort+0x2f0>
    76bc:	00 50 86 7f 	cmpw    cr7,r6,r10
    76c0:	a0 00 9c 40 	bge     cr7,7760 <Quicksort+0x3b0>
    76c4:	14 4a 3b 7d 	add     r9,r27,r9
    76c8:	18 00 00 48 	b       76e0 <Quicksort+0x330>
    76cc:	00 00 00 60 	nop
    76d0:	00 00 00 60 	nop
    76d4:	00 00 00 60 	nop
    76d8:	00 00 00 60 	nop
    76dc:	00 00 42 60 	ori     r2,r2,0
    76e0:	fe ff 49 e9 	lwa     r10,-4(r9)
    76e4:	fc ff 29 39 	addi    r9,r9,-4
    76e8:	ff ff bd 3b 	addi    r29,r29,-1
    76ec:	b4 07 bd 7f 	extsw   r29,r29
    76f0:	78 4b 28 7d 	mr      r8,r9
    76f4:	00 50 86 7f 	cmpw    cr7,r6,r10
    76f8:	e8 ff 9c 41 	blt     cr7,76e0 <Quicksort+0x330>
    76fc:	00 e8 94 7f 	cmpw    cr7,r20,r29
    7700:	30 00 9d 40 	ble     cr7,7730 <Quicksort+0x380>
    7704:	00 20 9d 7f 	cmpw    cr7,r29,r4
    7708:	74 00 9d 41 	bgt     cr7,777c <Quicksort+0x3cc>
    770c:	00 a0 9e 7f 	cmpw    cr7,r30,r20
    7710:	78 a3 84 7e 	mr      r4,r20
    7714:	54 00 9d 40 	ble     cr7,7768 <Quicksort+0x3b8>
    7718:	64 17 8b 7a 	rldicr  r11,r20,2,61
    771c:	20 00 83 7a 	clrldi  r3,r20,32
    7720:	34 ff ff 4b 	b       7654 <Quicksort+0x2a4>
    7724:	00 00 00 60 	nop
    7728:	00 00 00 60 	nop
    772c:	00 00 42 60 	ori     r2,r2,0
    7730:	01 00 e7 38 	addi    r7,r7,1
    7734:	ff ff bd 3b 	addi    r29,r29,-1
    7738:	00 00 45 91 	stw     r10,0(r5)
    773c:	00 00 08 90 	stw     r0,0(r8)
    7740:	00 38 9d 7f 	cmpw    cr7,r29,r7
    7744:	b4 07 f4 7c 	extsw   r20,r7
    7748:	b4 07 bd 7f 	extsw   r29,r29
    774c:	b8 ff 9c 41 	blt     cr7,7704 <Quicksort+0x354>
    7750:	64 17 a9 7b 	rldicr  r9,r29,2,61
    7754:	20 00 e7 78 	clrldi  r7,r7,32
    7758:	aa 4a 5b 7d 	lwax    r10,r27,r9
    775c:	4c ff ff 4b 	b       76a8 <Quicksort+0x2f8>
    7760:	14 4a 1b 7d 	add     r8,r27,r9
    7764:	98 ff ff 4b 	b       76fc <Quicksort+0x34c>
    7768:	80 00 41 ea 	ld      r18,128(r1)
    776c:	88 00 61 ea 	ld      r19,136(r1)
    7770:	90 00 81 ea 	ld      r20,144(r1)
    7774:	d8 00 a1 eb 	ld      r29,216(r1)
    7778:	54 fe ff 4b 	b       75cc <Quicksort+0x21c>
    777c:	68 00 e1 f9 	std     r15,104(r1)
    7780:	78 00 21 fa 	std     r17,120(r1)
    7784:	64 17 b1 7b 	rldicr  r17,r29,2,61
    7788:	70 00 01 fa 	std     r16,112(r1)
    778c:	14 8a 1b 7e 	add     r16,r27,r17
    7790:	02 00 50 e9 	lwa     r10,0(r16)
    7794:	14 22 1d 7d 	add     r8,r29,r4
    7798:	fc ff eb 38 	addi    r7,r11,-4
    779c:	70 0e 08 7d 	srawi   r8,r8,1
    77a0:	94 01 08 7d 	addze   r8,r8
    77a4:	14 3a fb 7c 	add     r7,r27,r7
    77a8:	b4 07 08 7d 	extsw   r8,r8
    77ac:	04 00 e7 38 	addi    r7,r7,4
    77b0:	02 00 67 e9 	lwa     r11,0(r7)
    77b4:	64 17 08 79 	rldicr  r8,r8,2,61
    77b8:	78 eb a5 7f 	mr      r5,r29
    77bc:	78 8b 29 7e 	mr      r9,r17
    77c0:	aa 42 1b 7d 	lwax    r8,r27,r8
    77c4:	b4 07 6f 7c 	extsw   r15,r3
    77c8:	00 58 88 7f 	cmpw    cr7,r8,r11
    77cc:	20 00 9d 40 	ble     cr7,77ec <Quicksort+0x43c>
    77d0:	01 00 63 38 	addi    r3,r3,1
    77d4:	20 00 63 78 	clrldi  r3,r3,32
    77d8:	06 00 67 e9 	lwa     r11,4(r7)
    77dc:	04 00 e7 38 	addi    r7,r7,4
    77e0:	b4 07 6f 7c 	extsw   r15,r3
    77e4:	00 58 88 7f 	cmpw    cr7,r8,r11
    77e8:	e8 ff 9d 41 	bgt     cr7,77d0 <Quicksort+0x420>
    77ec:	00 50 88 7f 	cmpw    cr7,r8,r10
    77f0:	90 00 9c 40 	bge     cr7,7880 <Quicksort+0x4d0>
    77f4:	14 4a 3b 7d 	add     r9,r27,r9
    77f8:	00 00 00 60 	nop
    77fc:	00 00 42 60 	ori     r2,r2,0
    7800:	fe ff 49 e9 	lwa     r10,-4(r9)
    7804:	fc ff 29 39 	addi    r9,r9,-4
    7808:	ff ff a5 38 	addi    r5,r5,-1
    780c:	b4 07 a5 7c 	extsw   r5,r5
    7810:	78 4b 26 7d 	mr      r6,r9
    7814:	00 50 88 7f 	cmpw    cr7,r8,r10
    7818:	e8 ff 9c 41 	blt     cr7,7800 <Quicksort+0x450>
    781c:	00 28 8f 7f 	cmpw    cr7,r15,r5
    7820:	30 00 9d 40 	ble     cr7,7850 <Quicksort+0x4a0>
    7824:	00 20 85 7f 	cmpw    cr7,r5,r4
    7828:	70 00 9d 41 	bgt     cr7,7898 <Quicksort+0x4e8>
    782c:	00 78 9d 7f 	cmpw    cr7,r29,r15
    7830:	78 7b e4 7d 	mr      r4,r15
    7834:	54 00 9d 40 	ble     cr7,7888 <Quicksort+0x4d8>
    7838:	64 17 eb 79 	rldicr  r11,r15,2,61
    783c:	20 00 e3 79 	clrldi  r3,r15,32
    7840:	50 ff ff 4b 	b       7790 <Quicksort+0x3e0>
    7844:	00 00 00 60 	nop
    7848:	00 00 00 60 	nop
    784c:	00 00 42 60 	ori     r2,r2,0
    7850:	01 00 63 38 	addi    r3,r3,1
    7854:	ff ff a5 38 	addi    r5,r5,-1
    7858:	00 00 47 91 	stw     r10,0(r7)
    785c:	00 00 66 91 	stw     r11,0(r6)
    7860:	00 18 85 7f 	cmpw    cr7,r5,r3
    7864:	b4 07 6f 7c 	extsw   r15,r3
    7868:	b4 07 a5 7c 	extsw   r5,r5
    786c:	b8 ff 9c 41 	blt     cr7,7824 <Quicksort+0x474>
    7870:	64 17 a9 78 	rldicr  r9,r5,2,61
    7874:	20 00 63 78 	clrldi  r3,r3,32
    7878:	aa 4a 5b 7d 	lwax    r10,r27,r9
    787c:	5c ff ff 4b 	b       77d8 <Quicksort+0x428>
    7880:	14 4a db 7c 	add     r6,r27,r9
    7884:	98 ff ff 4b 	b       781c <Quicksort+0x46c>
    7888:	68 00 e1 e9 	ld      r15,104(r1)
    788c:	70 00 01 ea 	ld      r16,112(r1)
    7890:	78 00 21 ea 	ld      r17,120(r1)
    7894:	78 fe ff 4b 	b       770c <Quicksort+0x35c>
    7898:	a6 02 08 7c 	mflr    r0
    789c:	78 db 63 7f 	mr      r3,r27
    78a0:	00 01 01 f8 	std     r0,256(r1)
    78a4:	15 fb ff 4b 	bl      73b8 <Quicksort+0x8>
    78a8:	00 01 01 e8 	ld      r0,256(r1)
    78ac:	a6 03 08 7c 	mtlr    r0
    78b0:	7c ff ff 4b 	b       782c <Quicksort+0x47c>
    78b4:	00 00 00 00 	.long 0x0
    78b8:	00 00 00 01 	.long 0x1000000
    78bc:	80 11 00 00 	.long 0x1180

00000000000078c0 <Quick>:
    78c0:	02 00 4c 3c 	addis   r2,r12,2
    78c4:	40 06 42 38 	addi    r2,r2,1600
    78c8:	a6 02 08 7c 	mflr    r0
    78cc:	70 ff c1 f9 	std     r14,-144(r1)
    78d0:	43 00 02 3d 	addis   r8,r2,67
    78d4:	f4 68 08 39 	addi    r8,r8,26868
    78d8:	43 00 c2 3d 	addis   r14,r2,67
    78dc:	40 5c ce 39 	addi    r14,r14,23616
    78e0:	00 00 40 39 	li      r10,0
    78e4:	80 ff 01 fa 	std     r16,-128(r1)
    78e8:	d8 ff 61 fb 	std     r27,-40(r1)
    78ec:	01 00 20 3d 	lis     r9,1
    78f0:	00 00 80 38 	li      r4,0
    78f4:	78 ff e1 f9 	std     r15,-136(r1)
    78f8:	88 ff 21 fa 	std     r17,-120(r1)
    78fc:	00 00 c0 38 	li      r6,0
    7900:	00 00 a0 38 	li      r5,0
    7904:	90 ff 41 fa 	std     r18,-112(r1)
    7908:	98 ff 61 fa 	std     r19,-104(r1)
    790c:	00 00 e0 38 	li      r7,0
    7910:	03 24 29 61 	ori     r9,r9,9219
    7914:	a0 ff 81 fa 	std     r20,-96(r1)
    7918:	a8 ff a1 fa 	std     r21,-88(r1)
    791c:	10 00 01 f8 	std     r0,16(r1)
    7920:	b0 ff c1 fa 	std     r22,-80(r1)
    7924:	b8 ff e1 fa 	std     r23,-72(r1)
    7928:	c0 ff 01 fb 	std     r24,-64(r1)
    792c:	c8 ff 21 fb 	std     r25,-56(r1)
    7930:	d0 ff 41 fb 	std     r26,-48(r1)
    7934:	e0 ff 81 fb 	std     r28,-32(r1)
    7938:	e8 ff a1 fb 	std     r29,-24(r1)
    793c:	f0 ff c1 fb 	std     r30,-16(r1)
    7940:	f8 ff e1 fb 	std     r31,-8(r1)
    7944:	c1 fe 21 f8 	stdu    r1,-320(r1)
    7948:	00 00 48 91 	stw     r10,0(r8)
    794c:	00 00 4e 91 	stw     r10,0(r14)
    7950:	04 00 40 3d 	lis     r10,4
    7954:	27 00 62 3f 	addis   r27,r2,39
    7958:	28 3c 7b 3b 	addi    r27,r27,15400
    795c:	27 00 62 3c 	addis   r3,r2,39
    7960:	ec 3b 63 38 	addi    r3,r3,15340
    7964:	e0 93 4a 61 	ori     r10,r10,37856
    7968:	a6 03 49 7d 	mtctr   r10
    796c:	12 00 1b 3e 	addis   r16,r27,18
    7970:	60 00 01 f9 	std     r8,96(r1)
    7974:	78 db 68 7f 	mr      r8,r27
    7978:	00 00 00 60 	nop
    797c:	00 00 42 60 	ori     r2,r2,0
    7980:	1d 05 29 1d 	mulli   r9,r9,1309
    7984:	19 36 29 39 	addi    r9,r9,13849
    7988:	3e 04 29 55 	clrlwi  r9,r9,16
    798c:	ff ff 49 3d 	addis   r10,r9,-1
    7990:	b4 07 29 7d 	extsw   r9,r9
    7994:	b0 3c 4a 39 	addi    r10,r10,15536
    7998:	00 38 8a 7f 	cmpw    cr7,r10,r7
    799c:	00 30 8a 7e 	cmpw    cr5,r10,r6
    79a0:	04 00 48 95 	stwu    r10,4(r8)
    79a4:	b4 07 4a 7d 	extsw   r10,r10
    79a8:	a8 01 9d 41 	bgt     cr7,7b50 <Quick+0x290>
    79ac:	0c 00 94 40 	bge     cr5,79b8 <Quick+0xf8>
    79b0:	78 53 46 7d 	mr      r6,r10
    79b4:	01 00 80 38 	li      r4,1
    79b8:	c8 ff 00 42 	bdnz    7980 <Quick+0xc0>
    79bc:	00 00 a5 2f 	cmpdi   cr7,r5,0
    79c0:	00 00 23 91 	stw     r9,0(r3)
    79c4:	0c 00 9e 41 	beq     cr7,79d0 <Quick+0x110>
    79c8:	60 00 21 e9 	ld      r9,96(r1)
    79cc:	00 00 e9 90 	stw     r7,0(r9)
    79d0:	00 00 a4 2f 	cmpdi   cr7,r4,0
    79d4:	08 00 9e 41 	beq     cr7,79dc <Quick+0x11c>
    79d8:	00 00 ce 90 	stw     r6,0(r14)
    79dc:	04 00 20 3d 	lis     r9,4
    79e0:	04 00 20 3e 	lis     r17,4
    79e4:	12 00 e0 3d 	lis     r15,18
    79e8:	01 00 80 39 	li      r12,1
    79ec:	df 93 32 61 	ori     r18,r9,37855
    79f0:	e0 93 31 62 	ori     r17,r17,37856
    79f4:	80 4f ef 61 	ori     r15,r15,20352
    79f8:	82 4f 10 e9 	lwa     r8,20352(r16)
    79fc:	05 00 2c 3d 	addis   r9,r12,5
    7a00:	64 17 94 79 	rldicr  r20,r12,2,61
    7a04:	e0 93 29 39 	addi    r9,r9,-27680
    7a08:	fc ff b4 38 	addi    r5,r20,-4
    7a0c:	70 0e 29 7d 	srawi   r9,r9,1
    7a10:	14 2a bb 7c 	add     r5,r27,r5
    7a14:	64 17 29 79 	rldicr  r9,r9,2,61
    7a18:	04 00 a5 38 	addi    r5,r5,4
    7a1c:	20 00 80 79 	clrldi  r0,r12,32
    7a20:	aa 4a db 7c 	lwax    r6,r27,r9
    7a24:	78 03 07 7c 	mr      r7,r0
    7a28:	78 8b 3f 7e 	mr      r31,r17
    7a2c:	02 00 85 e8 	lwa     r4,0(r5)
    7a30:	78 7b e9 7d 	mr      r9,r15
    7a34:	b4 07 fc 7c 	extsw   r28,r7
    7a38:	00 20 86 7f 	cmpw    cr7,r6,r4
    7a3c:	20 00 9d 40 	ble     cr7,7a5c <Quick+0x19c>
    7a40:	01 00 e7 38 	addi    r7,r7,1
    7a44:	20 00 e7 78 	clrldi  r7,r7,32
    7a48:	06 00 85 e8 	lwa     r4,4(r5)
    7a4c:	04 00 a5 38 	addi    r5,r5,4
    7a50:	b4 07 fc 7c 	extsw   r28,r7
    7a54:	00 20 86 7f 	cmpw    cr7,r6,r4
    7a58:	e8 ff 9d 41 	bgt     cr7,7a40 <Quick+0x180>
    7a5c:	00 40 86 7f 	cmpw    cr7,r6,r8
    7a60:	30 01 9c 40 	bge     cr7,7b90 <Quick+0x2d0>
    7a64:	14 4a 3b 7d 	add     r9,r27,r9
    7a68:	18 00 00 48 	b       7a80 <Quick+0x1c0>
    7a6c:	00 00 00 60 	nop
    7a70:	00 00 00 60 	nop
    7a74:	00 00 00 60 	nop
    7a78:	00 00 00 60 	nop
    7a7c:	00 00 42 60 	ori     r2,r2,0
    7a80:	fe ff 09 e9 	lwa     r8,-4(r9)
    7a84:	fc ff 29 39 	addi    r9,r9,-4
    7a88:	ff ff ff 3b 	addi    r31,r31,-1
    7a8c:	b4 07 ff 7f 	extsw   r31,r31
    7a90:	78 4b 2a 7d 	mr      r10,r9
    7a94:	00 40 86 7f 	cmpw    cr7,r6,r8
    7a98:	e8 ff 9c 41 	blt     cr7,7a80 <Quick+0x1c0>
    7a9c:	00 f8 9c 7f 	cmpw    cr7,r28,r31
    7aa0:	c0 00 9d 40 	ble     cr7,7b60 <Quick+0x2a0>
    7aa4:	00 f8 8c 7f 	cmpw    cr7,r12,r31
    7aa8:	f0 00 9c 41 	blt     cr7,7b98 <Quick+0x2d8>
    7aac:	00 90 9c 7f 	cmpw    cr7,r28,r18
    7ab0:	78 e3 8c 7f 	mr      r12,r28
    7ab4:	44 ff 9d 40 	ble     cr7,79f8 <Quick+0x138>
    7ab8:	04 00 3b 81 	lwz     r9,4(r27)
    7abc:	00 00 4e 81 	lwz     r10,0(r14)
    7ac0:	00 50 89 7f 	cmpw    cr7,r9,r10
    7ac4:	18 00 9e 40 	bne     cr7,7adc <Quick+0x21c>
    7ac8:	60 00 41 e9 	ld      r10,96(r1)
    7acc:	80 4f 30 81 	lwz     r9,20352(r16)
    7ad0:	00 00 4a 81 	lwz     r10,0(r10)
    7ad4:	00 50 89 7f 	cmpw    cr7,r9,r10
    7ad8:	14 00 9e 41 	beq     cr7,7aec <Quick+0x22c>
    7adc:	fe ff 62 3c 	addis   r3,r2,-2
    7ae0:	f8 20 63 38 	addi    r3,r3,8440
    7ae4:	3d 90 ff 4b 	bl      b20 <00000048.plt_call.puts@@GLIBC_2.17>
    7ae8:	18 00 41 e8 	ld      r2,24(r1)
    7aec:	40 01 21 38 	addi    r1,r1,320
    7af0:	10 00 01 e8 	ld      r0,16(r1)
    7af4:	70 ff c1 e9 	ld      r14,-144(r1)
    7af8:	78 ff e1 e9 	ld      r15,-136(r1)
    7afc:	80 ff 01 ea 	ld      r16,-128(r1)
    7b00:	88 ff 21 ea 	ld      r17,-120(r1)
    7b04:	90 ff 41 ea 	ld      r18,-112(r1)
    7b08:	98 ff 61 ea 	ld      r19,-104(r1)
    7b0c:	a0 ff 81 ea 	ld      r20,-96(r1)
    7b10:	a8 ff a1 ea 	ld      r21,-88(r1)
    7b14:	b0 ff c1 ea 	ld      r22,-80(r1)
    7b18:	b8 ff e1 ea 	ld      r23,-72(r1)
    7b1c:	c0 ff 01 eb 	ld      r24,-64(r1)
    7b20:	a6 03 08 7c 	mtlr    r0
    7b24:	c8 ff 21 eb 	ld      r25,-56(r1)
    7b28:	d0 ff 41 eb 	ld      r26,-48(r1)
    7b2c:	d8 ff 61 eb 	ld      r27,-40(r1)
    7b30:	e0 ff 81 eb 	ld      r28,-32(r1)
    7b34:	e8 ff a1 eb 	ld      r29,-24(r1)
    7b38:	f0 ff c1 eb 	ld      r30,-16(r1)
    7b3c:	f8 ff e1 eb 	ld      r31,-8(r1)
    7b40:	20 00 80 4e 	blr
    7b44:	00 00 00 60 	nop
    7b48:	00 00 00 60 	nop
    7b4c:	00 00 42 60 	ori     r2,r2,0
    7b50:	78 53 47 7d 	mr      r7,r10
    7b54:	01 00 a0 38 	li      r5,1
    7b58:	28 fe 00 42 	bdnz    7980 <Quick+0xc0>
    7b5c:	60 fe ff 4b 	b       79bc <Quick+0xfc>
    7b60:	01 00 e7 38 	addi    r7,r7,1
    7b64:	ff ff ff 3b 	addi    r31,r31,-1
    7b68:	00 00 05 91 	stw     r8,0(r5)
    7b6c:	00 00 8a 90 	stw     r4,0(r10)
    7b70:	00 38 9f 7f 	cmpw    cr7,r31,r7
    7b74:	b4 07 fc 7c 	extsw   r28,r7
    7b78:	b4 07 ff 7f 	extsw   r31,r31
    7b7c:	28 ff 9c 41 	blt     cr7,7aa4 <Quick+0x1e4>
    7b80:	64 17 e9 7b 	rldicr  r9,r31,2,61
    7b84:	20 00 e7 78 	clrldi  r7,r7,32
    7b88:	aa 4a 1b 7d 	lwax    r8,r27,r9
    7b8c:	bc fe ff 4b 	b       7a48 <Quick+0x188>
    7b90:	14 4a 5b 7d 	add     r10,r27,r9
    7b94:	08 ff ff 4b 	b       7a9c <Quick+0x1dc>
    7b98:	68 00 81 fb 	std     r28,104(r1)
    7b9c:	64 17 e9 7b 	rldicr  r9,r31,2,61
    7ba0:	78 a3 88 7e 	mr      r8,r20
    7ba4:	14 4a 7b 7e 	add     r19,r27,r9
    7ba8:	78 63 8b 7d 	mr      r11,r12
    7bac:	78 9b 74 7e 	mr      r20,r19
    7bb0:	78 fb ec 7f 	mr      r12,r31
    7bb4:	78 4b 33 7d 	mr      r19,r9
    7bb8:	02 00 f4 e8 	lwa     r7,0(r20)
    7bbc:	14 62 4b 7d 	add     r10,r11,r12
    7bc0:	fc ff 88 38 	addi    r4,r8,-4
    7bc4:	14 22 9b 7c 	add     r4,r27,r4
    7bc8:	70 0e 4a 7d 	srawi   r10,r10,1
    7bcc:	04 00 84 38 	addi    r4,r4,4
    7bd0:	02 00 64 e8 	lwa     r3,0(r4)
    7bd4:	64 17 4a 79 	rldicr  r10,r10,2,61
    7bd8:	78 03 06 7c 	mr      r6,r0
    7bdc:	78 63 9f 7d 	mr      r31,r12
    7be0:	aa 52 bb 7c 	lwax    r5,r27,r10
    7be4:	78 9b 69 7e 	mr      r9,r19
    7be8:	b4 07 dc 7c 	extsw   r28,r6
    7bec:	00 18 85 7f 	cmpw    cr7,r5,r3
    7bf0:	2c 00 9d 40 	ble     cr7,7c1c <Quick+0x35c>
    7bf4:	00 00 00 60 	nop
    7bf8:	00 00 00 60 	nop
    7bfc:	00 00 42 60 	ori     r2,r2,0
    7c00:	01 00 c6 38 	addi    r6,r6,1
    7c04:	20 00 c6 78 	clrldi  r6,r6,32
    7c08:	06 00 64 e8 	lwa     r3,4(r4)
    7c0c:	04 00 84 38 	addi    r4,r4,4
    7c10:	b4 07 dc 7c 	extsw   r28,r6
    7c14:	00 18 85 7f 	cmpw    cr7,r5,r3
    7c18:	e8 ff 9d 41 	bgt     cr7,7c00 <Quick+0x340>
    7c1c:	00 38 85 7f 	cmpw    cr7,r5,r7
    7c20:	a0 00 9c 40 	bge     cr7,7cc0 <Quick+0x400>
    7c24:	14 4a 3b 7d 	add     r9,r27,r9
    7c28:	18 00 00 48 	b       7c40 <Quick+0x380>
    7c2c:	00 00 00 60 	nop
    7c30:	00 00 00 60 	nop
    7c34:	00 00 00 60 	nop
    7c38:	00 00 00 60 	nop
    7c3c:	00 00 42 60 	ori     r2,r2,0
    7c40:	fe ff e9 e8 	lwa     r7,-4(r9)
    7c44:	fc ff 29 39 	addi    r9,r9,-4
    7c48:	ff ff ff 3b 	addi    r31,r31,-1
    7c4c:	b4 07 ff 7f 	extsw   r31,r31
    7c50:	78 4b 2a 7d 	mr      r10,r9
    7c54:	00 38 85 7f 	cmpw    cr7,r5,r7
    7c58:	e8 ff 9c 41 	blt     cr7,7c40 <Quick+0x380>
    7c5c:	00 f8 9c 7f 	cmpw    cr7,r28,r31
    7c60:	30 00 9d 40 	ble     cr7,7c90 <Quick+0x3d0>
    7c64:	00 f8 8b 7f 	cmpw    cr7,r11,r31
    7c68:	68 00 9c 41 	blt     cr7,7cd0 <Quick+0x410>
    7c6c:	00 e0 8c 7f 	cmpw    cr7,r12,r28
    7c70:	78 e3 8b 7f 	mr      r11,r28
    7c74:	54 00 9d 40 	ble     cr7,7cc8 <Quick+0x408>
    7c78:	64 17 88 7b 	rldicr  r8,r28,2,61
    7c7c:	20 00 80 7b 	clrldi  r0,r28,32
    7c80:	38 ff ff 4b 	b       7bb8 <Quick+0x2f8>
    7c84:	00 00 00 60 	nop
    7c88:	00 00 00 60 	nop
    7c8c:	00 00 42 60 	ori     r2,r2,0
    7c90:	01 00 c6 38 	addi    r6,r6,1
    7c94:	ff ff ff 3b 	addi    r31,r31,-1
    7c98:	00 00 e4 90 	stw     r7,0(r4)
    7c9c:	00 00 6a 90 	stw     r3,0(r10)
    7ca0:	00 30 9f 7f 	cmpw    cr7,r31,r6
    7ca4:	b4 07 dc 7c 	extsw   r28,r6
    7ca8:	b4 07 ff 7f 	extsw   r31,r31
    7cac:	b8 ff 9c 41 	blt     cr7,7c64 <Quick+0x3a4>
    7cb0:	64 17 e9 7b 	rldicr  r9,r31,2,61
    7cb4:	20 00 c6 78 	clrldi  r6,r6,32
    7cb8:	aa 4a fb 7c 	lwax    r7,r27,r9
    7cbc:	4c ff ff 4b 	b       7c08 <Quick+0x348>
    7cc0:	14 4a 5b 7d 	add     r10,r27,r9
    7cc4:	98 ff ff 4b 	b       7c5c <Quick+0x39c>
    7cc8:	68 00 81 eb 	ld      r28,104(r1)
    7ccc:	e0 fd ff 4b 	b       7aac <Quick+0x1ec>
    7cd0:	80 00 81 f9 	std     r12,128(r1)
    7cd4:	88 00 81 fb 	std     r28,136(r1)
    7cd8:	64 17 e9 7b 	rldicr  r9,r31,2,61
    7cdc:	78 5b 64 7d 	mr      r4,r11
    7ce0:	90 00 81 fa 	std     r20,144(r1)
    7ce4:	98 00 61 fa 	std     r19,152(r1)
    7ce8:	14 4a db 7c 	add     r6,r27,r9
    7cec:	78 4b 2b 7d 	mr      r11,r9
    7cf0:	02 00 e6 e8 	lwa     r7,0(r6)
    7cf4:	14 fa 44 7d 	add     r10,r4,r31
    7cf8:	fc ff a8 3b 	addi    r29,r8,-4
    7cfc:	14 ea bb 7f 	add     r29,r27,r29
    7d00:	70 0e 4a 7d 	srawi   r10,r10,1
    7d04:	04 00 bd 3b 	addi    r29,r29,4
    7d08:	02 00 9d eb 	lwa     r28,0(r29)
    7d0c:	64 17 4a 79 	rldicr  r10,r10,2,61
    7d10:	78 03 05 7c 	mr      r5,r0
    7d14:	78 fb fe 7f 	mr      r30,r31
    7d18:	aa 52 7b 7c 	lwax    r3,r27,r10
    7d1c:	78 5b 69 7d 	mr      r9,r11
    7d20:	b4 07 ba 7c 	extsw   r26,r5
    7d24:	00 e0 83 7f 	cmpw    cr7,r3,r28
    7d28:	24 00 9d 40 	ble     cr7,7d4c <Quick+0x48c>
    7d2c:	00 00 42 60 	ori     r2,r2,0
    7d30:	01 00 a5 38 	addi    r5,r5,1
    7d34:	20 00 a5 78 	clrldi  r5,r5,32
    7d38:	06 00 9d eb 	lwa     r28,4(r29)
    7d3c:	04 00 bd 3b 	addi    r29,r29,4
    7d40:	b4 07 ba 7c 	extsw   r26,r5
    7d44:	00 e0 83 7f 	cmpw    cr7,r3,r28
    7d48:	e8 ff 9d 41 	bgt     cr7,7d30 <Quick+0x470>
    7d4c:	00 38 83 7f 	cmpw    cr7,r3,r7
    7d50:	90 00 9c 40 	bge     cr7,7de0 <Quick+0x520>
    7d54:	14 4a 3b 7d 	add     r9,r27,r9
    7d58:	00 00 00 60 	nop
    7d5c:	00 00 42 60 	ori     r2,r2,0
    7d60:	fe ff e9 e8 	lwa     r7,-4(r9)
    7d64:	fc ff 29 39 	addi    r9,r9,-4
    7d68:	ff ff de 3b 	addi    r30,r30,-1
    7d6c:	b4 07 de 7f 	extsw   r30,r30
    7d70:	78 4b 2a 7d 	mr      r10,r9
    7d74:	00 38 83 7f 	cmpw    cr7,r3,r7
    7d78:	e8 ff 9c 41 	blt     cr7,7d60 <Quick+0x4a0>
    7d7c:	00 d0 9e 7f 	cmpw    cr7,r30,r26
    7d80:	30 00 9c 40 	bge     cr7,7db0 <Quick+0x4f0>
    7d84:	00 f0 84 7f 	cmpw    cr7,r4,r30
    7d88:	74 00 9c 41 	blt     cr7,7dfc <Quick+0x53c>
    7d8c:	00 d0 9f 7f 	cmpw    cr7,r31,r26
    7d90:	78 d3 44 7f 	mr      r4,r26
    7d94:	54 00 9d 40 	ble     cr7,7de8 <Quick+0x528>
    7d98:	64 17 48 7b 	rldicr  r8,r26,2,61
    7d9c:	20 00 40 7b 	clrldi  r0,r26,32
    7da0:	50 ff ff 4b 	b       7cf0 <Quick+0x430>
    7da4:	00 00 00 60 	nop
    7da8:	00 00 00 60 	nop
    7dac:	00 00 42 60 	ori     r2,r2,0
    7db0:	01 00 a5 38 	addi    r5,r5,1
    7db4:	ff ff de 3b 	addi    r30,r30,-1
    7db8:	00 00 fd 90 	stw     r7,0(r29)
    7dbc:	00 00 8a 93 	stw     r28,0(r10)
    7dc0:	00 28 9e 7f 	cmpw    cr7,r30,r5
    7dc4:	b4 07 ba 7c 	extsw   r26,r5
    7dc8:	b4 07 de 7f 	extsw   r30,r30
    7dcc:	b8 ff 9c 41 	blt     cr7,7d84 <Quick+0x4c4>
    7dd0:	64 17 c9 7b 	rldicr  r9,r30,2,61
    7dd4:	20 00 a5 78 	clrldi  r5,r5,32
    7dd8:	aa 4a fb 7c 	lwax    r7,r27,r9
    7ddc:	5c ff ff 4b 	b       7d38 <Quick+0x478>
    7de0:	14 4a 5b 7d 	add     r10,r27,r9
    7de4:	98 ff ff 4b 	b       7d7c <Quick+0x4bc>
    7de8:	80 00 81 e9 	ld      r12,128(r1)
    7dec:	88 00 81 eb 	ld      r28,136(r1)
    7df0:	90 00 81 ea 	ld      r20,144(r1)
    7df4:	98 00 61 ea 	ld      r19,152(r1)
    7df8:	74 fe ff 4b 	b       7c6c <Quick+0x3ac>
    7dfc:	64 17 c9 7b 	rldicr  r9,r30,2,61
    7e00:	14 4a 7b 7e 	add     r19,r27,r9
    7e04:	78 4b 34 7d 	mr      r20,r9
    7e08:	02 00 b3 e8 	lwa     r5,0(r19)
    7e0c:	14 f2 44 7d 	add     r10,r4,r30
    7e10:	fc ff 88 3b 	addi    r28,r8,-4
    7e14:	14 e2 9b 7f 	add     r28,r27,r28
    7e18:	70 0e 4a 7d 	srawi   r10,r10,1
    7e1c:	04 00 9c 3b 	addi    r28,r28,4
    7e20:	02 00 1c eb 	lwa     r24,0(r28)
    7e24:	64 17 4a 79 	rldicr  r10,r10,2,61
    7e28:	78 03 07 7c 	mr      r7,r0
    7e2c:	78 f3 dd 7f 	mr      r29,r30
    7e30:	aa 52 7b 7c 	lwax    r3,r27,r10
    7e34:	78 a3 89 7e 	mr      r9,r20
    7e38:	b4 07 f9 7c 	extsw   r25,r7
    7e3c:	00 c0 83 7f 	cmpw    cr7,r3,r24
    7e40:	2c 00 9d 40 	ble     cr7,7e6c <Quick+0x5ac>
    7e44:	00 00 00 60 	nop
    7e48:	00 00 00 60 	nop
    7e4c:	00 00 42 60 	ori     r2,r2,0
    7e50:	01 00 e7 38 	addi    r7,r7,1
    7e54:	20 00 e7 78 	clrldi  r7,r7,32
    7e58:	06 00 1c eb 	lwa     r24,4(r28)
    7e5c:	04 00 9c 3b 	addi    r28,r28,4
    7e60:	b4 07 f9 7c 	extsw   r25,r7
    7e64:	00 c0 83 7f 	cmpw    cr7,r3,r24
    7e68:	e8 ff 9d 41 	bgt     cr7,7e50 <Quick+0x590>
    7e6c:	00 28 83 7f 	cmpw    cr7,r3,r5
    7e70:	90 00 9c 40 	bge     cr7,7f00 <Quick+0x640>
    7e74:	14 4a 3b 7d 	add     r9,r27,r9
    7e78:	00 00 00 60 	nop
    7e7c:	00 00 42 60 	ori     r2,r2,0
    7e80:	fe ff a9 e8 	lwa     r5,-4(r9)
    7e84:	fc ff 29 39 	addi    r9,r9,-4
    7e88:	ff ff bd 3b 	addi    r29,r29,-1
    7e8c:	b4 07 bd 7f 	extsw   r29,r29
    7e90:	78 4b 2a 7d 	mr      r10,r9
    7e94:	00 28 83 7f 	cmpw    cr7,r3,r5
    7e98:	e8 ff 9c 41 	blt     cr7,7e80 <Quick+0x5c0>
    7e9c:	00 c8 9d 7f 	cmpw    cr7,r29,r25
    7ea0:	30 00 9c 40 	bge     cr7,7ed0 <Quick+0x610>
    7ea4:	00 e8 84 7f 	cmpw    cr7,r4,r29
    7ea8:	60 00 9c 41 	blt     cr7,7f08 <Quick+0x648>
    7eac:	00 c8 9e 7f 	cmpw    cr7,r30,r25
    7eb0:	78 cb 24 7f 	mr      r4,r25
    7eb4:	d8 fe 9d 40 	ble     cr7,7d8c <Quick+0x4cc>
    7eb8:	64 17 28 7b 	rldicr  r8,r25,2,61
    7ebc:	20 00 20 7b 	clrldi  r0,r25,32
    7ec0:	48 ff ff 4b 	b       7e08 <Quick+0x548>
    7ec4:	00 00 00 60 	nop
    7ec8:	00 00 00 60 	nop
    7ecc:	00 00 42 60 	ori     r2,r2,0
    7ed0:	01 00 e7 38 	addi    r7,r7,1
    7ed4:	ff ff bd 3b 	addi    r29,r29,-1
    7ed8:	00 00 bc 90 	stw     r5,0(r28)
    7edc:	00 00 0a 93 	stw     r24,0(r10)
    7ee0:	00 38 9d 7f 	cmpw    cr7,r29,r7
    7ee4:	b4 07 f9 7c 	extsw   r25,r7
    7ee8:	b4 07 bd 7f 	extsw   r29,r29
    7eec:	b8 ff 9c 41 	blt     cr7,7ea4 <Quick+0x5e4>
    7ef0:	64 17 a9 7b 	rldicr  r9,r29,2,61
    7ef4:	20 00 e7 78 	clrldi  r7,r7,32
    7ef8:	aa 4a bb 7c 	lwax    r5,r27,r9
    7efc:	5c ff ff 4b 	b       7e58 <Quick+0x598>
    7f00:	14 4a 5b 7d 	add     r10,r27,r9
    7f04:	98 ff ff 4b 	b       7e9c <Quick+0x5dc>
    7f08:	64 17 a9 7b 	rldicr  r9,r29,2,61
    7f0c:	78 33 d7 7c 	mr      r23,r6
    7f10:	14 4a 5b 7d 	add     r10,r27,r9
    7f14:	78 5b 76 7d 	mr      r22,r11
    7f18:	78 00 21 f9 	std     r9,120(r1)
    7f1c:	78 53 49 7d 	mr      r9,r10
    7f20:	70 00 41 f9 	std     r10,112(r1)
    7f24:	02 00 e9 e8 	lwa     r7,0(r9)
    7f28:	14 ea 44 7d 	add     r10,r4,r29
    7f2c:	fc ff 68 38 	addi    r3,r8,-4
    7f30:	78 00 21 e9 	ld      r9,120(r1)
    7f34:	14 1a 7b 7c 	add     r3,r27,r3
    7f38:	70 0e 4a 7d 	srawi   r10,r10,1
    7f3c:	04 00 63 38 	addi    r3,r3,4
    7f40:	02 00 63 e9 	lwa     r11,0(r3)
    7f44:	64 17 4a 79 	rldicr  r10,r10,2,61
    7f48:	78 03 06 7c 	mr      r6,r0
    7f4c:	78 eb bc 7f 	mr      r28,r29
    7f50:	aa 52 bb 7c 	lwax    r5,r27,r10
    7f54:	b4 07 d8 7c 	extsw   r24,r6
    7f58:	00 58 85 7f 	cmpw    cr7,r5,r11
    7f5c:	20 00 9d 40 	ble     cr7,7f7c <Quick+0x6bc>
    7f60:	01 00 c6 38 	addi    r6,r6,1
    7f64:	20 00 c6 78 	clrldi  r6,r6,32
    7f68:	06 00 63 e9 	lwa     r11,4(r3)
    7f6c:	04 00 63 38 	addi    r3,r3,4
    7f70:	b4 07 d8 7c 	extsw   r24,r6
    7f74:	00 58 85 7f 	cmpw    cr7,r5,r11
    7f78:	e8 ff 9d 41 	bgt     cr7,7f60 <Quick+0x6a0>
    7f7c:	00 38 85 7f 	cmpw    cr7,r5,r7
    7f80:	98 00 9c 40 	bge     cr7,8018 <Quick+0x758>
    7f84:	14 4a 3b 7d 	add     r9,r27,r9
    7f88:	18 00 00 48 	b       7fa0 <Quick+0x6e0>
    7f8c:	00 00 00 60 	nop
    7f90:	00 00 00 60 	nop
    7f94:	00 00 00 60 	nop
    7f98:	00 00 00 60 	nop
    7f9c:	00 00 42 60 	ori     r2,r2,0
    7fa0:	fe ff e9 e8 	lwa     r7,-4(r9)
    7fa4:	fc ff 29 39 	addi    r9,r9,-4
    7fa8:	ff ff 9c 3b 	addi    r28,r28,-1
    7fac:	b4 07 9c 7f 	extsw   r28,r28
    7fb0:	78 4b 2a 7d 	mr      r10,r9
    7fb4:	00 38 85 7f 	cmpw    cr7,r5,r7
    7fb8:	e8 ff 9c 41 	blt     cr7,7fa0 <Quick+0x6e0>
    7fbc:	00 e0 98 7f 	cmpw    cr7,r24,r28
    7fc0:	28 00 9d 40 	ble     cr7,7fe8 <Quick+0x728>
    7fc4:	00 20 9c 7f 	cmpw    cr7,r28,r4
    7fc8:	64 00 9d 41 	bgt     cr7,802c <Quick+0x76c>
    7fcc:	00 e8 98 7f 	cmpw    cr7,r24,r29
    7fd0:	78 c3 04 7f 	mr      r4,r24
    7fd4:	4c 00 9c 40 	bge     cr7,8020 <Quick+0x760>
    7fd8:	64 17 08 7b 	rldicr  r8,r24,2,61
    7fdc:	20 00 00 7b 	clrldi  r0,r24,32
    7fe0:	70 00 21 e9 	ld      r9,112(r1)
    7fe4:	40 ff ff 4b 	b       7f24 <Quick+0x664>
    7fe8:	01 00 c6 38 	addi    r6,r6,1
    7fec:	ff ff 9c 3b 	addi    r28,r28,-1
    7ff0:	00 00 e3 90 	stw     r7,0(r3)
    7ff4:	00 00 6a 91 	stw     r11,0(r10)
    7ff8:	00 30 9c 7f 	cmpw    cr7,r28,r6
    7ffc:	b4 07 d8 7c 	extsw   r24,r6
    8000:	b4 07 9c 7f 	extsw   r28,r28
    8004:	c0 ff 9c 41 	blt     cr7,7fc4 <Quick+0x704>
    8008:	64 17 89 7b 	rldicr  r9,r28,2,61
    800c:	20 00 c6 78 	clrldi  r6,r6,32
    8010:	aa 4a fb 7c 	lwax    r7,r27,r9
    8014:	54 ff ff 4b 	b       7f68 <Quick+0x6a8>
    8018:	14 4a 5b 7d 	add     r10,r27,r9
    801c:	a0 ff ff 4b 	b       7fbc <Quick+0x6fc>
    8020:	78 bb e6 7e 	mr      r6,r23
    8024:	78 b3 cb 7e 	mr      r11,r22
    8028:	84 fe ff 4b 	b       7eac <Quick+0x5ec>
    802c:	64 17 87 7b 	rldicr  r7,r28,2,61
    8030:	78 b3 cb 7e 	mr      r11,r22
    8034:	14 3a bb 7e 	add     r21,r27,r7
    8038:	78 bb f6 7e 	mr      r22,r23
    803c:	78 cb 37 7f 	mr      r23,r25
    8040:	78 f3 d9 7f 	mr      r25,r30
    8044:	78 fb fe 7f 	mr      r30,r31
    8048:	fc ff 08 39 	addi    r8,r8,-4
    804c:	14 22 5c 7d 	add     r10,r28,r4
    8050:	14 42 9b 7d 	add     r12,r27,r8
    8054:	70 0e 4a 7d 	srawi   r10,r10,1
    8058:	02 00 15 e9 	lwa     r8,0(r21)
    805c:	64 17 4a 79 	rldicr  r10,r10,2,61
    8060:	04 00 8c 39 	addi    r12,r12,4
    8064:	78 03 06 7c 	mr      r6,r0
    8068:	aa 52 7b 7c 	lwax    r3,r27,r10
    806c:	78 e3 85 7f 	mr      r5,r28
    8070:	78 3b e9 7c 	mr      r9,r7
    8074:	02 00 0c e8 	lwa     r0,0(r12)
    8078:	b4 07 df 7c 	extsw   r31,r6
    807c:	00 00 83 7f 	cmpw    cr7,r3,r0
    8080:	20 00 9d 40 	ble     cr7,80a0 <Quick+0x7e0>
    8084:	01 00 c6 38 	addi    r6,r6,1
    8088:	20 00 c6 78 	clrldi  r6,r6,32
    808c:	06 00 0c e8 	lwa     r0,4(r12)
    8090:	04 00 8c 39 	addi    r12,r12,4
    8094:	b4 07 df 7c 	extsw   r31,r6
    8098:	00 00 83 7f 	cmpw    cr7,r3,r0
    809c:	e8 ff 9d 41 	bgt     cr7,8084 <Quick+0x7c4>
    80a0:	00 40 83 7f 	cmpw    cr7,r3,r8
    80a4:	90 00 9c 40 	bge     cr7,8134 <Quick+0x874>
    80a8:	14 4a 3b 7d 	add     r9,r27,r9
    80ac:	14 00 00 48 	b       80c0 <Quick+0x800>
    80b0:	00 00 00 60 	nop
    80b4:	00 00 00 60 	nop
    80b8:	00 00 00 60 	nop
    80bc:	00 00 42 60 	ori     r2,r2,0
    80c0:	fe ff 09 e9 	lwa     r8,-4(r9)
    80c4:	fc ff 29 39 	addi    r9,r9,-4
    80c8:	ff ff a5 38 	addi    r5,r5,-1
    80cc:	b4 07 a5 7c 	extsw   r5,r5
    80d0:	78 4b 2a 7d 	mr      r10,r9
    80d4:	00 40 83 7f 	cmpw    cr7,r3,r8
    80d8:	e8 ff 9c 41 	blt     cr7,80c0 <Quick+0x800>
    80dc:	00 28 9f 7f 	cmpw    cr7,r31,r5
    80e0:	24 00 9d 40 	ble     cr7,8104 <Quick+0x844>
    80e4:	00 20 85 7f 	cmpw    cr7,r5,r4
    80e8:	6c 00 9d 41 	bgt     cr7,8154 <Quick+0x894>
    80ec:	00 f8 9c 7f 	cmpw    cr7,r28,r31
    80f0:	78 fb e4 7f 	mr      r4,r31
    80f4:	48 00 9d 40 	ble     cr7,813c <Quick+0x87c>
    80f8:	64 17 e8 7b 	rldicr  r8,r31,2,61
    80fc:	20 00 e0 7b 	clrldi  r0,r31,32
    8100:	48 ff ff 4b 	b       8048 <Quick+0x788>
    8104:	01 00 c6 38 	addi    r6,r6,1
    8108:	ff ff a5 38 	addi    r5,r5,-1
    810c:	00 00 0c 91 	stw     r8,0(r12)
    8110:	00 00 0a 90 	stw     r0,0(r10)
    8114:	00 28 86 7f 	cmpw    cr7,r6,r5
    8118:	b4 07 df 7c 	extsw   r31,r6
    811c:	b4 07 a5 7c 	extsw   r5,r5
    8120:	c4 ff 9d 41 	bgt     cr7,80e4 <Quick+0x824>
    8124:	64 17 a9 78 	rldicr  r9,r5,2,61
    8128:	20 00 c6 78 	clrldi  r6,r6,32
    812c:	aa 4a 1b 7d 	lwax    r8,r27,r9
    8130:	5c ff ff 4b 	b       808c <Quick+0x7cc>
    8134:	14 4a 5b 7d 	add     r10,r27,r9
    8138:	a4 ff ff 4b 	b       80dc <Quick+0x81c>
    813c:	78 f3 df 7f 	mr      r31,r30
    8140:	78 cb 3e 7f 	mr      r30,r25
    8144:	78 bb f9 7e 	mr      r25,r23
    8148:	78 b3 d7 7e 	mr      r23,r22
    814c:	78 5b 76 7d 	mr      r22,r11
    8150:	7c fe ff 4b 	b       7fcc <Quick+0x70c>
    8154:	78 db 63 7f 	mr      r3,r27
    8158:	a8 00 61 f9 	std     r11,168(r1)
    815c:	a0 00 e1 f8 	std     r7,160(r1)
    8160:	59 f2 ff 4b 	bl      73b8 <Quicksort+0x8>
    8164:	a8 00 61 e9 	ld      r11,168(r1)
    8168:	a0 00 e1 e8 	ld      r7,160(r1)
    816c:	80 ff ff 4b 	b       80ec <Quick+0x82c>
    8170:	00 00 00 00 	.long 0x0
    8174:	00 00 00 01 	.long 0x1000000
    8178:	80 12 00 00 	.long 0x1280
    817c:	00 00 42 60 	ori     r2,r2,0

0000000000008180 <tInitarr>:
    8180:	02 00 4c 3c 	addis   r2,r12,2
    8184:	80 fd 42 38 	addi    r2,r2,-640
    8188:	43 00 62 3d 	addis   r11,r2,67
    818c:	f4 68 6b 39 	addi    r11,r11,26868
    8190:	43 00 62 3c 	addis   r3,r2,67
    8194:	40 5c 63 38 	addi    r3,r3,23616
    8198:	00 00 40 39 	li      r10,0
    819c:	27 00 82 3d 	addis   r12,r2,39
    81a0:	ec 3b 8c 39 	addi    r12,r12,15340
    81a4:	27 00 02 3d 	addis   r8,r2,39
    81a8:	28 3c 08 39 	addi    r8,r8,15400
    81ac:	01 00 20 3d 	lis     r9,1
    81b0:	00 00 80 38 	li      r4,0
    81b4:	00 00 c0 38 	li      r6,0
    81b8:	00 00 a0 38 	li      r5,0
    81bc:	00 00 e0 38 	li      r7,0
    81c0:	00 00 4b 91 	stw     r10,0(r11)
    81c4:	00 00 43 91 	stw     r10,0(r3)
    81c8:	04 00 40 3d 	lis     r10,4
    81cc:	03 24 29 61 	ori     r9,r9,9219
    81d0:	e0 93 4a 61 	ori     r10,r10,37856
    81d4:	a6 03 49 7d 	mtctr   r10
    81d8:	00 00 00 60 	nop
    81dc:	00 00 42 60 	ori     r2,r2,0
    81e0:	1d 05 29 1d 	mulli   r9,r9,1309
    81e4:	19 36 29 39 	addi    r9,r9,13849
    81e8:	3e 04 29 55 	clrlwi  r9,r9,16
    81ec:	ff ff 49 3d 	addis   r10,r9,-1
    81f0:	b4 07 29 7d 	extsw   r9,r9
    81f4:	b0 3c 4a 39 	addi    r10,r10,15536
    81f8:	00 50 87 7f 	cmpw    cr7,r7,r10
    81fc:	00 50 86 7e 	cmpw    cr5,r6,r10
    8200:	04 00 48 95 	stwu    r10,4(r8)
    8204:	b4 07 4a 7d 	extsw   r10,r10
    8208:	38 00 9c 41 	blt     cr7,8240 <tInitarr+0xc0>
    820c:	0c 00 95 40 	ble     cr5,8218 <tInitarr+0x98>
    8210:	78 53 46 7d 	mr      r6,r10
    8214:	01 00 80 38 	li      r4,1
    8218:	c8 ff 00 42 	bdnz    81e0 <tInitarr+0x60>
    821c:	00 00 a5 2f 	cmpdi   cr7,r5,0
    8220:	00 00 2c 91 	stw     r9,0(r12)
    8224:	08 00 9e 41 	beq     cr7,822c <tInitarr+0xac>
    8228:	00 00 eb 90 	stw     r7,0(r11)
    822c:	00 00 a4 2f 	cmpdi   cr7,r4,0
    8230:	20 00 9e 4d 	beqlr   cr7
    8234:	00 00 c3 90 	stw     r6,0(r3)
    8238:	20 00 80 4e 	blr
    823c:	00 00 42 60 	ori     r2,r2,0
    8240:	78 53 47 7d 	mr      r7,r10
    8244:	01 00 a0 38 	li      r5,1
    8248:	98 ff 00 42 	bdnz    81e0 <tInitarr+0x60>
    824c:	d0 ff ff 4b 	b       821c <tInitarr+0x9c>
	...
    825c:	00 00 42 60 	ori     r2,r2,0

0000000000008260 <CreateNode>:
    8260:	02 00 4c 3c 	addis   r2,r12,2
    8264:	a0 fc 42 38 	addi    r2,r2,-864
    8268:	a6 02 08 7c 	mflr    r0
    826c:	f0 ff c1 fb 	std     r30,-16(r1)
    8270:	f8 ff e1 fb 	std     r31,-8(r1)
    8274:	78 1b 7e 7c 	mr      r30,r3
    8278:	18 00 60 38 	li      r3,24
    827c:	78 23 9f 7c 	mr      r31,r4
    8280:	10 00 01 f8 	std     r0,16(r1)
    8284:	d1 ff 21 f8 	stdu    r1,-48(r1)
    8288:	59 89 ff 4b 	bl      be0 <00000048.plt_call.malloc@@GLIBC_2.17>
    828c:	18 00 41 e8 	ld      r2,24(r1)
    8290:	30 00 21 38 	addi    r1,r1,48
    8294:	8c 03 00 10 	vspltisw v0,0
    8298:	10 00 01 e8 	ld      r0,16(r1)
    829c:	00 00 7e f8 	std     r3,0(r30)
    82a0:	f0 ff c1 eb 	ld      r30,-16(r1)
    82a4:	56 02 00 f0 	xxswapd vs0,vs32
    82a8:	10 00 e3 93 	stw     r31,16(r3)
    82ac:	f8 ff e1 eb 	ld      r31,-8(r1)
    82b0:	98 1f 00 7c 	stxvd2x vs0,0,r3
    82b4:	a6 03 08 7c 	mtlr    r0
    82b8:	20 00 80 4e 	blr
    82bc:	00 00 00 00 	.long 0x0
    82c0:	00 00 00 01 	.long 0x1000000
    82c4:	80 02 00 00 	.long 0x280
    82c8:	00 00 00 60 	nop
    82cc:	00 00 42 60 	ori     r2,r2,0

00000000000082d0 <Insert>:
    82d0:	02 00 4c 3c 	addis   r2,r12,2
    82d4:	30 fc 42 38 	addi    r2,r2,-976
    82d8:	f8 ff e1 fb 	std     r31,-8(r1)
    82dc:	78 23 9f 7c 	mr      r31,r4
    82e0:	f0 ff c1 fb 	std     r30,-16(r1)
    82e4:	78 1b 7e 7c 	mr      r30,r3
    82e8:	d1 ff 21 f8 	stdu    r1,-48(r1)
    82ec:	12 00 3f e9 	lwa     r9,16(r31)
    82f0:	00 f0 89 7f 	cmpw    cr7,r9,r30
    82f4:	28 00 9c 40 	bge     cr7,831c <Insert+0x4c>
    82f8:	00 00 00 60 	nop
    82fc:	00 00 42 60 	ori     r2,r2,0
    8300:	00 00 3f e9 	ld      r9,0(r31)
    8304:	00 00 a9 2f 	cmpdi   cr7,r9,0
    8308:	68 00 9e 41 	beq     cr7,8370 <Insert+0xa0>
    830c:	78 4b 3f 7d 	mr      r31,r9
    8310:	12 00 3f e9 	lwa     r9,16(r31)
    8314:	00 f0 89 7f 	cmpw    cr7,r9,r30
    8318:	e8 ff 9c 41 	blt     cr7,8300 <Insert+0x30>
    831c:	40 00 9d 40 	ble     cr7,835c <Insert+0x8c>
    8320:	08 00 3f e9 	ld      r9,8(r31)
    8324:	00 00 a9 2f 	cmpdi   cr7,r9,0
    8328:	e4 ff 9e 40 	bne     cr7,830c <Insert+0x3c>
    832c:	a6 02 08 7c 	mflr    r0
    8330:	18 00 60 38 	li      r3,24
    8334:	40 00 01 f8 	std     r0,64(r1)
    8338:	a9 88 ff 4b 	bl      be0 <00000048.plt_call.malloc@@GLIBC_2.17>
    833c:	18 00 41 e8 	ld      r2,24(r1)
    8340:	8c 03 00 10 	vspltisw v0,0
    8344:	40 00 01 e8 	ld      r0,64(r1)
    8348:	56 02 00 f0 	xxswapd vs0,vs32
    834c:	08 00 7f f8 	std     r3,8(r31)
    8350:	10 00 c3 93 	stw     r30,16(r3)
    8354:	a6 03 08 7c 	mtlr    r0
    8358:	98 1f 00 7c 	stxvd2x vs0,0,r3
    835c:	30 00 21 38 	addi    r1,r1,48
    8360:	f0 ff c1 eb 	ld      r30,-16(r1)
    8364:	f8 ff e1 eb 	ld      r31,-8(r1)
    8368:	20 00 80 4e 	blr
    836c:	00 00 42 60 	ori     r2,r2,0
    8370:	a6 02 08 7c 	mflr    r0
    8374:	18 00 60 38 	li      r3,24
    8378:	40 00 01 f8 	std     r0,64(r1)
    837c:	65 88 ff 4b 	bl      be0 <00000048.plt_call.malloc@@GLIBC_2.17>
    8380:	18 00 41 e8 	ld      r2,24(r1)
    8384:	40 00 01 e8 	ld      r0,64(r1)
    8388:	30 00 21 38 	addi    r1,r1,48
    838c:	8c 03 00 10 	vspltisw v0,0
    8390:	00 00 7f f8 	std     r3,0(r31)
    8394:	10 00 c3 93 	stw     r30,16(r3)
    8398:	56 02 00 f0 	xxswapd vs0,vs32
    839c:	a6 03 08 7c 	mtlr    r0
    83a0:	f0 ff c1 eb 	ld      r30,-16(r1)
    83a4:	f8 ff e1 eb 	ld      r31,-8(r1)
    83a8:	98 1f 00 7c 	stxvd2x vs0,0,r3
    83ac:	20 00 80 4e 	blr
    83b0:	00 00 00 00 	.long 0x0
    83b4:	00 00 00 01 	.long 0x1000000
    83b8:	80 02 00 00 	.long 0x280
    83bc:	00 00 42 60 	ori     r2,r2,0

00000000000083c0 <Checktree>:
    83c0:	02 00 4c 3c 	addis   r2,r12,2
    83c4:	40 fb 42 38 	addi    r2,r2,-1216
    83c8:	00 00 23 e9 	ld      r9,0(r3)
    83cc:	f0 ff c1 fb 	std     r30,-16(r1)
    83d0:	78 1b 7e 7c 	mr      r30,r3
    83d4:	f8 ff e1 fb 	std     r31,-8(r1)
    83d8:	91 ff 21 f8 	stdu    r1,-112(r1)
    83dc:	00 00 a9 2f 	cmpdi   cr7,r9,0
    83e0:	80 00 9e 41 	beq     cr7,8460 <Checktree+0xa0>
    83e4:	12 00 e9 eb 	lwa     r31,16(r9)
    83e8:	12 00 23 e9 	lwa     r9,16(r3)
    83ec:	50 48 ff 7f 	subf    r31,r31,r9
    83f0:	e0 0f ff 7b 	rldicl  r31,r31,1,63
    83f4:	b4 07 ff 7f 	extsw   r31,r31
    83f8:	08 00 3e e9 	ld      r9,8(r30)
    83fc:	00 00 a9 2f 	cmpdi   cr7,r9,0
    8400:	30 00 9e 41 	beq     cr7,8430 <Checktree+0x70>
    8404:	10 00 29 81 	lwz     r9,16(r9)
    8408:	10 00 5e 81 	lwz     r10,16(r30)
    840c:	00 50 89 7f 	cmpw    cr7,r9,r10
    8410:	08 00 9c 41 	blt     cr7,8418 <Checktree+0x58>
    8414:	00 00 e0 3b 	li      r31,0
    8418:	70 00 21 38 	addi    r1,r1,112
    841c:	78 fb e3 7f 	mr      r3,r31
    8420:	f0 ff c1 eb 	ld      r30,-16(r1)
    8424:	f8 ff e1 eb 	ld      r31,-8(r1)
    8428:	20 00 80 4e 	blr
    842c:	00 00 42 60 	ori     r2,r2,0
    8430:	a6 02 08 7c 	mflr    r0
    8434:	00 00 60 38 	li      r3,0
    8438:	80 00 01 f8 	std     r0,128(r1)
    843c:	8d ff ff 4b 	bl      83c8 <Checktree+0x8>
    8440:	80 00 01 e8 	ld      r0,128(r1)
    8444:	00 00 63 20 	subfic  r3,r3,0
    8448:	a6 03 08 7c 	mtlr    r0
    844c:	10 49 29 7d 	subfe   r9,r9,r9
    8450:	38 48 ff 7f 	and     r31,r31,r9
    8454:	c4 ff ff 4b 	b       8418 <Checktree+0x58>
    8458:	00 00 00 60 	nop
    845c:	00 00 42 60 	ori     r2,r2,0
    8460:	a6 02 08 7c 	mflr    r0
    8464:	00 00 60 38 	li      r3,0
    8468:	80 00 01 f8 	std     r0,128(r1)
    846c:	5d ff ff 4b 	bl      83c8 <Checktree+0x8>
    8470:	80 00 01 e8 	ld      r0,128(r1)
    8474:	34 00 7f 7c 	cntlzw  r31,r3
    8478:	a6 03 08 7c 	mtlr    r0
    847c:	7e d9 ff 57 	rlwinm  r31,r31,27,5,31
    8480:	01 00 ff 6b 	xori    r31,r31,1
    8484:	74 ff ff 4b 	b       83f8 <Checktree+0x38>
    8488:	00 00 00 00 	.long 0x0
    848c:	00 00 00 01 	.long 0x1000000
    8490:	80 02 00 00 	.long 0x280
    8494:	00 00 00 60 	nop
    8498:	00 00 00 60 	nop
    849c:	00 00 42 60 	ori     r2,r2,0

00000000000084a0 <Trees>:
    84a0:	02 00 4c 3c 	addis   r2,r12,2
    84a4:	60 fa 42 38 	addi    r2,r2,-1440
    84a8:	a6 02 08 7c 	mflr    r0
    84ac:	e0 ff 81 fb 	std     r28,-32(r1)
    84b0:	f0 ff c1 fb 	std     r30,-16(r1)
    84b4:	00 00 40 39 	li      r10,0
    84b8:	f8 ff e1 fb 	std     r31,-8(r1)
    84bc:	d0 ff 41 fb 	std     r26,-48(r1)
    84c0:	01 00 20 3d 	lis     r9,1
    84c4:	00 00 80 38 	li      r4,0
    84c8:	d8 ff 61 fb 	std     r27,-40(r1)
    84cc:	e8 ff a1 fb 	std     r29,-24(r1)
    84d0:	00 00 c0 38 	li      r6,0
    84d4:	00 00 a0 38 	li      r5,0
    84d8:	43 00 62 3d 	addis   r11,r2,67
    84dc:	f4 68 6b 39 	addi    r11,r11,26868
    84e0:	43 00 62 3c 	addis   r3,r2,67
    84e4:	40 5c 63 38 	addi    r3,r3,23616
    84e8:	27 00 e2 3f 	addis   r31,r2,39
    84ec:	28 3c ff 3b 	addi    r31,r31,15400
    84f0:	27 00 c2 3f 	addis   r30,r2,39
    84f4:	ec 3b de 3b 	addi    r30,r30,15340
    84f8:	00 00 e0 38 	li      r7,0
    84fc:	03 24 29 61 	ori     r9,r9,9219
    8500:	10 00 01 f8 	std     r0,16(r1)
    8504:	a1 ff 21 f8 	stdu    r1,-96(r1)
    8508:	20 00 00 38 	li      r0,32
    850c:	78 fb fc 7f 	mr      r28,r31
    8510:	ce 01 e1 7f 	stvx    v31,r1,r0
    8514:	00 00 4b 91 	stw     r10,0(r11)
    8518:	00 00 43 91 	stw     r10,0(r3)
    851c:	04 00 40 3d 	lis     r10,4
    8520:	e0 93 4a 61 	ori     r10,r10,37856
    8524:	a6 03 49 7d 	mtctr   r10
    8528:	00 00 00 60 	nop
    852c:	00 00 42 60 	ori     r2,r2,0
    8530:	1d 05 29 1d 	mulli   r9,r9,1309
    8534:	19 36 29 39 	addi    r9,r9,13849
    8538:	3e 04 29 55 	clrlwi  r9,r9,16
    853c:	ff ff 49 3d 	addis   r10,r9,-1
    8540:	b4 07 29 7d 	extsw   r9,r9
    8544:	b0 3c 4a 39 	addi    r10,r10,15536
    8548:	00 50 87 7f 	cmpw    cr7,r7,r10
    854c:	b4 07 48 7d 	extsw   r8,r10
    8550:	04 00 5c 95 	stwu    r10,4(r28)
    8554:	dc 00 9c 41 	blt     cr7,8630 <Trees+0x190>
    8558:	00 50 86 7f 	cmpw    cr7,r6,r10
    855c:	0c 00 9d 40 	ble     cr7,8568 <Trees+0xc8>
    8560:	78 43 06 7d 	mr      r6,r8
    8564:	01 00 80 38 	li      r4,1
    8568:	c8 ff 00 42 	bdnz    8530 <Trees+0x90>
    856c:	00 00 a5 2f 	cmpdi   cr7,r5,0
    8570:	00 00 3e 91 	stw     r9,0(r30)
    8574:	08 00 9e 41 	beq     cr7,857c <Trees+0xdc>
    8578:	00 00 eb 90 	stw     r7,0(r11)
    857c:	00 00 a4 2f 	cmpdi   cr7,r4,0
    8580:	08 00 9e 41 	beq     cr7,8588 <Trees+0xe8>
    8584:	00 00 c3 90 	stw     r6,0(r3)
    8588:	18 00 60 38 	li      r3,24
    858c:	8c 03 e0 13 	vspltisw v31,0
    8590:	04 00 bf 3b 	addi    r29,r31,4
    8594:	4d 86 ff 4b 	bl      be0 <00000048.plt_call.malloc@@GLIBC_2.17>
    8598:	18 00 41 e8 	ld      r2,24(r1)
    859c:	06 00 3f e9 	lwa     r9,4(r31)
    85a0:	4d 00 42 3f 	addis   r26,r2,77
    85a4:	80 39 5a 3b 	addi    r26,r26,14720
    85a8:	56 fa 1f f0 	xxswapd vs0,vs63
    85ac:	98 1f 00 7c 	stxvd2x vs0,0,r3
    85b0:	78 1b 7b 7c 	mr      r27,r3
    85b4:	00 00 7a f8 	std     r3,0(r26)
    85b8:	10 00 23 91 	stw     r9,16(r3)
    85bc:	00 00 42 60 	ori     r2,r2,0
    85c0:	06 00 dd eb 	lwa     r30,4(r29)
    85c4:	04 00 bd 3b 	addi    r29,r29,4
    85c8:	78 db 7f 7f 	mr      r31,r27
    85cc:	18 00 00 48 	b       85e4 <Trees+0x144>
    85d0:	00 00 5f e9 	ld      r10,0(r31)
    85d4:	00 00 aa 2f 	cmpdi   cr7,r10,0
    85d8:	68 00 9e 41 	beq     cr7,8640 <Trees+0x1a0>
    85dc:	12 00 2a e9 	lwa     r9,16(r10)
    85e0:	78 53 5f 7d 	mr      r31,r10
    85e4:	00 48 9e 7f 	cmpw    cr7,r30,r9
    85e8:	e8 ff 9d 41 	bgt     cr7,85d0 <Trees+0x130>
    85ec:	2c 00 9c 40 	bge     cr7,8618 <Trees+0x178>
    85f0:	08 00 5f e9 	ld      r10,8(r31)
    85f4:	00 00 aa 2f 	cmpdi   cr7,r10,0
    85f8:	e4 ff 9e 40 	bne     cr7,85dc <Trees+0x13c>
    85fc:	18 00 60 38 	li      r3,24
    8600:	e1 85 ff 4b 	bl      be0 <00000048.plt_call.malloc@@GLIBC_2.17>
    8604:	18 00 41 e8 	ld      r2,24(r1)
    8608:	56 fa 1f f0 	xxswapd vs0,vs63
    860c:	08 00 7f f8 	std     r3,8(r31)
    8610:	10 00 c3 93 	stw     r30,16(r3)
    8614:	98 1f 00 7c 	stxvd2x vs0,0,r3
    8618:	40 e8 bc 7f 	cmpld   cr7,r28,r29
    861c:	4c 00 9e 41 	beq     cr7,8668 <Trees+0x1c8>
    8620:	12 00 3b e9 	lwa     r9,16(r27)
    8624:	9c ff ff 4b 	b       85c0 <Trees+0x120>
    8628:	00 00 00 60 	nop
    862c:	00 00 42 60 	ori     r2,r2,0
    8630:	78 43 07 7d 	mr      r7,r8
    8634:	01 00 a0 38 	li      r5,1
    8638:	f8 fe 00 42 	bdnz    8530 <Trees+0x90>
    863c:	30 ff ff 4b 	b       856c <Trees+0xcc>
    8640:	18 00 60 38 	li      r3,24
    8644:	9d 85 ff 4b 	bl      be0 <00000048.plt_call.malloc@@GLIBC_2.17>
    8648:	18 00 41 e8 	ld      r2,24(r1)
    864c:	40 e8 bc 7f 	cmpld   cr7,r28,r29
    8650:	56 fa 1f f0 	xxswapd vs0,vs63
    8654:	00 00 7f f8 	std     r3,0(r31)
    8658:	10 00 c3 93 	stw     r30,16(r3)
    865c:	98 1f 00 7c 	stxvd2x vs0,0,r3
    8660:	00 00 7a eb 	ld      r27,0(r26)
    8664:	bc ff 9e 40 	bne     cr7,8620 <Trees+0x180>
    8668:	00 00 3b e9 	ld      r9,0(r27)
    866c:	00 00 a9 2f 	cmpdi   cr7,r9,0
    8670:	a8 00 9e 41 	beq     cr7,8718 <Trees+0x278>
    8674:	12 00 1b e9 	lwa     r8,16(r27)
    8678:	10 00 49 81 	lwz     r10,16(r9)
    867c:	08 00 3b e9 	ld      r9,8(r27)
    8680:	00 40 8a 7f 	cmpw    cr7,r10,r8
    8684:	4c 00 9d 41 	bgt     cr7,86d0 <Trees+0x230>
    8688:	00 00 a9 2f 	cmpdi   cr7,r9,0
    868c:	88 00 9e 41 	beq     cr7,8714 <Trees+0x274>
    8690:	fe ff 62 3c 	addis   r3,r2,-2
    8694:	10 21 63 38 	addi    r3,r3,8464
    8698:	89 84 ff 4b 	bl      b20 <00000048.plt_call.puts@@GLIBC_2.17>
    869c:	18 00 41 e8 	ld      r2,24(r1)
    86a0:	60 00 21 38 	addi    r1,r1,96
    86a4:	c0 ff 00 38 	li      r0,-64
    86a8:	ce 00 e1 7f 	lvx     v31,r1,r0
    86ac:	10 00 01 e8 	ld      r0,16(r1)
    86b0:	d0 ff 41 eb 	ld      r26,-48(r1)
    86b4:	d8 ff 61 eb 	ld      r27,-40(r1)
    86b8:	e0 ff 81 eb 	ld      r28,-32(r1)
    86bc:	e8 ff a1 eb 	ld      r29,-24(r1)
    86c0:	f0 ff c1 eb 	ld      r30,-16(r1)
    86c4:	f8 ff e1 eb 	ld      r31,-8(r1)
    86c8:	a6 03 08 7c 	mtlr    r0
    86cc:	20 00 80 4e 	blr
    86d0:	00 00 a9 2f 	cmpdi   cr7,r9,0
    86d4:	40 00 9e 41 	beq     cr7,8714 <Trees+0x274>
    86d8:	10 00 29 81 	lwz     r9,16(r9)
    86dc:	00 40 89 7f 	cmpw    cr7,r9,r8
    86e0:	b0 ff 9c 40 	bge     cr7,8690 <Trees+0x1f0>
    86e4:	60 00 21 38 	addi    r1,r1,96
    86e8:	c0 ff 00 38 	li      r0,-64
    86ec:	ce 00 e1 7f 	lvx     v31,r1,r0
    86f0:	10 00 01 e8 	ld      r0,16(r1)
    86f4:	d0 ff 41 eb 	ld      r26,-48(r1)
    86f8:	d8 ff 61 eb 	ld      r27,-40(r1)
    86fc:	e0 ff 81 eb 	ld      r28,-32(r1)
    8700:	e8 ff a1 eb 	ld      r29,-24(r1)
    8704:	f0 ff c1 eb 	ld      r30,-16(r1)
    8708:	f8 ff e1 eb 	ld      r31,-8(r1)
    870c:	a6 03 08 7c 	mtlr    r0
    8710:	20 00 80 4e 	blr
    8714:	00 00 20 39 	li      r9,0
    8718:	00 00 29 e9 	ld      r9,0(r9)
    871c:	08 00 e0 7f 	trap
    8720:	00 00 00 00 	.long 0x0
    8724:	00 00 00 01 	.long 0x1000000
    8728:	80 06 00 00 	.long 0x680
    872c:	00 00 42 60 	ori     r2,r2,0

0000000000008730 <bInitarr>:
    8730:	02 00 4c 3c 	addis   r2,r12,2
    8734:	d0 f7 42 38 	addi    r2,r2,-2096
    8738:	43 00 62 3d 	addis   r11,r2,67
    873c:	f4 68 6b 39 	addi    r11,r11,26868
    8740:	43 00 62 3c 	addis   r3,r2,67
    8744:	40 5c 63 38 	addi    r3,r3,23616
    8748:	00 00 40 39 	li      r10,0
    874c:	27 00 82 3d 	addis   r12,r2,39
    8750:	ec 3b 8c 39 	addi    r12,r12,15340
    8754:	27 00 02 3d 	addis   r8,r2,39
    8758:	28 3c 08 39 	addi    r8,r8,15400
    875c:	01 00 20 3d 	lis     r9,1
    8760:	00 00 80 38 	li      r4,0
    8764:	00 00 c0 38 	li      r6,0
    8768:	00 00 a0 38 	li      r5,0
    876c:	00 00 e0 38 	li      r7,0
    8770:	00 00 4b 91 	stw     r10,0(r11)
    8774:	00 00 43 91 	stw     r10,0(r3)
    8778:	10 27 40 39 	li      r10,10000
    877c:	03 24 29 61 	ori     r9,r9,9219
    8780:	a6 03 49 7d 	mtctr   r10
    8784:	00 00 00 60 	nop
    8788:	00 00 00 60 	nop
    878c:	00 00 42 60 	ori     r2,r2,0
    8790:	1d 05 29 1d 	mulli   r9,r9,1309
    8794:	19 36 29 39 	addi    r9,r9,13849
    8798:	3e 04 29 55 	clrlwi  r9,r9,16
    879c:	ff ff 49 3d 	addis   r10,r9,-1
    87a0:	b4 07 29 7d 	extsw   r9,r9
    87a4:	b0 3c 4a 39 	addi    r10,r10,15536
    87a8:	00 50 87 7f 	cmpw    cr7,r7,r10
    87ac:	00 50 86 7e 	cmpw    cr5,r6,r10
    87b0:	04 00 48 95 	stwu    r10,4(r8)
    87b4:	b4 07 4a 7d 	extsw   r10,r10
    87b8:	38 00 9c 41 	blt     cr7,87f0 <bInitarr+0xc0>
    87bc:	0c 00 95 40 	ble     cr5,87c8 <bInitarr+0x98>
    87c0:	78 53 46 7d 	mr      r6,r10
    87c4:	01 00 80 38 	li      r4,1
    87c8:	c8 ff 00 42 	bdnz    8790 <bInitarr+0x60>
    87cc:	00 00 a5 2f 	cmpdi   cr7,r5,0
    87d0:	00 00 2c 91 	stw     r9,0(r12)
    87d4:	08 00 9e 41 	beq     cr7,87dc <bInitarr+0xac>
    87d8:	00 00 eb 90 	stw     r7,0(r11)
    87dc:	00 00 a4 2f 	cmpdi   cr7,r4,0
    87e0:	20 00 9e 4d 	beqlr   cr7
    87e4:	00 00 c3 90 	stw     r6,0(r3)
    87e8:	20 00 80 4e 	blr
    87ec:	00 00 42 60 	ori     r2,r2,0
    87f0:	78 53 47 7d 	mr      r7,r10
    87f4:	01 00 a0 38 	li      r5,1
    87f8:	98 ff 00 42 	bdnz    8790 <bInitarr+0x60>
    87fc:	d0 ff ff 4b 	b       87cc <bInitarr+0x9c>
	...
    880c:	00 00 42 60 	ori     r2,r2,0

0000000000008810 <Bubble>:
    8810:	02 00 4c 3c 	addis   r2,r12,2
    8814:	f0 f6 42 38 	addi    r2,r2,-2320
    8818:	a6 02 08 7c 	mflr    r0
    881c:	43 00 82 3d 	addis   r12,r2,67
    8820:	f4 68 8c 39 	addi    r12,r12,26868
    8824:	43 00 62 3d 	addis   r11,r2,67
    8828:	40 5c 6b 39 	addi    r11,r11,23616
    882c:	00 00 40 39 	li      r10,0
    8830:	f0 ff c1 fb 	std     r30,-16(r1)
    8834:	f8 ff e1 fb 	std     r31,-8(r1)
    8838:	27 00 62 3c 	addis   r3,r2,39
    883c:	28 3c 63 38 	addi    r3,r3,15400
    8840:	27 00 c2 3f 	addis   r30,r2,39
    8844:	ec 3b de 3b 	addi    r30,r30,15340
    8848:	01 00 20 3d 	lis     r9,1
    884c:	00 00 80 38 	li      r4,0
    8850:	00 00 c0 38 	li      r6,0
    8854:	00 00 a0 38 	li      r5,0
    8858:	00 00 e0 38 	li      r7,0
    885c:	03 24 29 61 	ori     r9,r9,9219
    8860:	78 1b 68 7c 	mr      r8,r3
    8864:	01 00 e3 3f 	addis   r31,r3,1
    8868:	10 00 01 f8 	std     r0,16(r1)
    886c:	d1 ff 21 f8 	stdu    r1,-48(r1)
    8870:	00 00 4c 91 	stw     r10,0(r12)
    8874:	00 00 4b 91 	stw     r10,0(r11)
    8878:	10 27 40 39 	li      r10,10000
    887c:	a6 03 49 7d 	mtctr   r10
    8880:	1d 05 29 1d 	mulli   r9,r9,1309
    8884:	19 36 29 39 	addi    r9,r9,13849
    8888:	3e 04 29 55 	clrlwi  r9,r9,16
    888c:	ff ff 49 3d 	addis   r10,r9,-1
    8890:	b4 07 29 7d 	extsw   r9,r9
    8894:	b0 3c 4a 39 	addi    r10,r10,15536
    8898:	00 38 8a 7f 	cmpw    cr7,r10,r7
    889c:	00 30 8a 7e 	cmpw    cr5,r10,r6
    88a0:	04 00 48 95 	stwu    r10,4(r8)
    88a4:	b4 07 4a 7d 	extsw   r10,r10
    88a8:	f8 00 9d 41 	bgt     cr7,89a0 <Bubble+0x190>
    88ac:	0c 00 94 40 	bge     cr5,88b8 <Bubble+0xa8>
    88b0:	78 53 46 7d 	mr      r6,r10
    88b4:	01 00 80 38 	li      r4,1
    88b8:	c8 ff 00 42 	bdnz    8880 <Bubble+0x70>
    88bc:	00 00 a5 2f 	cmpdi   cr7,r5,0
    88c0:	00 00 3e 91 	stw     r9,0(r30)
    88c4:	08 00 9e 41 	beq     cr7,88cc <Bubble+0xbc>
    88c8:	00 00 ec 90 	stw     r7,0(r12)
    88cc:	00 00 a4 2f 	cmpdi   cr7,r4,0
    88d0:	08 00 9e 41 	beq     cr7,88d8 <Bubble+0xc8>
    88d4:	00 00 cb 90 	stw     r6,0(r11)
    88d8:	3a 00 a2 3c 	addis   r5,r2,58
    88dc:	ac 8b a5 38 	addi    r5,r5,-29780
    88e0:	10 27 20 39 	li      r9,10000
    88e4:	27 00 c2 3c 	addis   r6,r2,39
    88e8:	2c 3c c6 38 	addi    r6,r6,15404
    88ec:	10 27 e0 38 	li      r7,10000
    88f0:	00 00 25 91 	stw     r9,0(r5)
    88f4:	00 00 00 60 	nop
    88f8:	00 00 00 60 	nop
    88fc:	00 00 42 60 	ori     r2,r2,0
    8900:	02 00 87 2f 	cmpwi   cr7,r7,2
    8904:	fe ff 47 39 	addi    r10,r7,-2
    8908:	20 00 4a 79 	clrldi  r10,r10,32
    890c:	78 33 c9 7c 	mr      r9,r6
    8910:	01 00 4a 39 	addi    r10,r10,1
    8914:	a6 03 49 7d 	mtctr   r10
    8918:	98 00 9c 41 	blt     cr7,89b0 <Bubble+0x1a0>
    891c:	00 00 42 60 	ori     r2,r2,0
    8920:	02 00 49 e9 	lwa     r10,0(r9)
    8924:	04 00 29 39 	addi    r9,r9,4
    8928:	02 00 09 e9 	lwa     r8,0(r9)
    892c:	00 40 8a 7f 	cmpw    cr7,r10,r8
    8930:	0c 00 9d 40 	ble     cr7,893c <Bubble+0x12c>
    8934:	fc ff 09 91 	stw     r8,-4(r9)
    8938:	00 00 49 91 	stw     r10,0(r9)
    893c:	e4 ff 00 42 	bdnz    8920 <Bubble+0x110>
    8940:	ff ff 27 39 	addi    r9,r7,-1
    8944:	01 00 89 2f 	cmpwi   cr7,r9,1
    8948:	b4 07 27 7d 	extsw   r7,r9
    894c:	b4 ff 9e 40 	bne     cr7,8900 <Bubble+0xf0>
    8950:	04 00 43 81 	lwz     r10,4(r3)
    8954:	00 00 0b 81 	lwz     r8,0(r11)
    8958:	00 00 25 91 	stw     r9,0(r5)
    895c:	00 40 8a 7f 	cmpw    cr7,r10,r8
    8960:	14 00 9e 40 	bne     cr7,8974 <Bubble+0x164>
    8964:	40 9c 3f 81 	lwz     r9,-25536(r31)
    8968:	00 00 4c 81 	lwz     r10,0(r12)
    896c:	00 50 89 7f 	cmpw    cr7,r9,r10
    8970:	14 00 9e 41 	beq     cr7,8984 <Bubble+0x174>
    8974:	fe ff 62 3c 	addis   r3,r2,-2
    8978:	20 21 63 38 	addi    r3,r3,8480
    897c:	a5 81 ff 4b 	bl      b20 <00000048.plt_call.puts@@GLIBC_2.17>
    8980:	18 00 41 e8 	ld      r2,24(r1)
    8984:	30 00 21 38 	addi    r1,r1,48
    8988:	10 00 01 e8 	ld      r0,16(r1)
    898c:	f0 ff c1 eb 	ld      r30,-16(r1)
    8990:	f8 ff e1 eb 	ld      r31,-8(r1)
    8994:	a6 03 08 7c 	mtlr    r0
    8998:	20 00 80 4e 	blr
    899c:	00 00 42 60 	ori     r2,r2,0
    89a0:	78 53 47 7d 	mr      r7,r10
    89a4:	01 00 a0 38 	li      r5,1
    89a8:	d8 fe 00 42 	bdnz    8880 <Bubble+0x70>
    89ac:	10 ff ff 4b 	b       88bc <Bubble+0xac>
    89b0:	01 00 40 39 	li      r10,1
    89b4:	a6 03 49 7d 	mtctr   r10
    89b8:	68 ff ff 4b 	b       8920 <Bubble+0x110>
    89bc:	00 00 00 00 	.long 0x0
    89c0:	00 00 00 01 	.long 0x1000000
    89c4:	80 02 00 00 	.long 0x280
    89c8:	00 00 00 60 	nop
    89cc:	00 00 42 60 	ori     r2,r2,0

00000000000089d0 <Cos>:
    89d0:	02 00 4c 3c 	addis   r2,r12,2
    89d4:	30 f5 42 38 	addi    r2,r2,-2768
    89d8:	18 08 20 fc 	frsp    f1,f1
    89dc:	fe ff 22 3d 	addis   r9,r2,-2
    89e0:	88 1f c9 c0 	lfs     f6,8072(r9)
    89e4:	fe ff 22 3d 	addis   r9,r2,-2
    89e8:	8c 1f 09 c1 	lfs     f8,8076(r9)
    89ec:	fe ff 22 3d 	addis   r9,r2,-2
    89f0:	72 00 41 ed 	fmuls   f10,f1,f1
    89f4:	90 1f e9 c0 	lfs     f7,8080(r9)
    89f8:	fe ff 22 3d 	addis   r9,r2,-2
    89fc:	94 1f 29 c1 	lfs     f9,8084(r9)
    8a00:	fe ff 22 3d 	addis   r9,r2,-2
    8a04:	80 1f a9 c0 	lfs     f5,8064(r9)
    8a08:	fe ff 22 3d 	addis   r9,r2,-2
    8a0c:	b2 02 81 ed 	fmuls   f12,f1,f10
    8a10:	50 50 40 fd 	fneg    f10,f10
    8a14:	84 1f 69 c1 	lfs     f11,8068(r9)
    8a18:	32 03 01 ec 	fmuls   f0,f1,f12
    8a1c:	7a 59 4a ed 	fmadds  f10,f10,f5,f11
    8a20:	32 00 61 ed 	fmuls   f11,f1,f0
    8a24:	24 30 00 ec 	fdivs   f0,f0,f6
    8a28:	f2 02 61 ed 	fmuls   f11,f1,f11
    8a2c:	f2 02 81 ed 	fmuls   f12,f1,f11
    8a30:	24 40 6b ed 	fdivs   f11,f11,f8
    8a34:	32 03 81 ed 	fmuls   f12,f1,f12
    8a38:	32 03 01 ed 	fmuls   f8,f1,f12
    8a3c:	24 38 8c ed 	fdivs   f12,f12,f7
    8a40:	2a 50 00 ec 	fadds   f0,f0,f10
    8a44:	32 02 21 ec 	fmuls   f1,f1,f8
    8a48:	24 48 21 ec 	fdivs   f1,f1,f9
    8a4c:	28 58 00 ec 	fsubs   f0,f0,f11
    8a50:	2a 00 0c ec 	fadds   f0,f12,f0
    8a54:	28 08 20 ec 	fsubs   f1,f0,f1
    8a58:	20 00 80 4e 	blr
	...
    8a68:	00 00 00 60 	nop
    8a6c:	00 00 42 60 	ori     r2,r2,0

0000000000008a70 <Min0>:
    8a70:	00 20 83 7f 	cmpw    cr7,r3,r4
    8a74:	08 00 9d 40 	ble     cr7,8a7c <Min0+0xc>
    8a78:	78 23 83 7c 	mr      r3,r4
    8a7c:	b4 07 63 7c 	extsw   r3,r3
    8a80:	20 00 80 4e 	blr
	...

0000000000008a90 <Printcomplex>:
    8a90:	02 00 4c 3c 	addis   r2,r12,2
    8a94:	70 f4 42 38 	addi    r2,r2,-2960
    8a98:	a6 02 08 7c 	mflr    r0
    8a9c:	c8 ff 21 fb 	std     r25,-56(r1)
    8aa0:	d0 ff 41 fb 	std     r26,-48(r1)
    8aa4:	78 43 1a 7d 	mr      r26,r8
    8aa8:	d8 ff 61 fb 	std     r27,-40(r1)
    8aac:	e0 ff 81 fb 	std     r28,-32(r1)
    8ab0:	0a 00 60 38 	li      r3,10
    8ab4:	78 3b f9 7c 	mr      r25,r7
    8ab8:	e8 ff a1 fb 	std     r29,-24(r1)
    8abc:	f0 ff c1 fb 	std     r30,-16(r1)
    8ac0:	78 33 dd 7c 	mr      r29,r6
    8ac4:	78 2b be 7c 	mr      r30,r5
    8ac8:	f8 ff e1 fb 	std     r31,-8(r1)
    8acc:	14 ea fa 7f 	add     r31,r26,r29
    8ad0:	3c 08 5a 57 	rlwinm  r26,r26,1,0,30
    8ad4:	24 1f ff 7b 	rldicr  r31,r31,3,60
    8ad8:	b4 07 5a 7f 	extsw   r26,r26
    8adc:	10 00 01 f8 	std     r0,16(r1)
    8ae0:	61 ff 21 f8 	stdu    r1,-160(r1)
    8ae4:	fe ff 82 3f 	addis   r28,r2,-2
    8ae8:	14 fa fe 7f 	add     r31,r30,r31
    8aec:	24 1f 5b 7b 	rldicr  r27,r26,3,60
    8af0:	38 21 9c 3b 	addi    r28,r28,8504
    8af4:	0d 80 ff 4b 	bl      b00 <00000048.plt_call.putchar@@GLIBC_2.17>
    8af8:	18 00 41 e8 	ld      r2,24(r1)
    8afc:	24 1f a5 7b 	rldicr  r5,r29,3,60
    8b00:	14 2a de 7f 	add     r30,r30,r5
    8b04:	00 00 00 60 	nop
    8b08:	00 00 00 60 	nop
    8b0c:	00 00 42 60 	ori     r2,r2,0
    8b10:	04 00 9e c1 	lfs     f12,4(r30)
    8b14:	00 00 1e c0 	lfs     f0,0(r30)
    8b18:	78 e3 84 7f 	mr      r4,r28
    8b1c:	01 00 60 38 	li      r3,1
    8b20:	14 d2 bd 7f 	add     r29,r29,r26
    8b24:	14 da de 7f 	add     r30,r30,r27
    8b28:	90 60 40 fc 	fmr     f2,f12
    8b2c:	90 00 20 fc 	fmr     f1,f0
    8b30:	66 00 86 7d 	mfvsrd  r6,vs12
    8b34:	66 00 05 7c 	mfvsrd  r5,vs0
    8b38:	69 81 ff 4b 	bl      ca0 <00000048.plt_call.__printf_chk@@GLIBC_2.17>
    8b3c:	18 00 41 e8 	ld      r2,24(r1)
    8b40:	04 00 9f c1 	lfs     f12,4(r31)
    8b44:	00 00 1f c0 	lfs     f0,0(r31)
    8b48:	78 e3 84 7f 	mr      r4,r28
    8b4c:	01 00 60 38 	li      r3,1
    8b50:	14 da ff 7f 	add     r31,r31,r27
    8b54:	90 60 40 fc 	fmr     f2,f12
    8b58:	90 00 20 fc 	fmr     f1,f0
    8b5c:	66 00 86 7d 	mfvsrd  r6,vs12
    8b60:	66 00 05 7c 	mfvsrd  r5,vs0
    8b64:	3d 81 ff 4b 	bl      ca0 <00000048.plt_call.__printf_chk@@GLIBC_2.17>
    8b68:	18 00 41 e8 	ld      r2,24(r1)
    8b6c:	0a 00 60 38 	li      r3,10
    8b70:	91 7f ff 4b 	bl      b00 <00000048.plt_call.putchar@@GLIBC_2.17>
    8b74:	18 00 41 e8 	ld      r2,24(r1)
    8b78:	00 e8 99 7f 	cmpw    cr7,r25,r29
    8b7c:	94 ff 9c 40 	bge     cr7,8b10 <Printcomplex+0x80>
    8b80:	a0 00 21 38 	addi    r1,r1,160
    8b84:	10 00 01 e8 	ld      r0,16(r1)
    8b88:	c8 ff 21 eb 	ld      r25,-56(r1)
    8b8c:	d0 ff 41 eb 	ld      r26,-48(r1)
    8b90:	d8 ff 61 eb 	ld      r27,-40(r1)
    8b94:	e0 ff 81 eb 	ld      r28,-32(r1)
    8b98:	e8 ff a1 eb 	ld      r29,-24(r1)
    8b9c:	f0 ff c1 eb 	ld      r30,-16(r1)
    8ba0:	f8 ff e1 eb 	ld      r31,-8(r1)
    8ba4:	a6 03 08 7c 	mtlr    r0
    8ba8:	20 00 80 4e 	blr
    8bac:	00 00 00 00 	.long 0x0
    8bb0:	00 00 00 01 	.long 0x1000000
    8bb4:	80 07 00 00 	.long 0x780
    8bb8:	00 00 00 60 	nop
    8bbc:	00 00 42 60 	ori     r2,r2,0

0000000000008bc0 <Uniform11>:
    8bc0:	02 00 4c 3c 	addis   r2,r12,2
    8bc4:	40 f3 42 38 	addi    r2,r2,-3264
    8bc8:	fe ff 22 3d 	addis   r9,r2,-2
    8bcc:	a8 1f 89 c9 	lfd     f12,8104(r9)
    8bd0:	00 00 23 81 	lwz     r9,0(r3)
    8bd4:	f7 12 29 1d 	mulli   r9,r9,4855
    8bd8:	c3 06 29 39 	addi    r9,r9,1731
    8bdc:	fe 04 29 55 	clrlwi  r9,r9,19
    8be0:	a6 01 09 7c 	mtfprwa f0,r9
    8be4:	00 00 23 91 	stw     r9,0(r3)
    8be8:	9c 06 00 fc 	fcfid   f0,f0
    8bec:	32 03 00 fc 	fmul    f0,f0,f12
    8bf0:	18 00 00 fc 	frsp    f0,f0
    8bf4:	00 00 04 d0 	stfs    f0,0(r4)
    8bf8:	20 00 80 4e 	blr
	...
    8c08:	00 00 00 60 	nop
    8c0c:	00 00 42 60 	ori     r2,r2,0

0000000000008c10 <Exptab>:
    8c10:	02 00 4c 3c 	addis   r2,r12,2
    8c14:	f0 f2 42 38 	addi    r2,r2,-3344
    8c18:	f0 ff c1 fb 	std     r30,-16(r1)
    8c1c:	f8 ff e1 fb 	std     r31,-8(r1)
    8c20:	19 00 40 39 	li      r10,25
    8c24:	a6 03 49 7d 	mtctr   r10
    8c28:	61 ff 21 f8 	stdu    r1,-160(r1)
    8c2c:	f0 8f 2d e9 	ld      r9,-28688(r13)
    8c30:	88 00 21 f9 	std     r9,136(r1)
    8c34:	00 00 20 39 	li      r9,0
    8c38:	fe ff 22 3d 	addis   r9,r2,-2
    8c3c:	98 1f 09 c1 	lfs     f8,8088(r9)
    8c40:	fe ff 22 3d 	addis   r9,r2,-2
    8c44:	9c 1f 29 c0 	lfs     f1,8092(r9)
    8c48:	fe ff 22 3d 	addis   r9,r2,-2
    8c4c:	80 1f a9 c1 	lfs     f13,8064(r9)
    8c50:	fe ff 22 3d 	addis   r9,r2,-2
    8c54:	84 1f e9 c0 	lfs     f7,8068(r9)
    8c58:	fe ff 22 3d 	addis   r9,r2,-2
    8c5c:	88 1f 49 c0 	lfs     f2,8072(r9)
    8c60:	fe ff 22 3d 	addis   r9,r2,-2
    8c64:	8c 1f 69 c0 	lfs     f3,8076(r9)
    8c68:	fe ff 22 3d 	addis   r9,r2,-2
    8c6c:	90 1f 89 c0 	lfs     f4,8080(r9)
    8c70:	fe ff 22 3d 	addis   r9,r2,-2
    8c74:	94 1f a9 c0 	lfs     f5,8084(r9)
    8c78:	24 00 21 39 	addi    r9,r1,36
    8c7c:	00 00 42 60 	ori     r2,r2,0
    8c80:	24 40 61 ed 	fdivs   f11,f1,f8
    8c84:	04 00 29 39 	addi    r9,r9,4
    8c88:	2a 40 08 ed 	fadds   f8,f8,f8
    8c8c:	f2 02 0b ec 	fmuls   f0,f11,f11
    8c90:	32 00 8b ed 	fmuls   f12,f11,f0
    8c94:	50 00 00 fc 	fneg    f0,f0
    8c98:	32 03 8b ed 	fmuls   f12,f11,f12
    8c9c:	7a 3b 20 ed 	fmadds  f9,f0,f13,f7
    8ca0:	32 03 4b ed 	fmuls   f10,f11,f12
    8ca4:	24 10 0c ec 	fdivs   f0,f12,f2
    8ca8:	b2 02 4b ed 	fmuls   f10,f11,f10
    8cac:	b2 02 8b ed 	fmuls   f12,f11,f10
    8cb0:	24 18 4a ed 	fdivs   f10,f10,f3
    8cb4:	32 03 8b ed 	fmuls   f12,f11,f12
    8cb8:	32 03 cb ec 	fmuls   f6,f11,f12
    8cbc:	24 20 8c ed 	fdivs   f12,f12,f4
    8cc0:	2a 48 00 ec 	fadds   f0,f0,f9
    8cc4:	b2 01 6b ed 	fmuls   f11,f11,f6
    8cc8:	24 28 6b ed 	fdivs   f11,f11,f5
    8ccc:	28 50 00 ec 	fsubs   f0,f0,f10
    8cd0:	2a 00 0c ec 	fadds   f0,f12,f0
    8cd4:	28 58 00 ec 	fsubs   f0,f0,f11
    8cd8:	2a 00 00 ec 	fadds   f0,f0,f0
    8cdc:	24 00 07 ec 	fdivs   f0,f7,f0
    8ce0:	fc ff 09 d0 	stfs    f0,-4(r9)
    8ce4:	9c ff 00 42 	bdnz    8c80 <Exptab+0x70>
    8ce8:	70 16 69 7c 	srawi   r9,r3,2
    8cec:	94 01 29 7d 	addze   r9,r9
    8cf0:	70 0e 6b 7c 	srawi   r11,r3,1
    8cf4:	94 01 6b 7d 	addze   r11,r11
    8cf8:	b4 07 23 7d 	extsw   r3,r9
    8cfc:	b4 07 6b 7d 	extsw   r11,r11
    8d00:	01 00 43 39 	addi    r10,r3,1
    8d04:	01 00 2b 39 	addi    r9,r11,1
    8d08:	80 3f e0 3c 	lis     r7,16256
    8d0c:	80 bf 00 3d 	lis     r8,-16512
    8d10:	24 1f 4a 79 	rldicr  r10,r10,3,60
    8d14:	80 3f c0 3c 	lis     r6,16256
    8d18:	c6 07 e7 78 	rldicr  r7,r7,32,31
    8d1c:	24 1f 29 79 	rldicr  r9,r9,3,60
    8d20:	20 00 08 79 	clrldi  r8,r8,32
    8d24:	08 00 c4 f8 	std     r6,8(r4)
    8d28:	01 00 80 39 	li      r12,1
    8d2c:	2a 51 e4 7c 	stdx    r7,r4,r10
    8d30:	08 00 c4 3b 	addi    r30,r4,8
    8d34:	0c 00 e4 3b 	addi    r31,r4,12
    8d38:	2a 49 04 7d 	stdx    r8,r4,r9
    8d3c:	00 00 42 60 	ori     r2,r2,0
    8d40:	70 0e 64 7c 	srawi   r4,r3,1
    8d44:	94 01 84 7c 	addze   r4,r4
    8d48:	90 00 41 39 	addi    r10,r1,144
    8d4c:	64 17 89 79 	rldicr  r9,r12,2,61
    8d50:	14 4a 2a 7d 	add     r9,r10,r9
    8d54:	3c 08 87 54 	rlwinm  r7,r4,1,0,30
    8d58:	b4 07 80 7c 	extsw   r0,r4
    8d5c:	b4 07 e7 7c 	extsw   r7,r7
    8d60:	90 ff 89 c1 	lfs     f12,-112(r9)
    8d64:	24 1f 05 78 	rldicr  r5,r0,3,60
    8d68:	24 1f e7 78 	rldicr  r7,r7,3,60
    8d6c:	78 03 08 7c 	mr      r8,r0
    8d70:	24 1f 66 78 	rldicr  r6,r3,3,60
    8d74:	78 f3 ca 7f 	mr      r10,r30
    8d78:	78 fb e9 7f 	mr      r9,r31
    8d7c:	00 00 42 60 	ori     r2,r2,0
    8d80:	00 00 6a c1 	lfs     f11,0(r10)
    8d84:	2e 3c 0a 7c 	lfsx    f0,r10,r7
    8d88:	14 1a 08 7d 	add     r8,r8,r3
    8d8c:	00 40 8b 7f 	cmpw    cr7,r11,r8
    8d90:	b4 07 08 7d 	extsw   r8,r8
    8d94:	2a 58 00 ec 	fadds   f0,f0,f11
    8d98:	32 03 00 ec 	fmuls   f0,f0,f12
    8d9c:	2e 2d 0a 7c 	stfsx   f0,r10,r5
    8da0:	14 32 4a 7d 	add     r10,r10,r6
    8da4:	2e 3c 09 7c 	lfsx    f0,r9,r7
    8da8:	00 00 69 c1 	lfs     f11,0(r9)
    8dac:	2a 58 00 ec 	fadds   f0,f0,f11
    8db0:	32 03 00 ec 	fmuls   f0,f0,f12
    8db4:	2e 2d 09 7c 	stfsx   f0,r9,r5
    8db8:	14 32 29 7d 	add     r9,r9,r6
    8dbc:	c4 ff 9c 40 	bge     cr7,8d80 <Exptab+0x170>
    8dc0:	01 00 8c 39 	addi    r12,r12,1
    8dc4:	18 00 8c 2f 	cmpwi   cr7,r12,24
    8dc8:	b4 07 8c 7d 	extsw   r12,r12
    8dcc:	08 00 9d 40 	ble     cr7,8dd4 <Exptab+0x1c4>
    8dd0:	19 00 80 39 	li      r12,25
    8dd4:	01 00 84 2f 	cmpwi   cr7,r4,1
    8dd8:	78 03 03 7c 	mr      r3,r0
    8ddc:	64 ff 9d 41 	bgt     cr7,8d40 <Exptab+0x130>
    8de0:	88 00 21 e9 	ld      r9,136(r1)
    8de4:	f0 8f 4d e9 	ld      r10,-28688(r13)
    8de8:	79 52 29 7d 	xor.    r9,r9,r10
    8dec:	00 00 40 39 	li      r10,0
    8df0:	14 00 82 40 	bne     8e04 <Exptab+0x1f4>
    8df4:	a0 00 21 38 	addi    r1,r1,160
    8df8:	f0 ff c1 eb 	ld      r30,-16(r1)
    8dfc:	f8 ff e1 eb 	ld      r31,-8(r1)
    8e00:	20 00 80 4e 	blr
    8e04:	a6 02 08 7c 	mflr    r0
    8e08:	b0 00 01 f8 	std     r0,176(r1)
    8e0c:	b5 7e ff 4b 	bl      cc0 <00000048.plt_call.__stack_chk_fail@@GLIBC_2.17>
    8e10:	18 00 41 e8 	ld      r2,24(r1)
    8e14:	00 00 00 00 	.long 0x0
    8e18:	00 00 00 01 	.long 0x1000000
    8e1c:	80 02 00 00 	.long 0x280

0000000000008e20 <Fft>:
    8e20:	18 08 20 fc 	frsp    f1,f1
    8e24:	90 ff 41 fa 	std     r18,-112(r1)
    8e28:	98 ff 61 fa 	std     r19,-104(r1)
    8e2c:	a0 ff 81 fa 	std     r20,-96(r1)
    8e30:	b0 ff c1 fa 	std     r22,-80(r1)
    8e34:	c0 ff 01 fb 	std     r24,-64(r1)
    8e38:	d0 ff 41 fb 	std     r26,-48(r1)
    8e3c:	d8 ff 61 fb 	std     r27,-40(r1)
    8e40:	e8 ff a1 fb 	std     r29,-24(r1)
    8e44:	f0 ff c1 fb 	std     r30,-16(r1)
    8e48:	e0 ff 81 fb 	std     r28,-32(r1)
    8e4c:	70 0e 7c 7c 	srawi   r28,r3,1
    8e50:	94 01 9c 7f 	addze   r28,r28
    8e54:	a8 ff a1 fa 	std     r21,-88(r1)
    8e58:	b8 ff e1 fa 	std     r23,-72(r1)
    8e5c:	01 00 a0 3a 	li      r21,1
    8e60:	b4 07 9c 7f 	extsw   r28,r28
    8e64:	c8 ff 21 fb 	std     r25,-56(r1)
    8e68:	f8 ff e1 fb 	std     r31,-8(r1)
    8e6c:	08 00 24 3b 	addi    r25,r4,8
    8e70:	24 1f 9f 7b 	rldicr  r31,r28,3,60
    8e74:	0c 00 e4 3a 	addi    r23,r4,12
    8e78:	00 00 00 60 	nop
    8e7c:	00 00 42 60 	ori     r2,r2,0
    8e80:	3c 08 bb 56 	rlwinm  r27,r21,1,0,30
    8e84:	78 cb 3a 7f 	mr      r26,r25
    8e88:	b4 07 78 7f 	extsw   r24,r27
    8e8c:	78 bb ec 7e 	mr      r12,r23
    8e90:	78 cb 29 7f 	mr      r9,r25
    8e94:	78 ab be 7e 	mr      r30,r21
    8e98:	00 00 a0 3b 	li      r29,0
    8e9c:	01 00 40 39 	li      r10,1
    8ea0:	01 00 c0 3a 	li      r22,1
    8ea4:	00 00 00 60 	nop
    8ea8:	00 00 00 60 	nop
    8eac:	00 00 42 60 	ori     r2,r2,0
    8eb0:	2e fc 89 7d 	lfsx    f12,r9,r31
    8eb4:	00 00 09 c0 	lfs     f0,0(r9)
    8eb8:	14 ea 0a 7d 	add     r8,r10,r29
    8ebc:	24 1f c0 7a 	rldicr  r0,r22,3,60
    8ec0:	b4 07 08 7d 	extsw   r8,r8
    8ec4:	14 02 86 7e 	add     r20,r6,r0
    8ec8:	24 1f 0b 79 	rldicr  r11,r8,3,60
    8ecc:	14 f2 0a 7d 	add     r8,r10,r30
    8ed0:	14 5a 65 7e 	add     r19,r5,r11
    8ed4:	b4 07 08 7d 	extsw   r8,r8
    8ed8:	24 1f 08 79 	rldicr  r8,r8,3,60
    8edc:	01 00 4a 39 	addi    r10,r10,1
    8ee0:	2a 60 00 ec 	fadds   f0,f0,f12
    8ee4:	00 50 9e 7f 	cmpw    cr7,r30,r10
    8ee8:	14 42 45 7e 	add     r18,r5,r8
    8eec:	14 aa fe 7c 	add     r7,r30,r21
    8ef0:	b4 07 4a 7d 	extsw   r10,r10
    8ef4:	00 38 9c 7e 	cmpw    cr5,r28,r7
    8ef8:	b4 07 e7 7c 	extsw   r7,r7
    8efc:	2e 5d 05 7c 	stfsx   f0,r5,r11
    8f00:	2e fc 8c 7d 	lfsx    f12,r12,r31
    8f04:	00 00 0c c0 	lfs     f0,0(r12)
    8f08:	2e 04 66 7d 	lfsx    f11,r6,r0
    8f0c:	2a 60 00 ec 	fadds   f0,f0,f12
    8f10:	04 00 13 d0 	stfs    f0,4(r19)
    8f14:	00 00 0c c0 	lfs     f0,0(r12)
    8f18:	2e fc 0c 7d 	lfsx    f8,r12,r31
    8f1c:	08 00 8c 39 	addi    r12,r12,8
    8f20:	2e fc 89 7d 	lfsx    f12,r9,r31
    8f24:	04 00 34 c1 	lfs     f9,4(r20)
    8f28:	00 00 49 c1 	lfs     f10,0(r9)
    8f2c:	28 40 00 ec 	fsubs   f0,f0,f8
    8f30:	28 60 4a ed 	fsubs   f10,f10,f12
    8f34:	32 00 89 ed 	fmuls   f12,f9,f0
    8f38:	b8 62 6b ed 	fmsubs  f11,f11,f10,f12
    8f3c:	2e 45 65 7d 	stfsx   f11,r5,r8
    8f40:	00 00 89 c1 	lfs     f12,0(r9)
    8f44:	2e fc 49 7d 	lfsx    f10,r9,r31
    8f48:	08 00 29 39 	addi    r9,r9,8
    8f4c:	2e 04 66 7d 	lfsx    f11,r6,r0
    8f50:	28 50 8c ed 	fsubs   f12,f12,f10
    8f54:	72 02 8c ed 	fmuls   f12,f12,f9
    8f58:	fa 62 00 ec 	fmadds  f0,f0,f11,f12
    8f5c:	04 00 12 d0 	stfs    f0,4(r18)
    8f60:	50 ff 9c 40 	bge     cr7,8eb0 <Fft+0x90>
    8f64:	1c 00 94 41 	blt     cr5,8f80 <Fft+0x160>
    8f68:	78 f3 dd 7f 	mr      r29,r30
    8f6c:	78 3b fe 7c 	mr      r30,r7
    8f70:	01 00 dd 3a 	addi    r22,r29,1
    8f74:	3c ff ff 4b 	b       8eb0 <Fft+0x90>
    8f78:	00 00 00 60 	nop
    8f7c:	00 00 42 60 	ori     r2,r2,0
    8f80:	78 2b a8 7c 	mr      r8,r5
    8f84:	78 23 8a 7c 	mr      r10,r4
    8f88:	01 00 20 39 	li      r9,1
    8f8c:	14 00 00 48 	b       8fa0 <Fft+0x180>
    8f90:	00 00 00 60 	nop
    8f94:	00 00 00 60 	nop
    8f98:	00 00 00 60 	nop
    8f9c:	00 00 42 60 	ori     r2,r2,0
    8fa0:	09 00 e8 e8 	ldu     r7,8(r8)
    8fa4:	01 00 29 39 	addi    r9,r9,1
    8fa8:	00 48 83 7f 	cmpw    cr7,r3,r9
    8fac:	b4 07 29 7d 	extsw   r9,r9
    8fb0:	09 00 ea f8 	stdu    r7,8(r10)
    8fb4:	ec ff 9c 40 	bge     cr7,8fa0 <Fft+0x180>
    8fb8:	00 d8 9c 7f 	cmpw    cr7,r28,r27
    8fbc:	78 c3 15 7f 	mr      r21,r24
    8fc0:	c0 fe 9c 40 	bge     cr7,8e80 <Fft+0x60>
    8fc4:	00 00 83 2f 	cmpwi   cr7,r3,0
    8fc8:	a8 00 9d 40 	ble     cr7,9070 <Fft+0x250>
    8fcc:	01 00 83 2f 	cmpwi   cr7,r3,1
    8fd0:	50 08 80 fd 	fneg    f12,f1
    8fd4:	20 00 6a 78 	clrldi  r10,r3,32
    8fd8:	78 00 9e 41 	beq     cr7,9050 <Fft+0x230>
    8fdc:	51 08 21 f0 	xxspltd vs33,vs1,0
    8fe0:	51 60 0c f0 	xxspltd vs32,vs12,0
    8fe4:	42 f8 49 79 	rldicl  r9,r10,63,1
    8fe8:	00 00 89 2f 	cmpwi   cr7,r9,0
    8fec:	ff ff 29 39 	addi    r9,r9,-1
    8ff0:	27 0e 20 f0 	xvcvdpsp vs33,vs33
    8ff4:	27 06 00 f0 	xvcvdpsp vs32,vs32
    8ff8:	20 00 29 79 	clrldi  r9,r9,32
    8ffc:	01 00 29 39 	addi    r9,r9,1
    9000:	a6 03 29 7d 	mtctr   r9
    9004:	8c 0f 00 10 	vmrgew  v0,v0,v1
    9008:	a4 00 9e 41 	beq     cr7,90ac <Fft+0x28c>
    900c:	14 00 00 48 	b       9020 <Fft+0x200>
    9010:	00 00 00 60 	nop
    9014:	00 00 00 60 	nop
    9018:	00 00 00 60 	nop
    901c:	00 00 42 60 	ori     r2,r2,0
    9020:	98 d6 00 7c 	lxvd2x  vs0,0,r26
    9024:	50 02 00 f0 	xxswapd vs0,vs0
    9028:	82 02 00 f0 	xvmulsp vs0,vs0,vs32
    902c:	50 02 00 f0 	xxswapd vs0,vs0
    9030:	98 d7 00 7c 	stxvd2x vs0,0,r26
    9034:	10 00 5a 3b 	addi    r26,r26,16
    9038:	e8 ff 00 42 	bdnz    9020 <Fft+0x200>
    903c:	3c 00 49 55 	rlwinm  r9,r10,0,0,30
    9040:	40 50 89 7f 	cmplw   cr7,r9,r10
    9044:	01 00 29 39 	addi    r9,r9,1
    9048:	b4 07 23 7d 	extsw   r3,r9
    904c:	24 00 9e 41 	beq     cr7,9070 <Fft+0x250>
    9050:	24 1f 63 78 	rldicr  r3,r3,3,60
    9054:	14 1a 24 7d 	add     r9,r4,r3
    9058:	2e 1c 64 7d 	lfsx    f11,r4,r3
    905c:	04 00 09 c0 	lfs     f0,4(r9)
    9060:	72 00 2b ec 	fmuls   f1,f11,f1
    9064:	32 03 00 ec 	fmuls   f0,f0,f12
    9068:	2e 1d 24 7c 	stfsx   f1,r4,r3
    906c:	04 00 09 d0 	stfs    f0,4(r9)
    9070:	90 ff 41 ea 	ld      r18,-112(r1)
    9074:	98 ff 61 ea 	ld      r19,-104(r1)
    9078:	a0 ff 81 ea 	ld      r20,-96(r1)
    907c:	a8 ff a1 ea 	ld      r21,-88(r1)
    9080:	b0 ff c1 ea 	ld      r22,-80(r1)
    9084:	b8 ff e1 ea 	ld      r23,-72(r1)
    9088:	c0 ff 01 eb 	ld      r24,-64(r1)
    908c:	c8 ff 21 eb 	ld      r25,-56(r1)
    9090:	d0 ff 41 eb 	ld      r26,-48(r1)
    9094:	d8 ff 61 eb 	ld      r27,-40(r1)
    9098:	e0 ff 81 eb 	ld      r28,-32(r1)
    909c:	e8 ff a1 eb 	ld      r29,-24(r1)
    90a0:	f0 ff c1 eb 	ld      r30,-16(r1)
    90a4:	f8 ff e1 eb 	ld      r31,-8(r1)
    90a8:	20 00 80 4e 	blr
    90ac:	01 00 20 39 	li      r9,1
    90b0:	a6 03 29 7d 	mtctr   r9
    90b4:	6c ff ff 4b 	b       9020 <Fft+0x200>
	...
    90c0:	00 0e 00 00 	.long 0xe00
    90c4:	00 00 00 60 	nop
    90c8:	00 00 00 60 	nop
    90cc:	00 00 42 60 	ori     r2,r2,0

00000000000090d0 <Oscar>:
    90d0:	02 00 4c 3c 	addis   r2,r12,2
    90d4:	30 ee 42 38 	addi    r2,r2,-4560
    90d8:	a6 02 08 7c 	mflr    r0
    90dc:	c8 ff 21 db 	stfd    f25,-56(r1)
    90e0:	d0 ff 41 db 	stfd    f26,-48(r1)
    90e4:	1d 00 82 3d 	addis   r12,r2,29
    90e8:	cc 5a 8c 39 	addi    r12,r12,23244
    90ec:	d8 ff 61 db 	stfd    f27,-40(r1)
    90f0:	e0 ff 81 db 	stfd    f28,-32(r1)
    90f4:	e8 ff a1 db 	stfd    f29,-24(r1)
    90f8:	f0 ff c1 db 	stfd    f30,-16(r1)
    90fc:	f8 ff e1 db 	stfd    f31,-8(r1)
    9100:	48 ff 01 fa 	std     r16,-184(r1)
    9104:	43 00 02 3e 	addis   r16,r2,67
    9108:	a0 5c 10 3a 	addi    r16,r16,23712
    910c:	50 ff 21 fa 	std     r17,-176(r1)
    9110:	60 ff 61 fa 	std     r19,-160(r1)
    9114:	fe ff 62 3e 	addis   r19,r2,-2
    9118:	68 ff 81 fa 	std     r20,-152(r1)
    911c:	70 ff a1 fa 	std     r21,-144(r1)
    9120:	a8 1f 73 3a 	addi    r19,r19,8104
    9124:	78 ff c1 fa 	std     r22,-136(r1)
    9128:	80 ff e1 fa 	std     r23,-128(r1)
    912c:	fe ff c2 3e 	addis   r22,r2,-2
    9130:	fe ff e2 3e 	addis   r23,r2,-2
    9134:	90 ff 21 fb 	std     r25,-112(r1)
    9138:	98 ff 41 fb 	std     r26,-104(r1)
    913c:	b0 1f d6 3a 	addi    r22,r22,8112
    9140:	08 00 30 3b 	addi    r25,r16,8
    9144:	a0 ff 61 fb 	std     r27,-96(r1)
    9148:	a8 ff 81 fb 	std     r28,-88(r1)
    914c:	fe ff 82 3f 	addis   r28,r2,-2
    9150:	e8 03 60 3b 	li      r27,1000
    9154:	b0 ff a1 fb 	std     r29,-80(r1)
    9158:	b8 ff c1 fb 	std     r30,-72(r1)
    915c:	0c 00 50 3b 	addi    r26,r16,12
    9160:	f8 ff ac 3b 	addi    r29,r12,-8
    9164:	10 00 01 f8 	std     r0,16(r1)
    9168:	38 ff c1 f9 	std     r14,-200(r1)
    916c:	b8 1f f7 3a 	addi    r23,r23,8120
    9170:	70 1f 9c 3b 	addi    r28,r28,8048
    9174:	40 ff e1 f9 	std     r15,-192(r1)
    9178:	58 ff 41 fa 	std     r18,-168(r1)
    917c:	88 ff 01 fb 	std     r24,-120(r1)
    9180:	c0 ff e1 fb 	std     r31,-64(r1)
    9184:	91 fe 21 f8 	stdu    r1,-368(r1)
    9188:	43 00 22 3e 	addis   r17,r2,67
    918c:	b4 60 31 3a 	addi    r17,r17,24756
    9190:	08 00 d1 3b 	addi    r30,r17,8
    9194:	f0 8f 2d e9 	ld      r9,-28688(r13)
    9198:	98 00 21 f9 	std     r9,152(r1)
    919c:	00 00 20 39 	li      r9,0
    91a0:	fe ff 22 3d 	addis   r9,r2,-2
    91a4:	27 00 42 3e 	addis   r18,r2,39
    91a8:	ec 3b 52 3a 	addi    r18,r18,15340
    91ac:	3a 00 82 3e 	addis   r20,r2,58
    91b0:	b8 8b 94 3a 	addi    r20,r20,-29768
    91b4:	27 00 a2 3e 	addis   r21,r2,39
    91b8:	50 3b b5 3a 	addi    r21,r21,15184
    91bc:	9c 1f 29 c3 	lfs     f25,8092(r9)
    91c0:	fe ff 22 3d 	addis   r9,r2,-2
    91c4:	80 1f 49 c3 	lfs     f26,8064(r9)
    91c8:	fe ff 22 3d 	addis   r9,r2,-2
    91cc:	84 1f e9 c3 	lfs     f31,8068(r9)
    91d0:	fe ff 22 3d 	addis   r9,r2,-2
    91d4:	88 1f 69 c3 	lfs     f27,8072(r9)
    91d8:	fe ff 22 3d 	addis   r9,r2,-2
    91dc:	8c 1f 89 c3 	lfs     f28,8076(r9)
    91e0:	fe ff 22 3d 	addis   r9,r2,-2
    91e4:	90 1f a9 c3 	lfs     f29,8080(r9)
    91e8:	fe ff 22 3d 	addis   r9,r2,-2
    91ec:	94 1f c9 c3 	lfs     f30,8084(r9)
    91f0:	34 00 21 39 	addi    r9,r1,52
    91f4:	28 00 21 f9 	std     r9,40(r1)
    91f8:	fe ff 22 3d 	addis   r9,r2,-2
    91fc:	98 1f 29 39 	addi    r9,r9,8088
    9200:	20 00 21 f9 	std     r9,32(r1)
    9204:	20 00 41 e9 	ld      r10,32(r1)
    9208:	28 00 21 e9 	ld      r9,40(r1)
    920c:	00 00 ca c0 	lfs     f6,0(r10)
    9210:	19 00 40 39 	li      r10,25
    9214:	a6 03 49 7d 	mtctr   r10
    9218:	00 00 00 60 	nop
    921c:	00 00 42 60 	ori     r2,r2,0
    9220:	24 30 19 ec 	fdivs   f0,f25,f6
    9224:	04 00 29 39 	addi    r9,r9,4
    9228:	2a 30 c6 ec 	fadds   f6,f6,f6
    922c:	32 00 60 ed 	fmuls   f11,f0,f0
    9230:	f2 02 80 ed 	fmuls   f12,f0,f11
    9234:	50 58 60 fd 	fneg    f11,f11
    9238:	32 03 80 ed 	fmuls   f12,f0,f12
    923c:	ba fe 0b ed 	fmadds  f8,f11,f26,f31
    9240:	32 03 60 ed 	fmuls   f11,f0,f12
    9244:	24 d8 ec ec 	fdivs   f7,f12,f27
    9248:	f2 02 60 ed 	fmuls   f11,f0,f11
    924c:	f2 02 80 ed 	fmuls   f12,f0,f11
    9250:	24 e0 6b ed 	fdivs   f11,f11,f28
    9254:	32 03 80 ed 	fmuls   f12,f0,f12
    9258:	32 03 40 ed 	fmuls   f10,f0,f12
    925c:	24 e8 2c ed 	fdivs   f9,f12,f29
    9260:	2a 40 87 ed 	fadds   f12,f7,f8
    9264:	b2 02 00 ec 	fmuls   f0,f0,f10
    9268:	24 f0 40 ed 	fdivs   f10,f0,f30
    926c:	28 58 6c ed 	fsubs   f11,f12,f11
    9270:	2a 58 09 ec 	fadds   f0,f9,f11
    9274:	28 50 00 ec 	fsubs   f0,f0,f10
    9278:	2a 00 00 ec 	fadds   f0,f0,f0
    927c:	24 00 1f ec 	fdivs   f0,f31,f0
    9280:	fc ff 09 d0 	stfs    f0,-4(r9)
    9284:	9c ff 00 42 	bdnz    9220 <Oscar+0x150>
    9288:	80 3f 40 3d 	lis     r10,16256
    928c:	80 bf 20 3d 	lis     r9,-16512
    9290:	80 3f 00 3d 	lis     r8,16256
    9294:	c6 07 4a 79 	rldicr  r10,r10,32,31
    9298:	20 00 29 79 	clrldi  r9,r9,32
    929c:	06 00 60 38 	li      r3,6
    92a0:	08 00 10 f9 	std     r8,8(r16)
    92a4:	08 02 50 f9 	std     r10,520(r16)
    92a8:	40 00 80 38 	li      r4,64
    92ac:	01 00 e0 3b 	li      r31,1
    92b0:	08 04 30 f9 	std     r9,1032(r16)
    92b4:	70 0e 8b 7c 	srawi   r11,r4,1
    92b8:	94 01 6b 7d 	addze   r11,r11
    92bc:	a0 00 41 39 	addi    r10,r1,160
    92c0:	64 17 e9 7b 	rldicr  r9,r31,2,61
    92c4:	14 4a 2a 7d 	add     r9,r10,r9
    92c8:	3c 08 67 55 	rlwinm  r7,r11,1,0,30
    92cc:	b4 07 e7 7c 	extsw   r7,r7
    92d0:	b4 07 6b 7d 	extsw   r11,r11
    92d4:	90 ff 69 c1 	lfs     f11,-112(r9)
    92d8:	24 1f 65 79 	rldicr  r5,r11,3,60
    92dc:	24 1f e7 78 	rldicr  r7,r7,3,60
    92e0:	78 5b 68 7d 	mr      r8,r11
    92e4:	24 1f 86 78 	rldicr  r6,r4,3,60
    92e8:	78 cb 2a 7f 	mr      r10,r25
    92ec:	78 d3 49 7f 	mr      r9,r26
    92f0:	2e 3c 8a 7d 	lfsx    f12,r10,r7
    92f4:	00 00 0a c0 	lfs     f0,0(r10)
    92f8:	14 42 04 7d 	add     r8,r4,r8
    92fc:	80 00 88 2f 	cmpwi   cr7,r8,128
    9300:	b4 07 08 7d 	extsw   r8,r8
    9304:	2a 00 0c ec 	fadds   f0,f12,f0
    9308:	f2 02 00 ec 	fmuls   f0,f0,f11
    930c:	2e 2d 0a 7c 	stfsx   f0,r10,r5
    9310:	14 32 4a 7d 	add     r10,r10,r6
    9314:	2e 3c 89 7d 	lfsx    f12,r9,r7
    9318:	00 00 09 c0 	lfs     f0,0(r9)
    931c:	2a 00 0c ec 	fadds   f0,f12,f0
    9320:	f2 02 00 ec 	fmuls   f0,f0,f11
    9324:	2e 2d 09 7c 	stfsx   f0,r9,r5
    9328:	14 32 29 7d 	add     r9,r9,r6
    932c:	c4 ff 9d 40 	ble     cr7,92f0 <Oscar+0x220>
    9330:	01 00 ff 3b 	addi    r31,r31,1
    9334:	18 00 9f 2f 	cmpwi   cr7,r31,24
    9338:	b4 07 ff 7f 	extsw   r31,r31
    933c:	08 00 9d 40 	ble     cr7,9344 <Oscar+0x274>
    9340:	19 00 e0 3b 	li      r31,25
    9344:	ff ff 63 38 	addi    r3,r3,-1
    9348:	78 5b 64 7d 	mr      r4,r11
    934c:	21 00 63 78 	clrldi. r3,r3,32
    9350:	64 ff 82 40 	bne     92b4 <Oscar+0x1e4>
    9354:	00 01 40 39 	li      r10,256
    9358:	00 00 f3 c8 	lfd     f7,0(r19)
    935c:	00 00 16 c9 	lfd     f8,0(r22)
    9360:	78 63 8e 7d 	mr      r14,r12
    9364:	a6 03 49 7d 	mtctr   r10
    9368:	00 00 37 c9 	lfd     f9,0(r23)
    936c:	87 16 20 39 	li      r9,5767
    9370:	f7 12 29 1d 	mulli   r9,r9,4855
    9374:	08 00 ce 39 	addi    r14,r14,8
    9378:	c3 06 29 39 	addi    r9,r9,1731
    937c:	fe 04 29 55 	clrlwi  r9,r9,19
    9380:	f7 12 49 1d 	mulli   r10,r9,4855
    9384:	a6 01 09 7c 	mtfprwa f0,r9
    9388:	c3 06 2a 39 	addi    r9,r10,1731
    938c:	fe 04 29 55 	clrlwi  r9,r9,19
    9390:	9c 06 00 fc 	fcfid   f0,f0
    9394:	a6 01 89 7d 	mtfprwa f12,r9
    9398:	b4 07 29 7d 	extsw   r9,r9
    939c:	9c 66 80 fd 	fcfid   f12,f12
    93a0:	f2 01 00 fc 	fmul    f0,f0,f7
    93a4:	f2 01 8c fd 	fmul    f12,f12,f7
    93a8:	18 00 00 fc 	frsp    f0,f0
    93ac:	18 60 80 fd 	frsp    f12,f12
    93b0:	90 00 40 fd 	fmr     f10,f0
    93b4:	90 60 60 fd 	fmr     f11,f12
    93b8:	3a 4a 4a fd 	fmadd   f10,f10,f8,f9
    93bc:	3a 4a 6b fd 	fmadd   f11,f11,f8,f9
    93c0:	18 50 40 fd 	frsp    f10,f10
    93c4:	18 58 60 fd 	frsp    f11,f11
    93c8:	f8 ff 4e d1 	stfs    f10,-8(r14)
    93cc:	fc ff 6e d1 	stfs    f11,-4(r14)
    93d0:	a0 ff 00 42 	bdnz    9370 <Oscar+0x2a0>
    93d4:	00 00 32 91 	stw     r9,0(r18)
    93d8:	00 00 14 d0 	stfs    f0,0(r20)
    93dc:	14 00 e0 3b 	li      r31,20
    93e0:	00 00 95 d1 	stfs    f12,0(r21)
    93e4:	00 00 00 60 	nop
    93e8:	00 00 00 60 	nop
    93ec:	00 00 42 60 	ori     r2,r2,0
    93f0:	08 00 00 3b 	li      r24,8
    93f4:	01 00 80 38 	li      r4,1
    93f8:	00 00 00 60 	nop
    93fc:	00 00 42 60 	ori     r2,r2,0
    9400:	08 00 d0 c0 	lfs     f6,8(r16)
    9404:	0c 00 f0 c0 	lfs     f7,12(r16)
    9408:	3c 08 8f 54 	rlwinm  r15,r4,1,0,30
    940c:	78 eb a7 7f 	mr      r7,r29
    9410:	b4 07 ef 7d 	extsw   r15,r15
    9414:	78 23 86 7c 	mr      r6,r4
    9418:	00 00 a0 38 	li      r5,0
    941c:	01 00 20 39 	li      r9,1
    9420:	08 00 47 c1 	lfs     f10,8(r7)
    9424:	0c 00 87 c1 	lfs     f12,12(r7)
    9428:	14 2a 09 7d 	add     r8,r9,r5
    942c:	14 32 49 7d 	add     r10,r9,r6
    9430:	08 04 67 c1 	lfs     f11,1032(r7)
    9434:	0c 04 07 c0 	lfs     f0,1036(r7)
    9438:	01 00 29 39 	addi    r9,r9,1
    943c:	b4 07 08 7d 	extsw   r8,r8
    9440:	b4 07 4a 7d 	extsw   r10,r10
    9444:	00 48 86 7f 	cmpw    cr7,r6,r9
    9448:	24 1f 08 79 	rldicr  r8,r8,3,60
    944c:	24 1f 4a 79 	rldicr  r10,r10,3,60
    9450:	14 42 71 7d 	add     r11,r17,r8
    9454:	14 52 71 7c 	add     r3,r17,r10
    9458:	b4 07 29 7d 	extsw   r9,r9
    945c:	28 58 0a ed 	fsubs   f8,f10,f11
    9460:	28 00 2c ed 	fsubs   f9,f12,f0
    9464:	2a 58 6a ed 	fadds   f11,f10,f11
    9468:	2a 00 0c ec 	fadds   f0,f12,f0
    946c:	f2 01 49 ed 	fmuls   f10,f9,f7
    9470:	f2 01 88 ed 	fmuls   f12,f8,f7
    9474:	2e 45 71 7d 	stfsx   f11,r17,r8
    9478:	04 00 0b d0 	stfs    f0,4(r11)
    947c:	b8 51 08 ed 	fmsubs  f8,f8,f6,f10
    9480:	ba 61 29 ed 	fmadds  f9,f9,f6,f12
    9484:	2e 55 11 7d 	stfsx   f8,r17,r10
    9488:	04 00 23 d1 	stfs    f9,4(r3)
    948c:	30 00 9c 40 	bge     cr7,94bc <Oscar+0x3ec>
    9490:	14 22 46 7d 	add     r10,r6,r4
    9494:	80 00 8a 2f 	cmpwi   cr7,r10,128
    9498:	b4 07 4a 7d 	extsw   r10,r10
    949c:	34 00 9d 41 	bgt     cr7,94d0 <Oscar+0x400>
    94a0:	01 00 06 39 	addi    r8,r6,1
    94a4:	78 33 c5 7c 	mr      r5,r6
    94a8:	24 1f 08 79 	rldicr  r8,r8,3,60
    94ac:	78 53 46 7d 	mr      r6,r10
    94b0:	14 42 50 7d 	add     r10,r16,r8
    94b4:	2e 44 d0 7c 	lfsx    f6,r16,r8
    94b8:	04 00 ea c0 	lfs     f7,4(r10)
    94bc:	08 00 e7 38 	addi    r7,r7,8
    94c0:	60 ff ff 4b 	b       9420 <Oscar+0x350>
    94c4:	00 00 00 60 	nop
    94c8:	00 00 00 60 	nop
    94cc:	00 00 42 60 	ori     r2,r2,0
    94d0:	78 f3 c4 7f 	mr      r4,r30
    94d4:	78 63 83 7d 	mr      r3,r12
    94d8:	00 08 a0 38 	li      r5,2048
    94dc:	ff ff 18 3b 	addi    r24,r24,-1
    94e0:	81 75 ff 4b 	bl      a60 <00000048.plt_call.memcpy@@GLIBC_2.17>
    94e4:	18 00 41 e8 	ld      r2,24(r1)
    94e8:	21 00 18 7b 	clrldi. r24,r24,32
    94ec:	78 7b e4 7d 	mr      r4,r15
    94f0:	78 1b 6c 7c 	mr      r12,r3
    94f4:	0c ff 82 40 	bne     9400 <Oscar+0x330>
    94f8:	98 e6 80 7d 	lxvd2x  vs12,0,r28
    94fc:	78 1b 69 7c 	mr      r9,r3
    9500:	98 4e 00 7c 	lxvd2x  vs0,0,r9
    9504:	80 62 00 f0 	xvmulsp vs0,vs0,vs12
    9508:	98 4f 00 7c 	stxvd2x vs0,0,r9
    950c:	10 00 29 39 	addi    r9,r9,16
    9510:	40 70 a9 7f 	cmpld   cr7,r9,r14
    9514:	ec ff 9e 40 	bne     cr7,9500 <Oscar+0x430>
    9518:	ff ff ff 3b 	addi    r31,r31,-1
    951c:	21 00 ff 7b 	clrldi. r31,r31,32
    9520:	d0 fe 82 40 	bne     93f0 <Oscar+0x320>
    9524:	ff ff 7b 3b 	addi    r27,r27,-1
    9528:	21 00 7b 7b 	clrldi. r27,r27,32
    952c:	d8 fc 82 40 	bne     9204 <Oscar+0x134>
    9530:	98 00 21 e9 	ld      r9,152(r1)
    9534:	f0 8f 4d e9 	ld      r10,-28688(r13)
    9538:	79 52 29 7d 	xor.    r9,r9,r10
    953c:	00 00 40 39 	li      r10,0
    9540:	78 00 82 40 	bne     95b8 <Oscar+0x4e8>
    9544:	70 01 21 38 	addi    r1,r1,368
    9548:	10 00 01 e8 	ld      r0,16(r1)
    954c:	c8 ff 21 cb 	lfd     f25,-56(r1)
    9550:	d0 ff 41 cb 	lfd     f26,-48(r1)
    9554:	38 ff c1 e9 	ld      r14,-200(r1)
    9558:	d8 ff 61 cb 	lfd     f27,-40(r1)
    955c:	e0 ff 81 cb 	lfd     f28,-32(r1)
    9560:	40 ff e1 e9 	ld      r15,-192(r1)
    9564:	48 ff 01 ea 	ld      r16,-184(r1)
    9568:	e8 ff a1 cb 	lfd     f29,-24(r1)
    956c:	f0 ff c1 cb 	lfd     f30,-16(r1)
    9570:	50 ff 21 ea 	ld      r17,-176(r1)
    9574:	58 ff 41 ea 	ld      r18,-168(r1)
    9578:	a6 03 08 7c 	mtlr    r0
    957c:	f8 ff e1 cb 	lfd     f31,-8(r1)
    9580:	60 ff 61 ea 	ld      r19,-160(r1)
    9584:	68 ff 81 ea 	ld      r20,-152(r1)
    9588:	70 ff a1 ea 	ld      r21,-144(r1)
    958c:	78 ff c1 ea 	ld      r22,-136(r1)
    9590:	80 ff e1 ea 	ld      r23,-128(r1)
    9594:	88 ff 01 eb 	ld      r24,-120(r1)
    9598:	90 ff 21 eb 	ld      r25,-112(r1)
    959c:	98 ff 41 eb 	ld      r26,-104(r1)
    95a0:	a0 ff 61 eb 	ld      r27,-96(r1)
    95a4:	a8 ff 81 eb 	ld      r28,-88(r1)
    95a8:	b0 ff a1 eb 	ld      r29,-80(r1)
    95ac:	b8 ff c1 eb 	ld      r30,-72(r1)
    95b0:	c0 ff e1 eb 	ld      r31,-64(r1)
    95b4:	20 00 80 4e 	blr
    95b8:	09 77 ff 4b 	bl      cc0 <00000048.plt_call.__stack_chk_fail@@GLIBC_2.17>
    95bc:	18 00 41 e8 	ld      r2,24(r1)
    95c0:	00 00 00 00 	.long 0x0
    95c4:	00 00 02 01 	.long 0x1020000
    95c8:	87 12 00 00 	.long 0x1287

00000000000095cc <tbr64>:
    95cc:	a6 42 6c 7c 	mftb    r3
    95d0:	20 00 80 4e 	blr

00000000000095d4 <tbr32>:
    95d4:	a6 42 0d 7c 	mftbu   r0
    95d8:	a6 42 8c 7c 	mftb    r4
    95dc:	a6 42 6d 7c 	mftbu   r3
    95e0:	00 18 00 7c 	cmpw    r0,r3
    95e4:	20 00 c2 4d 	beqlr-  
    95e8:	ec ff ff 4b 	b       95d4 <tbr32>
    95ec:	00 00 00 60 	nop

00000000000095f0 <ao>:
    95f0:	20 00 80 4e 	blr
	...

0000000000009600 <init_timebase>:
    9600:	02 00 4c 3c 	addis   r2,r12,2
    9604:	00 e9 42 38 	addi    r2,r2,-5888
    9608:	a6 02 08 7c 	mflr    r0
    960c:	d0 ff 41 fb 	std     r26,-48(r1)
    9610:	e8 ff a1 fb 	std     r29,-24(r1)
    9614:	fe ff 42 3f 	addis   r26,r2,-2
    9618:	f0 ff c1 fb 	std     r30,-16(r1)
    961c:	f8 ff e1 fb 	std     r31,-8(r1)
    9620:	08 22 5a 3b 	addi    r26,r26,8712
    9624:	10 00 01 f8 	std     r0,16(r1)
    9628:	01 df 21 f8 	stdu    r1,-8448(r1)
    962c:	f0 8f 2d e9 	ld      r9,-28688(r13)
    9630:	78 20 21 f9 	std     r9,8312(r1)
    9634:	00 00 20 39 	li      r9,0
    9638:	09 76 ff 4b 	bl      c40 <00000048.plt_call.__errno_location@@GLIBC_2.17>
    963c:	18 00 41 e8 	ld      r2,24(r1)
    9640:	00 00 20 39 	li      r9,0
    9644:	fe ff 82 3c 	addis   r4,r2,-2
    9648:	00 00 23 91 	stw     r9,0(r3)
    964c:	78 1b 7d 7c 	mr      r29,r3
    9650:	00 22 84 38 	addi    r4,r4,8704
    9654:	78 d3 43 7f 	mr      r3,r26
    9658:	29 76 ff 4b 	bl      c80 <00000048.plt_call.fopen@@GLIBC_2.17>
    965c:	18 00 41 e8 	ld      r2,24(r1)
    9660:	79 1b 7e 7c 	mr.     r30,r3
    9664:	78 04 82 41 	beq     9adc <init_timebase+0x4dc>
    9668:	88 20 21 fa 	std     r17,8328(r1)
    966c:	90 20 41 fa 	std     r18,8336(r1)
    9670:	78 00 e1 3b 	addi    r31,r1,120
    9674:	98 20 61 fa 	std     r19,8344(r1)
    9678:	a0 20 81 fa 	std     r20,8352(r1)
    967c:	fe ff 82 3e 	addis   r20,r2,-2
    9680:	a8 20 a1 fa 	std     r21,8360(r1)
    9684:	b0 20 c1 fa 	std     r22,8368(r1)
    9688:	fe ff a2 3e 	addis   r21,r2,-2
    968c:	fe ff c2 3e 	addis   r22,r2,-2
    9690:	b8 20 e1 fa 	std     r23,8376(r1)
    9694:	c0 20 01 fb 	std     r24,8384(r1)
    9698:	fe ff e2 3e 	addis   r23,r2,-2
    969c:	fe ff 02 3f 	addis   r24,r2,-2
    96a0:	c8 20 21 fb 	std     r25,8392(r1)
    96a4:	d8 20 61 fb 	std     r27,8408(r1)
    96a8:	c8 22 b5 3a 	addi    r21,r21,8904
    96ac:	00 00 60 3b 	li      r27,0
    96b0:	e0 20 81 fb 	std     r28,8416(r1)
    96b4:	70 00 21 3b 	addi    r25,r1,112
    96b8:	00 00 80 3b 	li      r28,0
    96bc:	70 22 18 3b 	addi    r24,r24,8816
    96c0:	78 22 f7 3a 	addi    r23,r23,8824
    96c4:	80 22 94 3a 	addi    r20,r20,8832
    96c8:	40 22 d6 3a 	addi    r22,r22,8768
    96cc:	00 00 42 60 	ori     r2,r2,0
    96d0:	78 f3 c5 7f 	mr      r5,r30
    96d4:	00 20 80 38 	li      r4,8192
    96d8:	78 fb e3 7f 	mr      r3,r31
    96dc:	e5 74 ff 4b 	bl      bc0 <00000048.plt_call.fgets@@GLIBC_2.17>
    96e0:	18 00 41 e8 	ld      r2,24(r1)
    96e4:	00 00 a3 2f 	cmpdi   cr7,r3,0
    96e8:	24 01 9e 41 	beq     cr7,980c <init_timebase+0x20c>
    96ec:	fe ff 42 3d 	addis   r10,r2,-2
    96f0:	28 fc 20 7d 	ldbrx   r9,0,r31
    96f4:	38 22 4a 39 	addi    r10,r10,8760
    96f8:	28 54 40 7d 	ldbrx   r10,0,r10
    96fc:	e4 01 29 79 	rldicr  r9,r9,0,39
    9700:	e4 01 4a 79 	rldicr  r10,r10,0,39
    9704:	51 48 0a 7d 	subf.   r8,r10,r9
    9708:	24 00 82 41 	beq     972c <init_timebase+0x12c>
    970c:	f8 53 28 7d 	cmpb    r8,r9,r10
    9710:	f8 e3 27 7d 	cmpb    r7,r9,r28
    9714:	38 43 e8 7c 	orc     r8,r7,r8
    9718:	74 00 08 7d 	cntlzd  r8,r8
    971c:	08 00 08 39 	addi    r8,r8,8
    9720:	30 46 29 79 	rldcl   r9,r9,r8,56
    9724:	30 46 4a 79 	rldcl   r10,r10,r8,56
    9728:	50 48 0a 7d 	subf    r8,r10,r9
    972c:	00 00 88 2f 	cmpwi   cr7,r8,0
    9730:	f0 00 9e 40 	bne     cr7,9820 <init_timebase+0x220>
    9734:	3a 00 80 38 	li      r4,58
    9738:	78 fb e3 7f 	mr      r3,r31
    973c:	e5 74 ff 4b 	bl      c20 <00000048.plt_call.strchr@@GLIBC_2.17>
    9740:	18 00 41 e8 	ld      r2,24(r1)
    9744:	00 00 23 2c 	cmpdi   r3,0
    9748:	88 ff 82 41 	beq     96d0 <init_timebase+0xd0>
    974c:	01 00 63 3a 	addi    r19,r3,1
    9750:	f1 72 ff 4b 	bl      a40 <00000048.plt_call.__ctype_b_loc@@GLIBC_2.17>
    9754:	18 00 41 e8 	ld      r2,24(r1)
    9758:	00 00 03 e9 	ld      r8,0(r3)
    975c:	10 00 00 48 	b       976c <init_timebase+0x16c>
    9760:	00 00 a9 2f 	cmpdi   cr7,r9,0
    9764:	ac 01 9e 41 	beq     cr7,9910 <init_timebase+0x310>
    9768:	01 00 73 3a 	addi    r19,r19,1
    976c:	00 00 33 89 	lbz     r9,0(r19)
    9770:	a4 0f 2a 79 	rldicr  r10,r9,1,62
    9774:	2e 52 48 7d 	lhzx    r10,r8,r10
    9778:	00 08 4a 71 	andi.   r10,r10,2048
    977c:	e4 ff 82 41 	beq     9760 <init_timebase+0x160>
    9780:	00 00 7d 93 	stw     r27,0(r29)
    9784:	78 cb 24 7f 	mr      r4,r25
    9788:	78 9b 63 7e 	mr      r3,r19
    978c:	15 74 ff 4b 	bl      ba0 <00000048.plt_call.strtod@@GLIBC_2.17>
    9790:	18 00 41 e8 	ld      r2,24(r1)
    9794:	00 00 3d 81 	lwz     r9,0(r29)
    9798:	00 00 89 2f 	cmpwi   cr7,r9,0
    979c:	a4 02 9e 40 	bne     cr7,9a40 <init_timebase+0x440>
    97a0:	70 00 41 ea 	ld      r18,112(r1)
    97a4:	20 05 51 7a 	clrldi  r17,r18,52
    97a8:	fc 0f b1 2f 	cmpdi   cr7,r17,4092
    97ac:	34 02 9c 41 	blt     cr7,99e0 <init_timebase+0x3e0>
    97b0:	03 00 a0 38 	li      r5,3
    97b4:	78 c3 04 7f 	mr      r4,r24
    97b8:	68 00 21 d8 	stfd    f1,104(r1)
    97bc:	78 93 43 7e 	mr      r3,r18
    97c0:	e1 72 ff 4b 	bl      aa0 <00000048.plt_call.strncmp@@GLIBC_2.17>
    97c4:	18 00 41 e8 	ld      r2,24(r1)
    97c8:	68 00 21 c8 	lfd     f1,104(r1)
    97cc:	00 00 83 2f 	cmpwi   cr7,r3,0
    97d0:	d0 01 9e 40 	bne     cr7,99a0 <init_timebase+0x3a0>
    97d4:	fe ff 22 3d 	addis   r9,r2,-2
    97d8:	f0 21 09 c8 	lfd     f0,8688(r9)
    97dc:	32 00 21 fc 	fmul    f1,f1,f0
    97e0:	21 0d 00 f0 	xscvdpuxds vs32,vs1
    97e4:	00 00 00 60 	nop
    97e8:	78 f3 c5 7f 	mr      r5,r30
    97ec:	00 20 80 38 	li      r4,8192
    97f0:	78 fb e3 7f 	mr      r3,r31
    97f4:	67 00 0a 7c 	mfvsrd  r10,vs32
    97f8:	18 81 42 f9 	std     r10,-32488(r2)
    97fc:	c5 73 ff 4b 	bl      bc0 <00000048.plt_call.fgets@@GLIBC_2.17>
    9800:	18 00 41 e8 	ld      r2,24(r1)
    9804:	00 00 a3 2f 	cmpdi   cr7,r3,0
    9808:	e4 fe 9e 40 	bne     cr7,96ec <init_timebase+0xec>
    980c:	78 f3 c3 7f 	mr      r3,r30
    9810:	31 73 ff 4b 	bl      b40 <00000048.plt_call.fclose@@GLIBC_2.17>
    9814:	18 00 41 e8 	ld      r2,24(r1)
    9818:	1c 01 00 48 	b       9934 <init_timebase+0x334>
    981c:	00 00 42 60 	ori     r2,r2,0
    9820:	fe ff 42 3d 	addis   r10,r2,-2
    9824:	28 fc 20 7d 	ldbrx   r9,0,r31
    9828:	b8 22 4a 39 	addi    r10,r10,8888
    982c:	28 54 40 7d 	ldbrx   r10,0,r10
    9830:	51 48 0a 7d 	subf.   r8,r10,r9
    9834:	24 00 82 41 	beq     9858 <init_timebase+0x258>
    9838:	f8 53 28 7d 	cmpb    r8,r9,r10
    983c:	f8 e3 27 7d 	cmpb    r7,r9,r28
    9840:	38 43 e8 7c 	orc     r8,r7,r8
    9844:	74 00 08 7d 	cntlzd  r8,r8
    9848:	08 00 08 39 	addi    r8,r8,8
    984c:	30 46 29 79 	rldcl   r9,r9,r8,56
    9850:	30 46 4a 79 	rldcl   r10,r10,r8,56
    9854:	50 48 0a 7d 	subf    r8,r10,r9
    9858:	00 00 88 2f 	cmpwi   cr7,r8,0
    985c:	74 fe 9e 40 	bne     cr7,96d0 <init_timebase+0xd0>
    9860:	3a 00 80 38 	li      r4,58
    9864:	78 fb e3 7f 	mr      r3,r31
    9868:	b9 73 ff 4b 	bl      c20 <00000048.plt_call.strchr@@GLIBC_2.17>
    986c:	18 00 41 e8 	ld      r2,24(r1)
    9870:	00 00 23 2c 	cmpdi   r3,0
    9874:	5c fe 82 41 	beq     96d0 <init_timebase+0xd0>
    9878:	01 00 63 3a 	addi    r19,r3,1
    987c:	c5 71 ff 4b 	bl      a40 <00000048.plt_call.__ctype_b_loc@@GLIBC_2.17>
    9880:	18 00 41 e8 	ld      r2,24(r1)
    9884:	00 00 03 e9 	ld      r8,0(r3)
    9888:	14 00 00 48 	b       989c <init_timebase+0x29c>
    988c:	00 00 42 60 	ori     r2,r2,0
    9890:	00 00 a9 2f 	cmpdi   cr7,r9,0
    9894:	8c 01 9e 41 	beq     cr7,9a20 <init_timebase+0x420>
    9898:	01 00 73 3a 	addi    r19,r19,1
    989c:	00 00 33 89 	lbz     r9,0(r19)
    98a0:	a4 0f 2a 79 	rldicr  r10,r9,1,62
    98a4:	2e 52 48 7d 	lhzx    r10,r8,r10
    98a8:	00 08 4a 71 	andi.   r10,r10,2048
    98ac:	e4 ff 82 41 	beq     9890 <init_timebase+0x290>
    98b0:	00 00 7d 93 	stw     r27,0(r29)
    98b4:	0a 00 a0 38 	li      r5,10
    98b8:	00 00 80 38 	li      r4,0
    98bc:	78 9b 63 7e 	mr      r3,r19
    98c0:	01 72 ff 4b 	bl      ac0 <00000048.plt_call.strtoll@@GLIBC_2.17>
    98c4:	18 00 41 e8 	ld      r2,24(r1)
    98c8:	00 00 3d 81 	lwz     r9,0(r29)
    98cc:	00 00 00 60 	nop
    98d0:	20 81 62 f8 	std     r3,-32480(r2)
    98d4:	00 00 89 2f 	cmpwi   cr7,r9,0
    98d8:	f8 fd 9e 41 	beq     cr7,96d0 <init_timebase+0xd0>
    98dc:	00 00 00 60 	nop
    98e0:	30 80 22 e9 	ld      r9,-32720(r2)
    98e4:	78 9b 66 7e 	mr      r6,r19
    98e8:	78 ab a5 7e 	mr      r5,r21
    98ec:	01 00 80 38 	li      r4,1
    98f0:	00 00 69 e8 	ld      r3,0(r9)
    98f4:	6d 72 ff 4b 	bl      b60 <00000048.plt_call.__fprintf_chk@@GLIBC_2.17>
    98f8:	18 00 41 e8 	ld      r2,24(r1)
    98fc:	00 00 00 60 	nop
    9900:	20 81 82 fb 	std     r28,-32480(r2)
    9904:	cc fd ff 4b 	b       96d0 <init_timebase+0xd0>
    9908:	00 00 00 60 	nop
    990c:	00 00 42 60 	ori     r2,r2,0
    9910:	00 00 00 60 	nop
    9914:	30 80 22 e9 	ld      r9,-32720(r2)
    9918:	fe ff a2 3c 	addis   r5,r2,-2
    991c:	78 d3 46 7f 	mr      r6,r26
    9920:	f8 22 a5 38 	addi    r5,r5,8952
    9924:	00 00 69 e8 	ld      r3,0(r9)
    9928:	01 00 80 38 	li      r4,1
    992c:	35 72 ff 4b 	bl      b60 <00000048.plt_call.__fprintf_chk@@GLIBC_2.17>
    9930:	18 00 41 e8 	ld      r2,24(r1)
    9934:	88 20 21 ea 	ld      r17,8328(r1)
    9938:	90 20 41 ea 	ld      r18,8336(r1)
    993c:	98 20 61 ea 	ld      r19,8344(r1)
    9940:	a0 20 81 ea 	ld      r20,8352(r1)
    9944:	a8 20 a1 ea 	ld      r21,8360(r1)
    9948:	b0 20 c1 ea 	ld      r22,8368(r1)
    994c:	b8 20 e1 ea 	ld      r23,8376(r1)
    9950:	c0 20 01 eb 	ld      r24,8384(r1)
    9954:	c8 20 21 eb 	ld      r25,8392(r1)
    9958:	d8 20 61 eb 	ld      r27,8408(r1)
    995c:	e0 20 81 eb 	ld      r28,8416(r1)
    9960:	78 20 21 e9 	ld      r9,8312(r1)
    9964:	f0 8f 4d e9 	ld      r10,-28688(r13)
    9968:	79 52 29 7d 	xor.    r9,r9,r10
    996c:	00 00 40 39 	li      r10,0
    9970:	b0 01 82 40 	bne     9b20 <init_timebase+0x520>
    9974:	00 21 21 38 	addi    r1,r1,8448
    9978:	10 00 01 e8 	ld      r0,16(r1)
    997c:	d0 ff 41 eb 	ld      r26,-48(r1)
    9980:	e8 ff a1 eb 	ld      r29,-24(r1)
    9984:	f0 ff c1 eb 	ld      r30,-16(r1)
    9988:	f8 ff e1 eb 	ld      r31,-8(r1)
    998c:	a6 03 08 7c 	mtlr    r0
    9990:	20 00 80 4e 	blr
    9994:	00 00 00 60 	nop
    9998:	00 00 00 60 	nop
    999c:	00 00 42 60 	ori     r2,r2,0
    99a0:	fc 0f b1 2f 	cmpdi   cr7,r17,4092
    99a4:	cc 00 9c 41 	blt     cr7,9a70 <init_timebase+0x470>
    99a8:	78 93 43 7e 	mr      r3,r18
    99ac:	03 00 a0 38 	li      r5,3
    99b0:	68 00 21 d8 	stfd    f1,104(r1)
    99b4:	78 bb e4 7e 	mr      r4,r23
    99b8:	e9 70 ff 4b 	bl      aa0 <00000048.plt_call.strncmp@@GLIBC_2.17>
    99bc:	18 00 41 e8 	ld      r2,24(r1)
    99c0:	68 00 21 c8 	lfd     f1,104(r1)
    99c4:	00 00 83 2f 	cmpwi   cr7,r3,0
    99c8:	e8 00 9e 40 	bne     cr7,9ab0 <init_timebase+0x4b0>
    99cc:	fe ff 22 3d 	addis   r9,r2,-2
    99d0:	f8 21 09 c8 	lfd     f0,8696(r9)
    99d4:	32 00 21 fc 	fmul    f1,f1,f0
    99d8:	08 fe ff 4b 	b       97e0 <init_timebase+0x1e0>
    99dc:	00 00 42 60 	ori     r2,r2,0
    99e0:	2c 94 20 7d 	lwbrx   r9,0,r18
    99e4:	2c c4 40 7d 	lwbrx   r10,0,r24
    99e8:	c6 05 29 79 	rldicr  r9,r9,32,23
    99ec:	c6 05 4a 79 	rldicr  r10,r10,32,23
    99f0:	51 48 6a 7c 	subf.   r3,r10,r9
    99f4:	d8 fd 82 41 	beq     97cc <init_timebase+0x1cc>
    99f8:	f8 53 28 7d 	cmpb    r8,r9,r10
    99fc:	f8 e3 27 7d 	cmpb    r7,r9,r28
    9a00:	38 43 e8 7c 	orc     r8,r7,r8
    9a04:	74 00 08 7d 	cntlzd  r8,r8
    9a08:	08 00 08 39 	addi    r8,r8,8
    9a0c:	30 46 23 79 	rldcl   r3,r9,r8,56
    9a10:	30 46 4a 79 	rldcl   r10,r10,r8,56
    9a14:	50 18 6a 7c 	subf    r3,r10,r3
    9a18:	b4 fd ff 4b 	b       97cc <init_timebase+0x1cc>
    9a1c:	00 00 42 60 	ori     r2,r2,0
    9a20:	fe ff a2 3c 	addis   r5,r2,-2
    9a24:	00 00 00 60 	nop
    9a28:	30 80 22 e9 	ld      r9,-32720(r2)
    9a2c:	78 d3 46 7f 	mr      r6,r26
    9a30:	30 23 a5 38 	addi    r5,r5,9008
    9a34:	f0 fe ff 4b 	b       9924 <init_timebase+0x324>
    9a38:	00 00 00 60 	nop
    9a3c:	00 00 42 60 	ori     r2,r2,0
    9a40:	00 00 00 60 	nop
    9a44:	30 80 22 e9 	ld      r9,-32720(r2)
    9a48:	78 9b 66 7e 	mr      r6,r19
    9a4c:	78 b3 c5 7e 	mr      r5,r22
    9a50:	01 00 80 38 	li      r4,1
    9a54:	00 00 69 e8 	ld      r3,0(r9)
    9a58:	09 71 ff 4b 	bl      b60 <00000048.plt_call.__fprintf_chk@@GLIBC_2.17>
    9a5c:	18 00 41 e8 	ld      r2,24(r1)
    9a60:	d0 0c 21 f0 	xxlxor  vs1,vs1,vs1
    9a64:	3c fd ff 4b 	b       97a0 <init_timebase+0x1a0>
    9a68:	00 00 00 60 	nop
    9a6c:	00 00 42 60 	ori     r2,r2,0
    9a70:	2c 94 20 7d 	lwbrx   r9,0,r18
    9a74:	2c bc 40 7d 	lwbrx   r10,0,r23
    9a78:	c6 05 29 79 	rldicr  r9,r9,32,23
    9a7c:	c6 05 4a 79 	rldicr  r10,r10,32,23
    9a80:	51 48 6a 7c 	subf.   r3,r10,r9
    9a84:	40 ff 82 41 	beq     99c4 <init_timebase+0x3c4>
    9a88:	f8 53 28 7d 	cmpb    r8,r9,r10
    9a8c:	f8 e3 27 7d 	cmpb    r7,r9,r28
    9a90:	38 43 e8 7c 	orc     r8,r7,r8
    9a94:	74 00 08 7d 	cntlzd  r8,r8
    9a98:	08 00 08 39 	addi    r8,r8,8
    9a9c:	30 46 23 79 	rldcl   r3,r9,r8,56
    9aa0:	30 46 4a 79 	rldcl   r10,r10,r8,56
    9aa4:	50 18 6a 7c 	subf    r3,r10,r3
    9aa8:	00 00 83 2f 	cmpwi   cr7,r3,0
    9aac:	20 ff 9e 41 	beq     cr7,99cc <init_timebase+0x3cc>
    9ab0:	00 00 00 60 	nop
    9ab4:	30 80 22 e9 	ld      r9,-32720(r2)
    9ab8:	78 9b 66 7e 	mr      r6,r19
    9abc:	78 a3 85 7e 	mr      r5,r20
    9ac0:	68 00 21 d8 	stfd    f1,104(r1)
    9ac4:	01 00 80 38 	li      r4,1
    9ac8:	00 00 69 e8 	ld      r3,0(r9)
    9acc:	95 70 ff 4b 	bl      b60 <00000048.plt_call.__fprintf_chk@@GLIBC_2.17>
    9ad0:	18 00 41 e8 	ld      r2,24(r1)
    9ad4:	68 00 21 c8 	lfd     f1,104(r1)
    9ad8:	08 fd ff 4b 	b       97e0 <init_timebase+0x1e0>
    9adc:	00 00 00 60 	nop
    9ae0:	30 80 e2 eb 	ld      r31,-32720(r2)
    9ae4:	fe ff a2 3c 	addis   r5,r2,-2
    9ae8:	78 d3 46 7f 	mr      r6,r26
    9aec:	18 22 a5 38 	addi    r5,r5,8728
    9af0:	01 00 80 38 	li      r4,1
    9af4:	00 00 7f e8 	ld      r3,0(r31)
    9af8:	69 70 ff 4b 	bl      b60 <00000048.plt_call.__fprintf_chk@@GLIBC_2.17>
    9afc:	18 00 41 e8 	ld      r2,24(r1)
    9b00:	00 00 60 38 	li      r3,0
    9b04:	7d 6f ff 4b 	bl      a80 <00000048.plt_call.perror@@GLIBC_2.17>
    9b08:	18 00 41 e8 	ld      r2,24(r1)
    9b0c:	00 00 9f e8 	ld      r4,0(r31)
    9b10:	0a 00 60 38 	li      r3,10
    9b14:	cd 6f ff 4b 	bl      ae0 <00000048.plt_call.fputc@@GLIBC_2.17>
    9b18:	18 00 41 e8 	ld      r2,24(r1)
    9b1c:	44 fe ff 4b 	b       9960 <init_timebase+0x360>
    9b20:	88 20 21 fa 	std     r17,8328(r1)
    9b24:	90 20 41 fa 	std     r18,8336(r1)
    9b28:	98 20 61 fa 	std     r19,8344(r1)
    9b2c:	a0 20 81 fa 	std     r20,8352(r1)
    9b30:	a8 20 a1 fa 	std     r21,8360(r1)
    9b34:	b0 20 c1 fa 	std     r22,8368(r1)
    9b38:	b8 20 e1 fa 	std     r23,8376(r1)
    9b3c:	c0 20 01 fb 	std     r24,8384(r1)
    9b40:	c8 20 21 fb 	std     r25,8392(r1)
    9b44:	d8 20 61 fb 	std     r27,8408(r1)
    9b48:	e0 20 81 fb 	std     r28,8416(r1)
    9b4c:	75 71 ff 4b 	bl      cc0 <00000048.plt_call.__stack_chk_fail@@GLIBC_2.17>
    9b50:	18 00 41 e8 	ld      r2,24(r1)
    9b54:	00 00 00 00 	.long 0x0
    9b58:	00 00 00 01 	.long 0x1000000
    9b5c:	80 0f 00 00 	.long 0xf80

0000000000009b60 <timebase>:
    9b60:	02 00 4c 3c 	addis   r2,r12,2
    9b64:	a0 e3 42 38 	addi    r2,r2,-7264
    9b68:	a6 02 08 7c 	mflr    r0
    9b6c:	10 00 01 f8 	std     r0,16(r1)
    9b70:	e1 ff 21 f8 	stdu    r1,-32(r1)
    9b74:	59 fa ff 4b 	bl      95cc <tbr64>
    9b78:	00 00 00 60 	nop
    9b7c:	20 00 21 38 	addi    r1,r1,32
    9b80:	10 00 01 e8 	ld      r0,16(r1)
    9b84:	a6 03 08 7c 	mtlr    r0
    9b88:	20 00 80 4e 	blr
    9b8c:	00 00 00 00 	.long 0x0
    9b90:	00 00 00 01 	.long 0x1000000
    9b94:	80 00 00 00 	.long 0x80
    9b98:	00 00 00 60 	nop
    9b9c:	00 00 42 60 	ori     r2,r2,0

0000000000009ba0 <timebase_sec>:
    9ba0:	02 00 4c 3c 	addis   r2,r12,2
    9ba4:	60 e3 42 38 	addi    r2,r2,-7328
    9ba8:	a6 02 08 7c 	mflr    r0
    9bac:	10 00 01 f8 	std     r0,16(r1)
    9bb0:	e1 ff 21 f8 	stdu    r1,-32(r1)
    9bb4:	19 fa ff 4b 	bl      95cc <tbr64>
    9bb8:	00 00 00 60 	nop
    9bbc:	11 fa ff 4b 	bl      95cc <tbr64>
    9bc0:	00 00 00 60 	nop
    9bc4:	00 00 00 60 	nop
    9bc8:	20 00 21 38 	addi    r1,r1,32
    9bcc:	20 81 82 c9 	lfd     f12,-32480(r2)
    9bd0:	10 00 01 e8 	ld      r0,16(r1)
    9bd4:	a6 03 08 7c 	mtlr    r0
    9bd8:	9c 67 00 fc 	fcfidu  f0,f12
    9bdc:	66 01 83 7d 	mtvsrd  vs12,r3
    9be0:	9c 67 20 fc 	fcfidu  f1,f12
    9be4:	24 00 21 fc 	fdiv    f1,f1,f0
    9be8:	20 00 80 4e 	blr
    9bec:	00 00 00 00 	.long 0x0
    9bf0:	00 00 00 01 	.long 0x1000000
    9bf4:	80 00 00 00 	.long 0x80
    9bf8:	00 00 00 60 	nop
    9bfc:	00 00 42 60 	ori     r2,r2,0

0000000000009c00 <timebase_cycles>:
    9c00:	02 00 4c 3c 	addis   r2,r12,2
    9c04:	00 e3 42 38 	addi    r2,r2,-7424
    9c08:	00 00 00 60 	nop
    9c0c:	66 01 03 7c 	mtvsrd  vs0,r3
    9c10:	18 81 82 c9 	lfd     f12,-32488(r2)
    9c14:	00 00 00 60 	nop
    9c18:	20 81 62 c9 	lfd     f11,-32480(r2)
    9c1c:	9c 07 20 fc 	fcfidu  f1,f0
    9c20:	9c 67 00 fc 	fcfidu  f0,f12
    9c24:	9c 5f 80 fd 	fcfidu  f12,f11
    9c28:	72 00 20 fc 	fmul    f1,f0,f1
    9c2c:	24 60 21 fc 	fdiv    f1,f1,f12
    9c30:	20 00 80 4e 	blr
	...

0000000000009c40 <__libc_csu_init>:
    9c40:	02 00 4c 3c 	addis   r2,r12,2
    9c44:	c0 e2 42 38 	addi    r2,r2,-7488
    9c48:	a6 02 08 7c 	mflr    r0
    9c4c:	d0 ff 41 fb 	std     r26,-48(r1)
    9c50:	d8 ff 61 fb 	std     r27,-40(r1)
    9c54:	78 2b ba 7c 	mr      r26,r5
    9c58:	e0 ff 81 fb 	std     r28,-32(r1)
    9c5c:	e8 ff a1 fb 	std     r29,-24(r1)
    9c60:	ff ff a2 3f 	addis   r29,r2,-1
    9c64:	78 1b 7c 7c 	mr      r28,r3
    9c68:	f0 ff c1 fb 	std     r30,-16(r1)
    9c6c:	ff ff c2 3f 	addis   r30,r2,-1
    9c70:	08 7d bd 3b 	addi    r29,r29,32008
    9c74:	00 7d de 3b 	addi    r30,r30,32000
    9c78:	78 23 9b 7c 	mr      r27,r4
    9c7c:	50 e8 be 7f 	subf    r29,r30,r29
    9c80:	10 00 01 f8 	std     r0,16(r1)
    9c84:	b1 ff 21 f8 	stdu    r1,-80(r1)
    9c88:	81 6d ff 4b 	bl      a08 <_init+0x8>
    9c8c:	00 00 00 60 	nop
    9c90:	75 1e bd 7f 	sradi.  r29,r29,3
    9c94:	50 00 82 41 	beq     9ce4 <__libc_csu_init+0xa4>
    9c98:	48 00 e1 fb 	std     r31,72(r1)
    9c9c:	f8 ff de 3b 	addi    r30,r30,-8
    9ca0:	00 00 e0 3b 	li      r31,0
    9ca4:	00 00 00 60 	nop
    9ca8:	00 00 00 60 	nop
    9cac:	00 00 42 60 	ori     r2,r2,0
    9cb0:	09 00 3e e9 	ldu     r9,8(r30)
    9cb4:	78 d3 45 7f 	mr      r5,r26
    9cb8:	18 00 41 f8 	std     r2,24(r1)
    9cbc:	78 db 64 7f 	mr      r4,r27
    9cc0:	78 e3 83 7f 	mr      r3,r28
    9cc4:	01 00 ff 3b 	addi    r31,r31,1
    9cc8:	a6 03 29 7d 	mtctr   r9
    9ccc:	78 4b 2c 7d 	mr      r12,r9
    9cd0:	21 04 80 4e 	bctrl
    9cd4:	18 00 41 e8 	ld      r2,24(r1)
    9cd8:	40 f8 bd 7f 	cmpld   cr7,r29,r31
    9cdc:	d4 ff 9e 40 	bne     cr7,9cb0 <__libc_csu_init+0x70>
    9ce0:	48 00 e1 eb 	ld      r31,72(r1)
    9ce4:	50 00 21 38 	addi    r1,r1,80
    9ce8:	10 00 01 e8 	ld      r0,16(r1)
    9cec:	d0 ff 41 eb 	ld      r26,-48(r1)
    9cf0:	d8 ff 61 eb 	ld      r27,-40(r1)
    9cf4:	e0 ff 81 eb 	ld      r28,-32(r1)
    9cf8:	e8 ff a1 eb 	ld      r29,-24(r1)
    9cfc:	f0 ff c1 eb 	ld      r30,-16(r1)
    9d00:	a6 03 08 7c 	mtlr    r0
    9d04:	20 00 80 4e 	blr
    9d08:	00 00 00 00 	.long 0x0
    9d0c:	00 00 00 01 	.long 0x1000000
    9d10:	80 06 00 00 	.long 0x680
    9d14:	00 00 00 60 	nop
    9d18:	00 00 00 60 	nop
    9d1c:	00 00 42 60 	ori     r2,r2,0

0000000000009d20 <__libc_csu_fini>:
    9d20:	20 00 80 4e 	blr
	...
    9d30:	00 61 01 00 	.long 0x16100
    9d34:	00 00 00 00 	.long 0x0

0000000000009d38 <__glink_PLTresolve>:
    9d38:	a6 02 08 7c 	mflr    r0
    9d3c:	05 00 9f 42 	bcl     20,4*cr7+so,9d40 <__glink_PLTresolve+0x8>
    9d40:	a6 02 68 7d 	mflr    r11
    9d44:	18 00 41 f8 	std     r2,24(r1)
    9d48:	f0 ff 4b e8 	ld      r2,-16(r11)
    9d4c:	a6 03 08 7c 	mtlr    r0
    9d50:	50 60 8b 7d 	subf    r12,r11,r12
    9d54:	14 5a 62 7d 	add     r11,r2,r11
    9d58:	d0 ff 0c 38 	addi    r0,r12,-48
    9d5c:	00 00 8b e9 	ld      r12,0(r11)
    9d60:	82 f0 00 78 	rldicl  r0,r0,62,2
    9d64:	a6 03 89 7d 	mtctr   r12
    9d68:	08 00 6b e9 	ld      r11,8(r11)
    9d6c:	20 04 80 4e 	bctr

0000000000009d70 <memcpy@plt>:
    9d70:	c8 ff ff 4b 	b       9d38 <__glink_PLTresolve>

0000000000009d74 <perror@plt>:
    9d74:	c4 ff ff 4b 	b       9d38 <__glink_PLTresolve>

0000000000009d78 <strtoll@plt>:
    9d78:	c0 ff ff 4b 	b       9d38 <__glink_PLTresolve>

0000000000009d7c <strtod@plt>:
    9d7c:	bc ff ff 4b 	b       9d38 <__glink_PLTresolve>

0000000000009d80 <__cxa_finalize@plt>:
    9d80:	b8 ff ff 4b 	b       9d38 <__glink_PLTresolve>

0000000000009d84 <fputc@plt>:
    9d84:	b4 ff ff 4b 	b       9d38 <__glink_PLTresolve>

0000000000009d88 <fclose@plt>:
    9d88:	b0 ff ff 4b 	b       9d38 <__glink_PLTresolve>

0000000000009d8c <fopen@plt>:
    9d8c:	ac ff ff 4b 	b       9d38 <__glink_PLTresolve>

0000000000009d90 <malloc@plt>:
    9d90:	a8 ff ff 4b 	b       9d38 <__glink_PLTresolve>

0000000000009d94 <strncmp@plt>:
    9d94:	a4 ff ff 4b 	b       9d38 <__glink_PLTresolve>

0000000000009d98 <__libc_start_main@plt>:
    9d98:	a0 ff ff 4b 	b       9d38 <__glink_PLTresolve>

0000000000009d9c <__printf_chk@plt>:
    9d9c:	9c ff ff 4b 	b       9d38 <__glink_PLTresolve>

0000000000009da0 <memset@plt>:
    9da0:	98 ff ff 4b 	b       9d38 <__glink_PLTresolve>

0000000000009da4 <__stack_chk_fail@plt>:
    9da4:	94 ff ff 4b 	b       9d38 <__glink_PLTresolve>

0000000000009da8 <__gmon_start__@plt>:
    9da8:	90 ff ff 4b 	b       9d38 <__glink_PLTresolve>

0000000000009dac <puts@plt>:
    9dac:	8c ff ff 4b 	b       9d38 <__glink_PLTresolve>

0000000000009db0 <__fprintf_chk@plt>:
    9db0:	88 ff ff 4b 	b       9d38 <__glink_PLTresolve>

0000000000009db4 <__ctype_b_loc@plt>:
    9db4:	84 ff ff 4b 	b       9d38 <__glink_PLTresolve>

0000000000009db8 <strchr@plt>:
    9db8:	80 ff ff 4b 	b       9d38 <__glink_PLTresolve>

0000000000009dbc <__errno_location@plt>:
    9dbc:	7c ff ff 4b 	b       9d38 <__glink_PLTresolve>

0000000000009dc0 <putchar@plt>:
    9dc0:	78 ff ff 4b 	b       9d38 <__glink_PLTresolve>

0000000000009dc4 <fgets@plt>:
    9dc4:	74 ff ff 4b 	b       9d38 <__glink_PLTresolve>

Disassembly of section .fini:

0000000000009dc8 <_fini>:
    9dc8:	02 00 4c 3c 	addis   r2,r12,2
    9dcc:	38 e1 42 38 	addi    r2,r2,-7880
    9dd0:	a6 02 08 7c 	mflr    r0
    9dd4:	10 00 01 f8 	std     r0,16(r1)
    9dd8:	a1 ff 21 f8 	stdu    r1,-96(r1)
    9ddc:	60 00 21 38 	addi    r1,r1,96
    9de0:	10 00 01 e8 	ld      r0,16(r1)
    9de4:	a6 03 08 7c 	mtlr    r0
    9de8:	20 00 80 4e 	blr
